
C:\Users\LENOVO\AppData\Local\arduino\sketches\DF711B91C8ACB2EE95C2736A90A2C51D/sketch_mar27a.ino.elf:     file format elf32-avr


Disassembly of section .text:

00000000 <__vectors>:
__vectors():
       0:	0c 94 f9 01 	jmp	0x3f2	; 0x3f2 <__dtors_end>
       4:	0c 94 21 02 	jmp	0x442	; 0x442 <__bad_interrupt>
       8:	0c 94 21 02 	jmp	0x442	; 0x442 <__bad_interrupt>
       c:	0c 94 21 02 	jmp	0x442	; 0x442 <__bad_interrupt>
      10:	0c 94 21 02 	jmp	0x442	; 0x442 <__bad_interrupt>
      14:	0c 94 21 02 	jmp	0x442	; 0x442 <__bad_interrupt>
      18:	0c 94 21 02 	jmp	0x442	; 0x442 <__bad_interrupt>
      1c:	0c 94 21 02 	jmp	0x442	; 0x442 <__bad_interrupt>
      20:	0c 94 21 02 	jmp	0x442	; 0x442 <__bad_interrupt>
      24:	0c 94 e7 09 	jmp	0x13ce	; 0x13ce <__vector_9>
      28:	0c 94 21 02 	jmp	0x442	; 0x442 <__bad_interrupt>
      2c:	0c 94 57 0a 	jmp	0x14ae	; 0x14ae <__vector_11>
      30:	0c 94 31 0a 	jmp	0x1462	; 0x1462 <__vector_12>
      34:	0c 94 21 02 	jmp	0x442	; 0x442 <__bad_interrupt>
      38:	0c 94 21 02 	jmp	0x442	; 0x442 <__bad_interrupt>
      3c:	0c 94 21 02 	jmp	0x442	; 0x442 <__bad_interrupt>
      40:	0c 94 21 02 	jmp	0x442	; 0x442 <__bad_interrupt>
      44:	0c 94 89 0a 	jmp	0x1512	; 0x1512 <__vector_17>
      48:	0c 94 21 02 	jmp	0x442	; 0x442 <__bad_interrupt>
      4c:	0c 94 21 02 	jmp	0x442	; 0x442 <__bad_interrupt>
      50:	0c 94 21 02 	jmp	0x442	; 0x442 <__bad_interrupt>

00000054 <__trampolines_end>:
__trampolines_start():
      54:	63 64       	ori	r22, 0x43	; 67
      56:	69 6e       	ori	r22, 0xE9	; 233
      58:	6f 70       	andi	r22, 0x0F	; 15
      5a:	73 75       	andi	r23, 0x53	; 83
      5c:	78 58       	subi	r23, 0x88	; 136
      5e:	5b 00       	.word	0x005b	; ????

00000060 <_ZZ14update_displayvE3__c__23_>:
      60:	20 20 20 20 20 20 00                                      .

00000067 <_ZZ14update_displayvE3__c__22_>:
      67:	56 41 4c 3a 20 00                                   VAL: .

0000006d <_ZZ14update_displayvE3__c__21_>:
      6d:	4d 45 4e 49 54 3a 20 00                             MENIT: .

00000075 <_ZZ14update_displayvE3__c__20_>:
      75:	4a 41 4d 3a 20 00                                   JAM: .

0000007b <_ZZ14update_displayvE3__c__19_>:
      7b:	54 48 4e 3a 20 32 30 00                             THN: 20.

00000083 <nama_nada>:
      83:	53 49 52 45 4e 00 00 00 00 00 52 41 50 49 44 00     SIREN.....RAPID.
      93:	00 00 00 00 45 4d 45 52 47 00 00 00 00 00 4b 4f     ....EMERG.....KO
      a3:	4e 54 49 00 00 00 00 00 54 52 49 50 4c 45 00 00     NTI.....TRIPLE..
	...

000000b5 <_ZZ14update_displayvE3__c__18_>:
      b5:	5d 20 00                                            ] .

000000b8 <_ZZ14update_displayvE3__c__17_>:
      b8:	5b 00                                               [.

000000ba <_ZZ14update_displayvE3__c__16_>:
      ba:	5b 4f 46 46 5d 20 00                                [OFF] .

000000c1 <_ZZ14update_displayvE3__c__15_>:
      c1:	5b 4f 4e 5d 20 20 00                                [ON]  .

000000c8 <nama_warna>:
      c8:	4d 41 54 49 00 00 00 00 00 00 00 00 00 00 00 00     MATI............
      d8:	50 55 54 49 48 00 00 00 00 00 00 00 00 00 00 00     PUTIH...........
      e8:	4b 55 4e 49 4e 47 00 00 00 00 00 00 00 00 00 00     KUNING..........
      f8:	42 49 52 55 00 00 00 00 00 00 00 00 00 00 00 00     BIRU............
     108:	50 49 4e 4b 00 00 00 00 00 00 00 00 00 00 00 00     PINK............
     118:	50 45 4c 41 4e 47 49 00 00 00 00 00 00 00 00 00     PELANGI.........
     128:	4e 41 50 41 53 20 52 47 42 00 00 00 00 00 00 00     NAPAS RGB.......
     138:	49 43 45 20 42 4c 55 45 00 00 00 00 00 00 00 00     ICE BLUE........
     148:	43 59 41 4e 00 00 00 00 00 00 00 00 00 00 00 00     CYAN............
     158:	48 49 4a 41 55 00 00 00 00 00 00 00 00 00 00 00     HIJAU...........
     168:	55 4e 47 55 00 00 00 00 00 00 00 00 00 00 00 00     UNGU............
     178:	57 41 52 4d 20 52 4f 4f 4d 00 00 00 00 00 00 00     WARM ROOM.......

00000188 <_ZZ14update_displayvE3__c__14_>:
     188:	4d 4f 44 45 3a 20 00                                MODE: .

0000018f <_ZZ14update_displayvE3__c__13_>:
     18f:	45 44 49 54 3a 00                                   EDIT:.

00000195 <_ZZ14update_displayvE3__c__12_>:
     195:	20 20 20 20 20 20 20 20 20 20 20 20 00                          .

000001a2 <nama_menu>:
     1a2:	4a 41 4d 00 00 00 00 00 00 00 00 00 00 00 00 00     JAM.............
     1b2:	4d 45 4e 49 54 00 00 00 00 00 00 00 00 00 00 00     MENIT...........
     1c2:	54 41 4e 47 47 41 4c 00 00 00 00 00 00 00 00 00     TANGGAL.........
     1d2:	42 55 4c 41 4e 00 00 00 00 00 00 00 00 00 00 00     BULAN...........
     1e2:	54 41 48 55 4e 00 00 00 00 00 00 00 00 00 00 00     TAHUN...........
     1f2:	41 4c 41 52 4d 20 4a 41 4d 00 00 00 00 00 00 00     ALARM JAM.......
     202:	41 4c 41 52 4d 20 4d 45 4e 49 54 00 00 00 00 00     ALARM MENIT.....
     212:	41 4c 4d 20 4f 4e 2f 4f 46 46 00 00 00 00 00 00     ALM ON/OFF......
     222:	4e 41 44 41 20 41 4c 41 52 4d 00 00 00 00 00 00     NADA ALARM......
     232:	53 45 54 55 50 20 4c 41 4d 50 55 00 00 00 00 00     SETUP LAMPU.....
     242:	4b 45 4c 55 41 52 00 00 00 00 00 00 00 00 00 00     KELUAR..........

00000252 <_ZZ14update_displayvE3__c__11_>:
     252:	3e 00                                               >.

00000254 <_ZZ14update_displayvE3__c__10_>:
     254:	4d 45 4e 55 3a 20 20 20 20 20 20 20 20 20 20 20     MENU:           
	...

00000265 <update_display()::__c>:
     265:	3a 00                                               :.

00000267 <update_display()::__c>:
     267:	20 00                                                .

00000269 <update_display()::__c>:
     269:	4a 41 44 57 41 4c 20 53 48 4f 4c 41 54 00           JADWAL SHOLAT.

00000277 <update_display()::__c>:
     277:	3a 00                                               :.

00000279 <update_display()::__c>:
     279:	20 41 00                                             A.

0000027c <update_display()::__c>:
     27c:	20 00                                                .

0000027e <update_display()::__c>:
     27e:	3a 00                                               :.

00000280 <update_display()::__c>:
     280:	20 00                                                .

00000282 <update_display()::__c>:
     282:	3a 00                                               :.

00000284 <update_display()::__c>:
     284:	2f 00                                               /.

00000286 <update_display()::__c>:
     286:	2f 00                                               /.

00000288 <nama_hari>:
     288:	4d 49 4e 47 47 55 00 00 00 00 53 45 4e 49 4e 00     MINGGU....SENIN.
     298:	00 00 00 00 53 45 4c 41 53 41 00 00 00 00 52 41     ....SELASA....RA
     2a8:	42 55 00 00 00 00 00 00 4b 41 4d 49 53 00 00 00     BU......KAMIS...
     2b8:	00 00 4a 55 4d 41 54 00 00 00 00 00 53 41 42 54     ..JUMAT.....SABT
     2c8:	55 00 00 00 00 00                                   U.....

000002ce <tampil_angka_lcd(unsigned char)::__c>:
     2ce:	30 00                                               0.

000002d0 <loading_animation()::__c>:
     2d0:	4a 41 4d 20 44 49 47 49 54 41 4c 00                 JAM DIGITAL.

000002dc <loading_animation()::__c>:
     2dc:	47 46 41 4c 46 41 41 4e 00                          GFALFAAN.

000002e5 <loading_animation()::__c>:
     2e5:	53 4d 41 52 54 43 4c 4f 43 4b 2e 2e 2e 2e 2e 2e     SMARTCLOCK......
	...

000002f6 <nama_sholat>:
     2f6:	53 55 42 55 48 00 00 00 00 00 44 5a 55 48 55 52     SUBUH.....DZUHUR
     306:	00 00 00 00 41 53 48 41 52 00 00 00 00 00 4d 41     ....ASHAR.....MA
     316:	47 48 52 49 42 00 00 00 49 53 59 41 00 00 00 00     GHRIB...ISYA....
	...

00000328 <cek_alarm_dan_sholat()::__c>:
     328:	57 41 4b 54 55 20 53 48 4f 4c 41 54 00              WAKTU SHOLAT.

00000335 <cek_alarm_dan_sholat()::__c>:
     335:	54 41 4e 47 49 20 53 55 55 21 00                    TANGI SUU!.

00000340 <cek_alarm_dan_sholat()::__c>:
     340:	41 4c 41 52 4d 20 41 4b 54 49 46 00                 ALARM AKTIF.

0000034c <simpan_data()::__c>:
     34c:	53 41 56 45 44 21 00                                SAVED!.

00000353 <loop::__c>:
     353:	41 4c 41 52 4d 4f 4e 3a 00                          ALARMON:.

0000035c <loop::__c>:
     35c:	44 41 54 45 3a 00                                   DATE:.

00000362 <loop::__c>:
     362:	41 4c 41 52 4d 3a 00                                ALARM:.

00000369 <loop::__c>:
     369:	54 49 4d 45 3a 00                                   TIME:.

0000036f <port_to_mode_PGM>:
     36f:	00 00 3a 00 37 00 34 00 31 00                       ..:.7.4.1.

00000379 <port_to_input_PGM>:
     379:	00 00 39 00 36 00 33 00 30 00                       ..9.6.3.0.

00000383 <digital_pin_to_timer_PGM>:
     383:	00 00 00 02 00 00 00 00 00 00 00 00 05 04 00 07     ................
	...

000003a3 <digital_pin_to_bit_mask_PGM>:
     3a3:	01 02 04 08 10 20 40 80 01 02 04 08 10 20 40 80     ..... @...... @.
     3b3:	01 02 04 08 10 20 40 80 01 02 04 08 10 20 40 80     ..... @...... @.

000003c3 <port_to_output_PGM>:
     3c3:	00 00 3b 00 38 00 35 00 32 00                       ..;.8.5.2.

000003cd <digital_pin_to_port_PGM>:
     3cd:	02 02 02 02 02 02 02 02 04 04 04 04 04 04 04 04     ................
     3dd:	03 03 03 03 03 03 03 03 01 01 01 01 01 01 01 01     ................
	...

000003ee <__ctors_start>:
__ctors_start():
     3ee:	ab 0b       	sbc	r26, r27

000003f0 <__ctors_end>:
__dtors_start():
     3f0:	ac 18       	sub	r10, r12

000003f2 <__dtors_end>:
__dtors_end():
     3f2:	11 24       	eor	r1, r1
     3f4:	1f be       	out	0x3f, r1	; 63
     3f6:	cf e5       	ldi	r28, 0x5F	; 95
     3f8:	d4 e0       	ldi	r29, 0x04	; 4
     3fa:	de bf       	out	0x3e, r29	; 62
     3fc:	cd bf       	out	0x3d, r28	; 61

000003fe <__do_clear_bss>:
__do_clear_bss():
/home/jenkins-mingw32/workspace/avr-gcc-staging/label/Ubuntu14.04x64-mingw32/gcc-build/avr/avr5/libgcc/../../../../gcc/libgcc/config/avr/lib1funcs.S:2441
     3fe:	23 e0       	ldi	r18, 0x03	; 3
/home/jenkins-mingw32/workspace/avr-gcc-staging/label/Ubuntu14.04x64-mingw32/gcc-build/avr/avr5/libgcc/../../../../gcc/libgcc/config/avr/lib1funcs.S:2442
     400:	a0 e7       	ldi	r26, 0x70	; 112
/home/jenkins-mingw32/workspace/avr-gcc-staging/label/Ubuntu14.04x64-mingw32/gcc-build/avr/avr5/libgcc/../../../../gcc/libgcc/config/avr/lib1funcs.S:2443
     402:	b1 e0       	ldi	r27, 0x01	; 1
/home/jenkins-mingw32/workspace/avr-gcc-staging/label/Ubuntu14.04x64-mingw32/gcc-build/avr/avr5/libgcc/../../../../gcc/libgcc/config/avr/lib1funcs.S:2444
     404:	01 c0       	rjmp	.+2      	; 0x408 <.do_clear_bss_start>

00000406 <.do_clear_bss_loop>:
/home/jenkins-mingw32/workspace/avr-gcc-staging/label/Ubuntu14.04x64-mingw32/gcc-build/avr/avr5/libgcc/../../../../gcc/libgcc/config/avr/lib1funcs.S:2446
     406:	1d 92       	st	X+, r1

00000408 <.do_clear_bss_start>:
/home/jenkins-mingw32/workspace/avr-gcc-staging/label/Ubuntu14.04x64-mingw32/gcc-build/avr/avr5/libgcc/../../../../gcc/libgcc/config/avr/lib1funcs.S:2448
     408:	ae 30       	cpi	r26, 0x0E	; 14
/home/jenkins-mingw32/workspace/avr-gcc-staging/label/Ubuntu14.04x64-mingw32/gcc-build/avr/avr5/libgcc/../../../../gcc/libgcc/config/avr/lib1funcs.S:2449
     40a:	b2 07       	cpc	r27, r18
/home/jenkins-mingw32/workspace/avr-gcc-staging/label/Ubuntu14.04x64-mingw32/gcc-build/avr/avr5/libgcc/../../../../gcc/libgcc/config/avr/lib1funcs.S:2450
     40c:	e1 f7       	brne	.-8      	; 0x406 <.do_clear_bss_loop>

0000040e <__do_copy_data>:
__do_copy_data():
/home/jenkins-mingw32/workspace/avr-gcc-staging/label/Ubuntu14.04x64-mingw32/gcc-build/avr/avr5/libgcc/../../../../gcc/libgcc/config/avr/lib1funcs.S:2409
     40e:	11 e0       	ldi	r17, 0x01	; 1
/home/jenkins-mingw32/workspace/avr-gcc-staging/label/Ubuntu14.04x64-mingw32/gcc-build/avr/avr5/libgcc/../../../../gcc/libgcc/config/avr/lib1funcs.S:2410
     410:	a0 e6       	ldi	r26, 0x60	; 96
/home/jenkins-mingw32/workspace/avr-gcc-staging/label/Ubuntu14.04x64-mingw32/gcc-build/avr/avr5/libgcc/../../../../gcc/libgcc/config/avr/lib1funcs.S:2411
     412:	b0 e0       	ldi	r27, 0x00	; 0
/home/jenkins-mingw32/workspace/avr-gcc-staging/label/Ubuntu14.04x64-mingw32/gcc-build/avr/avr5/libgcc/../../../../gcc/libgcc/config/avr/lib1funcs.S:2412
     414:	ea ed       	ldi	r30, 0xDA	; 218
/home/jenkins-mingw32/workspace/avr-gcc-staging/label/Ubuntu14.04x64-mingw32/gcc-build/avr/avr5/libgcc/../../../../gcc/libgcc/config/avr/lib1funcs.S:2413
     416:	fb e3       	ldi	r31, 0x3B	; 59
/home/jenkins-mingw32/workspace/avr-gcc-staging/label/Ubuntu14.04x64-mingw32/gcc-build/avr/avr5/libgcc/../../../../gcc/libgcc/config/avr/lib1funcs.S:2414
     418:	02 c0       	rjmp	.+4      	; 0x41e <__do_copy_data+0x10>
/home/jenkins-mingw32/workspace/avr-gcc-staging/label/Ubuntu14.04x64-mingw32/gcc-build/avr/avr5/libgcc/../../../../gcc/libgcc/config/avr/lib1funcs.S:2417
     41a:	05 90       	lpm	r0, Z+
/home/jenkins-mingw32/workspace/avr-gcc-staging/label/Ubuntu14.04x64-mingw32/gcc-build/avr/avr5/libgcc/../../../../gcc/libgcc/config/avr/lib1funcs.S:2422
     41c:	0d 92       	st	X+, r0
/home/jenkins-mingw32/workspace/avr-gcc-staging/label/Ubuntu14.04x64-mingw32/gcc-build/avr/avr5/libgcc/../../../../gcc/libgcc/config/avr/lib1funcs.S:2424
     41e:	a0 37       	cpi	r26, 0x70	; 112
/home/jenkins-mingw32/workspace/avr-gcc-staging/label/Ubuntu14.04x64-mingw32/gcc-build/avr/avr5/libgcc/../../../../gcc/libgcc/config/avr/lib1funcs.S:2425
     420:	b1 07       	cpc	r27, r17
/home/jenkins-mingw32/workspace/avr-gcc-staging/label/Ubuntu14.04x64-mingw32/gcc-build/avr/avr5/libgcc/../../../../gcc/libgcc/config/avr/lib1funcs.S:2426
     422:	d9 f7       	brne	.-10     	; 0x41a <__do_copy_data+0xc>

00000424 <__do_global_ctors>:
__do_global_ctors():
/home/jenkins-mingw32/workspace/avr-gcc-staging/label/Ubuntu14.04x64-mingw32/gcc-build/avr/avr5/libgcc/../../../../gcc/libgcc/config/avr/lib1funcs.S:2466
     424:	11 e0       	ldi	r17, 0x01	; 1
/home/jenkins-mingw32/workspace/avr-gcc-staging/label/Ubuntu14.04x64-mingw32/gcc-build/avr/avr5/libgcc/../../../../gcc/libgcc/config/avr/lib1funcs.S:2467
     426:	c8 ef       	ldi	r28, 0xF8	; 248
/home/jenkins-mingw32/workspace/avr-gcc-staging/label/Ubuntu14.04x64-mingw32/gcc-build/avr/avr5/libgcc/../../../../gcc/libgcc/config/avr/lib1funcs.S:2468
     428:	d1 e0       	ldi	r29, 0x01	; 1
/home/jenkins-mingw32/workspace/avr-gcc-staging/label/Ubuntu14.04x64-mingw32/gcc-build/avr/avr5/libgcc/../../../../gcc/libgcc/config/avr/lib1funcs.S:2472
     42a:	04 c0       	rjmp	.+8      	; 0x434 <__do_global_ctors+0x10>
/home/jenkins-mingw32/workspace/avr-gcc-staging/label/Ubuntu14.04x64-mingw32/gcc-build/avr/avr5/libgcc/../../../../gcc/libgcc/config/avr/lib1funcs.S:2474
     42c:	21 97       	sbiw	r28, 0x01	; 1
/home/jenkins-mingw32/workspace/avr-gcc-staging/label/Ubuntu14.04x64-mingw32/gcc-build/avr/avr5/libgcc/../../../../gcc/libgcc/config/avr/lib1funcs.S:2480
     42e:	fe 01       	movw	r30, r28
/home/jenkins-mingw32/workspace/avr-gcc-staging/label/Ubuntu14.04x64-mingw32/gcc-build/avr/avr5/libgcc/../../../../gcc/libgcc/config/avr/lib1funcs.S:2481
     430:	0e 94 90 19 	call	0x3320	; 0x3320 <__tablejump2__>
/home/jenkins-mingw32/workspace/avr-gcc-staging/label/Ubuntu14.04x64-mingw32/gcc-build/avr/avr5/libgcc/../../../../gcc/libgcc/config/avr/lib1funcs.S:2483
     434:	c7 3f       	cpi	r28, 0xF7	; 247
/home/jenkins-mingw32/workspace/avr-gcc-staging/label/Ubuntu14.04x64-mingw32/gcc-build/avr/avr5/libgcc/../../../../gcc/libgcc/config/avr/lib1funcs.S:2484
     436:	d1 07       	cpc	r29, r17
/home/jenkins-mingw32/workspace/avr-gcc-staging/label/Ubuntu14.04x64-mingw32/gcc-build/avr/avr5/libgcc/../../../../gcc/libgcc/config/avr/lib1funcs.S:2489
     438:	c9 f7       	brne	.-14     	; 0x42c <__do_global_ctors+0x8>
     43a:	0e 94 71 0c 	call	0x18e2	; 0x18e2 <main>
     43e:	0c 94 e0 1d 	jmp	0x3bc0	; 0x3bc0 <__do_global_dtors>

00000442 <__bad_interrupt>:
__vector_1():
     442:	0c 94 00 00 	jmp	0	; 0x0 <__vectors>

00000446 <TwoWire::endTransmission(unsigned char) [clone .constprop.51]>:
_ZN7TwoWire15endTransmissionEh.constprop.51():
C:\Users\LENOVO\AppData\Local\Arduino15\packages\MightyCore\hardware\avr\3.1.0\libraries\Wire\src/Wire.cpp:222
//  the bus tenure has been properly ended with a STOP. It
//  is very possible to leave the bus in a hung state if
//  no call to endTransmission(true) is made. Some I2C
//  devices will behave oddly if they do not see a STOP.
//
uint8_t TwoWire::endTransmission(uint8_t sendStop)
     446:	28 2f       	mov	r18, r24
C:\Users\LENOVO\AppData\Local\Arduino15\packages\MightyCore\hardware\avr\3.1.0\libraries\Wire\src/Wire.cpp:225
{
  // transmit buffer (blocking)
  uint8_t ret = twi_writeTo(txAddress, txBuffer, txBufferLength, 1, sendStop);
     448:	90 91 3e 02 	lds	r25, 0x023E	; 0x80023e <TwoWire::txBufferLength>
C:\Users\LENOVO\AppData\Local\Arduino15\packages\MightyCore\hardware\avr\3.1.0\libraries\Wire\src\utility/twi.c:269
 */
uint8_t twi_writeTo(uint8_t address, uint8_t* data, uint8_t length, uint8_t wait, uint8_t sendStop)
{
  // ensure data will fit into buffer
  if(TWI_BUFFER_SIZE < length){
    return 1;
     44c:	81 e0       	ldi	r24, 0x01	; 1
twi_writeTo():
C:\Users\LENOVO\AppData\Local\Arduino15\packages\MightyCore\hardware\avr\3.1.0\libraries\Wire\src\utility/twi.c:268
 *          5 .. timeout
 */
uint8_t twi_writeTo(uint8_t address, uint8_t* data, uint8_t length, uint8_t wait, uint8_t sendStop)
{
  // ensure data will fit into buffer
  if(TWI_BUFFER_SIZE < length){
     44e:	91 32       	cpi	r25, 0x21	; 33
     450:	08 f0       	brcs	.+2      	; 0x454 <TwoWire::endTransmission(unsigned char) [clone .constprop.51]+0xe>
     452:	3f c0       	rjmp	.+126    	; 0x4d2 <__stack+0x73>
C:\Users\LENOVO\AppData\Local\Arduino15\packages\MightyCore\hardware\avr\3.1.0\libraries\Wire\src\utility/twi.c:282
        twi_handleTimeout(twi_do_reset_on_timeout);
        return (5);
      }
    }
  #else
    while(TWI_READY != twi_state){
     454:	80 91 1a 02 	lds	r24, 0x021A	; 0x80021a <twi_state>
     458:	81 11       	cpse	r24, r1
     45a:	fc cf       	rjmp	.-8      	; 0x454 <TwoWire::endTransmission(unsigned char) [clone .constprop.51]+0xe>
_ZN7TwoWire15endTransmissionEh.constprop.51():
C:\Users\LENOVO\AppData\Local\Arduino15\packages\MightyCore\hardware\avr\3.1.0\libraries\Wire\src/Wire.cpp:225
     45c:	80 91 3d 02 	lds	r24, 0x023D	; 0x80023d <TwoWire::txAddress>
twi_writeTo():
C:\Users\LENOVO\AppData\Local\Arduino15\packages\MightyCore\hardware\avr\3.1.0\libraries\Wire\src\utility/twi.c:287
      continue;
    }
  #endif

  twi_state = TWI_MTX;
     460:	32 e0       	ldi	r19, 0x02	; 2
     462:	30 93 1a 02 	sts	0x021A, r19	; 0x80021a <twi_state>
C:\Users\LENOVO\AppData\Local\Arduino15\packages\MightyCore\hardware\avr\3.1.0\libraries\Wire\src\utility/twi.c:288
  twi_sendStop = sendStop;
     466:	20 93 19 02 	sts	0x0219, r18	; 0x800219 <twi_sendStop>
C:\Users\LENOVO\AppData\Local\Arduino15\packages\MightyCore\hardware\avr\3.1.0\libraries\Wire\src\utility/twi.c:290
  // reset error state (0xFF.. no error occurred)
  twi_error = 0xFF;
     46a:	2f ef       	ldi	r18, 0xFF	; 255
     46c:	20 93 18 02 	sts	0x0218, r18	; 0x800218 <twi_error>
C:\Users\LENOVO\AppData\Local\Arduino15\packages\MightyCore\hardware\avr\3.1.0\libraries\Wire\src\utility/twi.c:293

  // initialize buffer iteration vars
  twi_masterBuffer = data;
     470:	2d e1       	ldi	r18, 0x1D	; 29
     472:	32 e0       	ldi	r19, 0x02	; 2
     474:	30 93 17 02 	sts	0x0217, r19	; 0x800217 <twi_masterBuffer+0x1>
     478:	20 93 16 02 	sts	0x0216, r18	; 0x800216 <twi_masterBuffer>
C:\Users\LENOVO\AppData\Local\Arduino15\packages\MightyCore\hardware\avr\3.1.0\libraries\Wire\src\utility/twi.c:294
  twi_masterBufferIndex = 0;
     47c:	10 92 15 02 	sts	0x0215, r1	; 0x800215 <twi_masterBufferIndex>
C:\Users\LENOVO\AppData\Local\Arduino15\packages\MightyCore\hardware\avr\3.1.0\libraries\Wire\src\utility/twi.c:295
  twi_masterBufferLength = length;
     480:	90 93 14 02 	sts	0x0214, r25	; 0x800214 <twi_masterBufferLength>
C:\Users\LENOVO\AppData\Local\Arduino15\packages\MightyCore\hardware\avr\3.1.0\libraries\Wire\src\utility/twi.c:298

  // build sla+w, slave device address + w bit
  twi_slarw = TW_WRITE;
     484:	10 92 13 02 	sts	0x0213, r1	; 0x800213 <twi_slarw>
C:\Users\LENOVO\AppData\Local\Arduino15\packages\MightyCore\hardware\avr\3.1.0\libraries\Wire\src\utility/twi.c:299
  twi_slarw |= address << 1;
     488:	90 91 13 02 	lds	r25, 0x0213	; 0x800213 <twi_slarw>
     48c:	88 0f       	add	r24, r24
     48e:	89 2b       	or	r24, r25
     490:	80 93 13 02 	sts	0x0213, r24	; 0x800213 <twi_slarw>
C:\Users\LENOVO\AppData\Local\Arduino15\packages\MightyCore\hardware\avr\3.1.0\libraries\Wire\src\utility/twi.c:304

  // if we're in a repeated start, then we've already sent the START
  // in the ISR. Don't do it again.
  //
  if (true == twi_inRepStart) {
     494:	80 91 12 02 	lds	r24, 0x0212	; 0x800212 <twi_inRepStart>
     498:	81 30       	cpi	r24, 0x01	; 1
     49a:	11 f5       	brne	.+68     	; 0x4e0 <__stack+0x81>
C:\Users\LENOVO\AppData\Local\Arduino15\packages\MightyCore\hardware\avr\3.1.0\libraries\Wire\src\utility/twi.c:311
    // (@@@ we hope), and the TWI statemachine is just waiting for the address byte.
    // We need to remove ourselves from the repeated start state before we enable interrupts,
    // since the ISR is ASYNC, and we could get confused if we hit the ISR before cleaning
    // up. Also, don't enable the START interrupt. There may be one pending from the 
    // repeated start that we sent ourselves, and that would really confuse things.
    twi_inRepStart = false; // Remember, we're dealing with an ASYNC ISR
     49c:	10 92 12 02 	sts	0x0212, r1	; 0x800212 <twi_inRepStart>
C:\Users\LENOVO\AppData\Local\Arduino15\packages\MightyCore\hardware\avr\3.1.0\libraries\Wire\src\utility/twi.c:322
          return (5);
        }
      } while(TWCR & _BV(TWWC));
    #else
      do {
        TWDR = twi_slarw;
     4a0:	80 91 13 02 	lds	r24, 0x0213	; 0x800213 <twi_slarw>
     4a4:	83 b9       	out	0x03, r24	; 3
C:\Users\LENOVO\AppData\Local\Arduino15\packages\MightyCore\hardware\avr\3.1.0\libraries\Wire\src\utility/twi.c:323
      } while(TWCR & _BV(TWWC));
     4a6:	06 b6       	in	r0, 0x36	; 54
     4a8:	03 fc       	sbrc	r0, 3
     4aa:	fa cf       	rjmp	.-12     	; 0x4a0 <__stack+0x41>
C:\Users\LENOVO\AppData\Local\Arduino15\packages\MightyCore\hardware\avr\3.1.0\libraries\Wire\src\utility/twi.c:325
    #endif
    TWCR = _BV(TWINT) | _BV(TWEA) | _BV(TWEN) | _BV(TWIE);  // enable INTs, but not START
     4ac:	85 ec       	ldi	r24, 0xC5	; 197
C:\Users\LENOVO\AppData\Local\Arduino15\packages\MightyCore\hardware\avr\3.1.0\libraries\Wire\src\utility/twi.c:329
  }
  else
    // send start condition
    TWCR = _BV(TWINT) | _BV(TWEA) | _BV(TWEN) | _BV(TWIE) | _BV(TWSTA); // enable INTs
     4ae:	86 bf       	out	0x36, r24	; 54
C:\Users\LENOVO\AppData\Local\Arduino15\packages\MightyCore\hardware\avr\3.1.0\libraries\Wire\src\utility/twi.c:341
        twi_handleTimeout(twi_do_reset_on_timeout);
        return (5);
      }
    }
  #else
    while(wait && (TWI_MTX == twi_state)){
     4b0:	80 91 1a 02 	lds	r24, 0x021A	; 0x80021a <twi_state>
     4b4:	82 30       	cpi	r24, 0x02	; 2
     4b6:	e1 f3       	breq	.-8      	; 0x4b0 <__stack+0x51>
C:\Users\LENOVO\AppData\Local\Arduino15\packages\MightyCore\hardware\avr\3.1.0\libraries\Wire\src\utility/twi.c:346
      continue;
    }
  #endif

  if (twi_error == 0xFF)
     4b8:	80 91 18 02 	lds	r24, 0x0218	; 0x800218 <twi_error>
     4bc:	8f 3f       	cpi	r24, 0xFF	; 255
     4be:	91 f0       	breq	.+36     	; 0x4e4 <__stack+0x85>
C:\Users\LENOVO\AppData\Local\Arduino15\packages\MightyCore\hardware\avr\3.1.0\libraries\Wire\src\utility/twi.c:348
    return 0; // success
  else if (twi_error == TW_MT_SLA_NACK)
     4c0:	80 91 18 02 	lds	r24, 0x0218	; 0x800218 <twi_error>
     4c4:	80 32       	cpi	r24, 0x20	; 32
     4c6:	81 f0       	breq	.+32     	; 0x4e8 <__stack+0x89>
C:\Users\LENOVO\AppData\Local\Arduino15\packages\MightyCore\hardware\avr\3.1.0\libraries\Wire\src\utility/twi.c:350
    return 2; // error: address send, nack received
  else if (twi_error == TW_MT_DATA_NACK)
     4c8:	80 91 18 02 	lds	r24, 0x0218	; 0x800218 <twi_error>
     4cc:	80 33       	cpi	r24, 0x30	; 48
     4ce:	71 f0       	breq	.+28     	; 0x4ec <__stack+0x8d>
_ZN7TwoWire15endTransmissionEh.constprop.51():
C:\Users\LENOVO\AppData\Local\Arduino15\packages\MightyCore\hardware\avr\3.1.0\libraries\Wire\src\utility/twi.c:353
    return 3; // error: data send, nack received
  else
    return 4; // other twi error
     4d0:	84 e0       	ldi	r24, 0x04	; 4
C:\Users\LENOVO\AppData\Local\Arduino15\packages\MightyCore\hardware\avr\3.1.0\libraries\Wire\src/Wire.cpp:227
  // reset tx buffer iterator vars
  txBufferIndex = 0;
     4d2:	10 92 1c 02 	sts	0x021C, r1	; 0x80021c <TwoWire::txBufferIndex>
C:\Users\LENOVO\AppData\Local\Arduino15\packages\MightyCore\hardware\avr\3.1.0\libraries\Wire\src/Wire.cpp:228
  txBufferLength = 0;
     4d6:	10 92 3e 02 	sts	0x023E, r1	; 0x80023e <TwoWire::txBufferLength>
C:\Users\LENOVO\AppData\Local\Arduino15\packages\MightyCore\hardware\avr\3.1.0\libraries\Wire\src/Wire.cpp:230
  // indicate that we are done transmitting
  transmitting = 0;
     4da:	10 92 1b 02 	sts	0x021B, r1	; 0x80021b <TwoWire::transmitting>
C:\Users\LENOVO\AppData\Local\Arduino15\packages\MightyCore\hardware\avr\3.1.0\libraries\Wire\src/Wire.cpp:232
  return ret;
}
     4de:	08 95       	ret
twi_writeTo():
C:\Users\LENOVO\AppData\Local\Arduino15\packages\MightyCore\hardware\avr\3.1.0\libraries\Wire\src\utility/twi.c:329
    #endif
    TWCR = _BV(TWINT) | _BV(TWEA) | _BV(TWEN) | _BV(TWIE);  // enable INTs, but not START
  }
  else
    // send start condition
    TWCR = _BV(TWINT) | _BV(TWEA) | _BV(TWEN) | _BV(TWIE) | _BV(TWSTA); // enable INTs
     4e0:	85 ee       	ldi	r24, 0xE5	; 229
     4e2:	e5 cf       	rjmp	.-54     	; 0x4ae <__stack+0x4f>
_ZN7TwoWire15endTransmissionEh.constprop.51():
C:\Users\LENOVO\AppData\Local\Arduino15\packages\MightyCore\hardware\avr\3.1.0\libraries\Wire\src\utility/twi.c:347
      continue;
    }
  #endif

  if (twi_error == 0xFF)
    return 0; // success
     4e4:	80 e0       	ldi	r24, 0x00	; 0
     4e6:	f5 cf       	rjmp	.-22     	; 0x4d2 <__stack+0x73>
C:\Users\LENOVO\AppData\Local\Arduino15\packages\MightyCore\hardware\avr\3.1.0\libraries\Wire\src\utility/twi.c:349
  else if (twi_error == TW_MT_SLA_NACK)
    return 2; // error: address send, nack received
     4e8:	82 e0       	ldi	r24, 0x02	; 2
     4ea:	f3 cf       	rjmp	.-26     	; 0x4d2 <__stack+0x73>
C:\Users\LENOVO\AppData\Local\Arduino15\packages\MightyCore\hardware\avr\3.1.0\libraries\Wire\src\utility/twi.c:351
  else if (twi_error == TW_MT_DATA_NACK)
    return 3; // error: data send, nack received
     4ec:	83 e0       	ldi	r24, 0x03	; 3
     4ee:	f1 cf       	rjmp	.-30     	; 0x4d2 <__stack+0x73>

000004f0 <Adafruit_NeoPixel::setPixelColor(unsigned int, unsigned long) [clone .part.5] [clone .constprop.41]>:
_ZN17Adafruit_NeoPixel13setPixelColorEjm.part.5.constprop.41():
c:\Users\LENOVO\Documents\Arduino\libraries\Adafruit_NeoPixel/Adafruit_NeoPixel.cpp:3447
  @param   n  Pixel index, starting from 0.
  @param   c  32-bit color value. Most significant byte is white (for RGBW
              pixels) or ignored (for RGB pixels), next is red, then green,
              and least significant byte is blue.
*/
void Adafruit_NeoPixel::setPixelColor(uint16_t n, uint32_t c) {
     4f0:	8f 92       	push	r8
     4f2:	9f 92       	push	r9
     4f4:	af 92       	push	r10
     4f6:	bf 92       	push	r11
     4f8:	cf 92       	push	r12
     4fa:	df 92       	push	r13
     4fc:	ef 92       	push	r14
     4fe:	ff 92       	push	r15
     500:	cf 93       	push	r28
c:\Users\LENOVO\Documents\Arduino\libraries\Adafruit_NeoPixel/Adafruit_NeoPixel.cpp:3449
  if (n < numLEDs) {
    uint8_t *p, r = (uint8_t)(c >> 16), g = (uint8_t)(c >> 8), b = (uint8_t)c;
     502:	4b 01       	movw	r8, r22
     504:	aa 24       	eor	r10, r10
     506:	bb 24       	eor	r11, r11
     508:	c8 2d       	mov	r28, r8
     50a:	c5 2e       	mov	r12, r21
     50c:	d6 2e       	mov	r13, r22
     50e:	e7 2e       	mov	r14, r23
     510:	ff 24       	eor	r15, r15
     512:	bc 2d       	mov	r27, r12
     514:	a4 2f       	mov	r26, r20
c:\Users\LENOVO\Documents\Arduino\libraries\Adafruit_NeoPixel/Adafruit_NeoPixel.cpp:3450
    if (brightness) { // See notes in setBrightness()
     516:	20 91 f0 02 	lds	r18, 0x02F0	; 0x8002f0 <strip+0x8>
     51a:	22 23       	and	r18, r18
     51c:	61 f0       	breq	.+24     	; 0x536 <Adafruit_NeoPixel::setPixelColor(unsigned int, unsigned long) [clone .part.5] [clone .constprop.41]+0x46>
c:\Users\LENOVO\Documents\Arduino\libraries\Adafruit_NeoPixel/Adafruit_NeoPixel.cpp:3451
      r = (r * brightness) >> 8;
     51e:	82 9e       	mul	r8, r18
     520:	40 01       	movw	r8, r0
     522:	11 24       	eor	r1, r1
     524:	c9 2d       	mov	r28, r9
c:\Users\LENOVO\Documents\Arduino\libraries\Adafruit_NeoPixel/Adafruit_NeoPixel.cpp:3452
      g = (g * brightness) >> 8;
     526:	2c 9d       	mul	r18, r12
     528:	60 01       	movw	r12, r0
     52a:	11 24       	eor	r1, r1
     52c:	bd 2d       	mov	r27, r13
c:\Users\LENOVO\Documents\Arduino\libraries\Adafruit_NeoPixel/Adafruit_NeoPixel.cpp:3453
      b = (b * brightness) >> 8;
     52e:	24 9f       	mul	r18, r20
     530:	f0 01       	movw	r30, r0
     532:	11 24       	eor	r1, r1
     534:	af 2f       	mov	r26, r31
c:\Users\LENOVO\Documents\Arduino\libraries\Adafruit_NeoPixel/Adafruit_NeoPixel.cpp:3455
    }
    if (wOffset == rOffset) {
     536:	e0 91 f6 02 	lds	r30, 0x02F6	; 0x8002f6 <strip+0xe>
     53a:	e0 90 f1 02 	lds	r14, 0x02F1	; 0x8002f1 <strip+0x9>
     53e:	f0 90 f2 02 	lds	r15, 0x02F2	; 0x8002f2 <strip+0xa>
     542:	30 91 f3 02 	lds	r19, 0x02F3	; 0x8002f3 <strip+0xb>
     546:	e3 13       	cpse	r30, r19
     548:	23 c0       	rjmp	.+70     	; 0x590 <Adafruit_NeoPixel::setPixelColor(unsigned int, unsigned long) [clone .part.5] [clone .constprop.41]+0xa0>
c:\Users\LENOVO\Documents\Arduino\libraries\Adafruit_NeoPixel/Adafruit_NeoPixel.cpp:3456
      p = &pixels[n * 3];
     54a:	9c 01       	movw	r18, r24
     54c:	22 0f       	add	r18, r18
     54e:	33 1f       	adc	r19, r19
     550:	82 0f       	add	r24, r18
     552:	93 1f       	adc	r25, r19
     554:	8e 0d       	add	r24, r14
     556:	9f 1d       	adc	r25, r15
c:\Users\LENOVO\Documents\Arduino\libraries\Adafruit_NeoPixel/Adafruit_NeoPixel.cpp:3462
    } else {
      p = &pixels[n * 4];
      uint8_t w = (uint8_t)(c >> 24);
      p[wOffset] = brightness ? ((w * brightness) >> 8) : w;
    }
    p[rOffset] = r;
     558:	e0 91 f3 02 	lds	r30, 0x02F3	; 0x8002f3 <strip+0xb>
     55c:	e8 0f       	add	r30, r24
     55e:	f9 2f       	mov	r31, r25
     560:	f1 1d       	adc	r31, r1
     562:	c0 83       	st	Z, r28
c:\Users\LENOVO\Documents\Arduino\libraries\Adafruit_NeoPixel/Adafruit_NeoPixel.cpp:3463
    p[gOffset] = g;
     564:	e0 91 f4 02 	lds	r30, 0x02F4	; 0x8002f4 <strip+0xc>
     568:	e8 0f       	add	r30, r24
     56a:	f9 2f       	mov	r31, r25
     56c:	f1 1d       	adc	r31, r1
     56e:	b0 83       	st	Z, r27
c:\Users\LENOVO\Documents\Arduino\libraries\Adafruit_NeoPixel/Adafruit_NeoPixel.cpp:3464
    p[bOffset] = b;
     570:	20 91 f5 02 	lds	r18, 0x02F5	; 0x8002f5 <strip+0xd>
     574:	82 0f       	add	r24, r18
     576:	91 1d       	adc	r25, r1
     578:	fc 01       	movw	r30, r24
     57a:	a0 83       	st	Z, r26
c:\Users\LENOVO\Documents\Arduino\libraries\Adafruit_NeoPixel/Adafruit_NeoPixel.cpp:3466
  }
}
     57c:	cf 91       	pop	r28
     57e:	ff 90       	pop	r15
     580:	ef 90       	pop	r14
     582:	df 90       	pop	r13
     584:	cf 90       	pop	r12
     586:	bf 90       	pop	r11
     588:	af 90       	pop	r10
     58a:	9f 90       	pop	r9
     58c:	8f 90       	pop	r8
     58e:	08 95       	ret
c:\Users\LENOVO\Documents\Arduino\libraries\Adafruit_NeoPixel/Adafruit_NeoPixel.cpp:3458
      b = (b * brightness) >> 8;
    }
    if (wOffset == rOffset) {
      p = &pixels[n * 3];
    } else {
      p = &pixels[n * 4];
     590:	88 0f       	add	r24, r24
     592:	99 1f       	adc	r25, r25
     594:	88 0f       	add	r24, r24
     596:	99 1f       	adc	r25, r25
     598:	8e 0d       	add	r24, r14
     59a:	9f 1d       	adc	r25, r15
c:\Users\LENOVO\Documents\Arduino\libraries\Adafruit_NeoPixel/Adafruit_NeoPixel.cpp:3459
      uint8_t w = (uint8_t)(c >> 24);
     59c:	47 2f       	mov	r20, r23
     59e:	55 27       	eor	r21, r21
     5a0:	66 27       	eor	r22, r22
     5a2:	77 27       	eor	r23, r23
c:\Users\LENOVO\Documents\Arduino\libraries\Adafruit_NeoPixel/Adafruit_NeoPixel.cpp:3460
      p[wOffset] = brightness ? ((w * brightness) >> 8) : w;
     5a4:	22 23       	and	r18, r18
     5a6:	49 f0       	breq	.+18     	; 0x5ba <Adafruit_NeoPixel::setPixelColor(unsigned int, unsigned long) [clone .part.5] [clone .constprop.41]+0xca>
     5a8:	30 e0       	ldi	r19, 0x00	; 0
     5aa:	24 9f       	mul	r18, r20
     5ac:	70 01       	movw	r14, r0
     5ae:	25 9f       	mul	r18, r21
     5b0:	f0 0c       	add	r15, r0
     5b2:	34 9f       	mul	r19, r20
     5b4:	f0 0c       	add	r15, r0
     5b6:	11 24       	eor	r1, r1
     5b8:	4f 2d       	mov	r20, r15
     5ba:	e8 0f       	add	r30, r24
     5bc:	f9 2f       	mov	r31, r25
     5be:	f1 1d       	adc	r31, r1
     5c0:	40 83       	st	Z, r20
     5c2:	ca cf       	rjmp	.-108    	; 0x558 <Adafruit_NeoPixel::setPixelColor(unsigned int, unsigned long) [clone .part.5] [clone .constprop.41]+0x68>

000005c4 <Adafruit_NeoPixel::fill(unsigned long, unsigned int, unsigned int) [clone .constprop.39]>:
_ZN17Adafruit_NeoPixel4fillEmjj.constprop.39():
c:\Users\LENOVO\Documents\Arduino\libraries\Adafruit_NeoPixel/Adafruit_NeoPixel.cpp:3479
  @param   first  Index of first pixel to fill, starting from 0. Must be
                  in-bounds, no clipping is performed. 0 if unspecified.
  @param   count  Number of pixels to fill, as a positive value. Passing
                  0 or leaving unspecified will fill to end of strip.
*/
void Adafruit_NeoPixel::fill(uint32_t c, uint16_t first, uint16_t count) {
     5c4:	cf 92       	push	r12
     5c6:	df 92       	push	r13
     5c8:	ef 92       	push	r14
     5ca:	ff 92       	push	r15
     5cc:	0f 93       	push	r16
     5ce:	1f 93       	push	r17
     5d0:	cf 93       	push	r28
     5d2:	df 93       	push	r29
c:\Users\LENOVO\Documents\Arduino\libraries\Adafruit_NeoPixel/Adafruit_NeoPixel.cpp:3482
  uint16_t i, end;

  if (first >= numLEDs) {
     5d4:	00 91 ea 02 	lds	r16, 0x02EA	; 0x8002ea <strip+0x2>
     5d8:	10 91 eb 02 	lds	r17, 0x02EB	; 0x8002eb <strip+0x3>
     5dc:	01 15       	cp	r16, r1
     5de:	11 05       	cpc	r17, r1
     5e0:	a1 f0       	breq	.+40     	; 0x60a <Adafruit_NeoPixel::fill(unsigned long, unsigned int, unsigned int) [clone .constprop.39]+0x46>
     5e2:	6b 01       	movw	r12, r22
     5e4:	7c 01       	movw	r14, r24
c:\Users\LENOVO\Documents\Arduino\libraries\Adafruit_NeoPixel/Adafruit_NeoPixel.cpp:3497
    end = first + count;
    if (end > numLEDs)
      end = numLEDs;
  }

  for (i = first; i < end; i++) {
     5e6:	d0 e0       	ldi	r29, 0x00	; 0
     5e8:	c0 e0       	ldi	r28, 0x00	; 0
setPixelColor():
c:\Users\LENOVO\Documents\Arduino\libraries\Adafruit_NeoPixel/Adafruit_NeoPixel.cpp:3448
  @param   c  32-bit color value. Most significant byte is white (for RGBW
              pixels) or ignored (for RGB pixels), next is red, then green,
              and least significant byte is blue.
*/
void Adafruit_NeoPixel::setPixelColor(uint16_t n, uint32_t c) {
  if (n < numLEDs) {
     5ea:	80 91 ea 02 	lds	r24, 0x02EA	; 0x8002ea <strip+0x2>
     5ee:	90 91 eb 02 	lds	r25, 0x02EB	; 0x8002eb <strip+0x3>
     5f2:	c8 17       	cp	r28, r24
     5f4:	d9 07       	cpc	r29, r25
     5f6:	28 f4       	brcc	.+10     	; 0x602 <Adafruit_NeoPixel::fill(unsigned long, unsigned int, unsigned int) [clone .constprop.39]+0x3e>
     5f8:	b7 01       	movw	r22, r14
     5fa:	a6 01       	movw	r20, r12
     5fc:	ce 01       	movw	r24, r28
     5fe:	0e 94 78 02 	call	0x4f0	; 0x4f0 <Adafruit_NeoPixel::setPixelColor(unsigned int, unsigned long) [clone .part.5] [clone .constprop.41]>
_ZN17Adafruit_NeoPixel4fillEmjj.constprop.39():
c:\Users\LENOVO\Documents\Arduino\libraries\Adafruit_NeoPixel/Adafruit_NeoPixel.cpp:3497
    end = first + count;
    if (end > numLEDs)
      end = numLEDs;
  }

  for (i = first; i < end; i++) {
     602:	21 96       	adiw	r28, 0x01	; 1
     604:	0c 17       	cp	r16, r28
     606:	1d 07       	cpc	r17, r29
     608:	81 f7       	brne	.-32     	; 0x5ea <Adafruit_NeoPixel::fill(unsigned long, unsigned int, unsigned int) [clone .constprop.39]+0x26>
c:\Users\LENOVO\Documents\Arduino\libraries\Adafruit_NeoPixel/Adafruit_NeoPixel.cpp:3500
    this->setPixelColor(i, c);
  }
}
     60a:	df 91       	pop	r29
     60c:	cf 91       	pop	r28
     60e:	1f 91       	pop	r17
     610:	0f 91       	pop	r16
     612:	ff 90       	pop	r15
     614:	ef 90       	pop	r14
     616:	df 90       	pop	r13
     618:	cf 90       	pop	r12
     61a:	08 95       	ret

0000061c <TwoWire::onRequestService()>:
_ZN7TwoWire16onRequestServiceEv():
C:\Users\LENOVO\AppData\Local\Arduino15\packages\MightyCore\hardware\avr\3.1.0\libraries\Wire\src/Wire.cpp:366
  // !!! this will kill any pending pre-master sendTo() activity
  txBufferIndex = 0;
  txBufferLength = 0;
  // alert user program
  user_onRequest();
}
     61c:	08 95       	ret

0000061e <TwoWire::onReceiveService(unsigned char*, int)>:
_ZN7TwoWire16onReceiveServiceEPhi():
C:\Users\LENOVO\AppData\Local\Arduino15\packages\MightyCore\hardware\avr\3.1.0\libraries\Wire\src/Wire.cpp:351
  // set rx iterator vars
  rxBufferIndex = 0;
  rxBufferLength = numBytes;
  // alert user program
  user_onReceive(numBytes);
}
     61e:	08 95       	ret

00000620 <turnOffPWM>:
turnOffPWM():
C:\Users\LENOVO\AppData\Local\Arduino15\packages\MightyCore\hardware\avr\3.1.0\cores\MCUdude_corefiles/wiring_digital.c:77
//
//static inline void turnOffPWM(uint8_t timer) __attribute__ ((always_inline));
//static inline void turnOffPWM(uint8_t timer)
static void turnOffPWM(uint8_t timer)
{
  switch (timer)
     620:	84 30       	cpi	r24, 0x04	; 4
     622:	59 f0       	breq	.+22     	; 0x63a <turnOffPWM+0x1a>
     624:	28 f4       	brcc	.+10     	; 0x630 <turnOffPWM+0x10>
     626:	81 30       	cpi	r24, 0x01	; 1
     628:	99 f0       	breq	.+38     	; 0x650 <turnOffPWM+0x30>
     62a:	82 30       	cpi	r24, 0x02	; 2
     62c:	89 f0       	breq	.+34     	; 0x650 <turnOffPWM+0x30>
     62e:	08 95       	ret
     630:	85 30       	cpi	r24, 0x05	; 5
     632:	39 f0       	breq	.+14     	; 0x642 <turnOffPWM+0x22>
     634:	87 30       	cpi	r24, 0x07	; 7
     636:	41 f0       	breq	.+16     	; 0x648 <turnOffPWM+0x28>
     638:	08 95       	ret
C:\Users\LENOVO\AppData\Local\Arduino15\packages\MightyCore\hardware\avr\3.1.0\cores\MCUdude_corefiles/wiring_digital.c:82
  {
    // Timer1
    #if defined(TCCR1A) && defined(COM1A1)
      case TIMER1A:
        TCCR1A &= ~_BV(COM1A1);
     63a:	8f b5       	in	r24, 0x2f	; 47
     63c:	8f 77       	andi	r24, 0x7F	; 127
C:\Users\LENOVO\AppData\Local\Arduino15\packages\MightyCore\hardware\avr\3.1.0\cores\MCUdude_corefiles/wiring_digital.c:87
        break;
    #endif
    #if defined(TCCR1A) && defined(COM1B1)
      case TIMER1B:
        TCCR1A &= ~_BV(COM1B1);
     63e:	8f bd       	out	0x2f, r24	; 47
     640:	08 95       	ret
     642:	8f b5       	in	r24, 0x2f	; 47
     644:	8f 7d       	andi	r24, 0xDF	; 223
     646:	fb cf       	rjmp	.-10     	; 0x63e <turnOffPWM+0x1e>
C:\Users\LENOVO\AppData\Local\Arduino15\packages\MightyCore\hardware\avr\3.1.0\cores\MCUdude_corefiles/wiring_digital.c:99
    #endif
    
    // Timer2
    #if defined(TCCR2) && defined(COM21)
      case TIMER2:
        TCCR2 &= ~_BV(COM21);
     648:	85 b5       	in	r24, 0x25	; 37
     64a:	8f 7d       	andi	r24, 0xDF	; 223
     64c:	85 bd       	out	0x25, r24	; 37
     64e:	08 95       	ret
C:\Users\LENOVO\AppData\Local\Arduino15\packages\MightyCore\hardware\avr\3.1.0\cores\MCUdude_corefiles/wiring_digital.c:171
    #if defined(TCCR0) && defined(COM01)
      case TIMER0:
        TCCR0 &= ~_BV(COM01);
        break;
      case TIMER0A:
        TCCR0 &= ~_BV(COM01);
     650:	83 b7       	in	r24, 0x33	; 51
     652:	8f 7d       	andi	r24, 0xDF	; 223
     654:	83 bf       	out	0x33, r24	; 51
C:\Users\LENOVO\AppData\Local\Arduino15\packages\MightyCore\hardware\avr\3.1.0\cores\MCUdude_corefiles/wiring_digital.c:185
      case TIMER0B:
        TCCR0A &= ~_BV(COM0B1);
        break;
    #endif
  }
}
     656:	08 95       	ret

00000658 <digitalRead>:
digitalRead():
C:\Users\LENOVO\AppData\Local\Arduino15\packages\MightyCore\hardware\avr\3.1.0\cores\MCUdude_corefiles/wiring_digital.c:215

  SREG = oldSREG;
}

int digitalRead(uint8_t pin)
{
     658:	cf 93       	push	r28
     65a:	df 93       	push	r29
C:\Users\LENOVO\AppData\Local\Arduino15\packages\MightyCore\hardware\avr\3.1.0\cores\MCUdude_corefiles/wiring_digital.c:216
  uint8_t timer = digitalPinToTimer(pin);
     65c:	28 2f       	mov	r18, r24
     65e:	30 e0       	ldi	r19, 0x00	; 0
     660:	f9 01       	movw	r30, r18
     662:	ed 57       	subi	r30, 0x7D	; 125
     664:	fc 4f       	sbci	r31, 0xFC	; 252
     666:	84 91       	lpm	r24, Z
C:\Users\LENOVO\AppData\Local\Arduino15\packages\MightyCore\hardware\avr\3.1.0\cores\MCUdude_corefiles/wiring_digital.c:217
  uint8_t bit = digitalPinToBitMask(pin);
     668:	f9 01       	movw	r30, r18
     66a:	ed 55       	subi	r30, 0x5D	; 93
     66c:	fc 4f       	sbci	r31, 0xFC	; 252
     66e:	d4 91       	lpm	r29, Z
C:\Users\LENOVO\AppData\Local\Arduino15\packages\MightyCore\hardware\avr\3.1.0\cores\MCUdude_corefiles/wiring_digital.c:218
  uint8_t port = digitalPinToPort(pin);
     670:	f9 01       	movw	r30, r18
     672:	e3 53       	subi	r30, 0x33	; 51
     674:	fc 4f       	sbci	r31, 0xFC	; 252
     676:	c4 91       	lpm	r28, Z
C:\Users\LENOVO\AppData\Local\Arduino15\packages\MightyCore\hardware\avr\3.1.0\cores\MCUdude_corefiles/wiring_digital.c:220

  if (port == NOT_A_PIN) return LOW;
     678:	cc 23       	and	r28, r28
     67a:	a1 f0       	breq	.+40     	; 0x6a4 <digitalRead+0x4c>
C:\Users\LENOVO\AppData\Local\Arduino15\packages\MightyCore\hardware\avr\3.1.0\cores\MCUdude_corefiles/wiring_digital.c:224

  // If the pin that support PWM output, we need to turn it off
  // before getting a digital reading.
  if (timer != NOT_ON_TIMER) turnOffPWM(timer);
     67c:	81 11       	cpse	r24, r1
     67e:	0e 94 10 03 	call	0x620	; 0x620 <turnOffPWM>
C:\Users\LENOVO\AppData\Local\Arduino15\packages\MightyCore\hardware\avr\3.1.0\cores\MCUdude_corefiles/wiring_digital.c:226

  if (*portInputRegister(port) & bit) return HIGH;
     682:	ec 2f       	mov	r30, r28
     684:	f0 e0       	ldi	r31, 0x00	; 0
     686:	ee 0f       	add	r30, r30
     688:	ff 1f       	adc	r31, r31
     68a:	e7 58       	subi	r30, 0x87	; 135
     68c:	fc 4f       	sbci	r31, 0xFC	; 252
     68e:	a5 91       	lpm	r26, Z+
     690:	b4 91       	lpm	r27, Z
     692:	ec 91       	ld	r30, X
     694:	ed 23       	and	r30, r29
     696:	81 e0       	ldi	r24, 0x01	; 1
     698:	90 e0       	ldi	r25, 0x00	; 0
     69a:	09 f4       	brne	.+2      	; 0x69e <digitalRead+0x46>
     69c:	80 e0       	ldi	r24, 0x00	; 0
C:\Users\LENOVO\AppData\Local\Arduino15\packages\MightyCore\hardware\avr\3.1.0\cores\MCUdude_corefiles/wiring_digital.c:228
  return LOW;
}
     69e:	df 91       	pop	r29
     6a0:	cf 91       	pop	r28
     6a2:	08 95       	ret
C:\Users\LENOVO\AppData\Local\Arduino15\packages\MightyCore\hardware\avr\3.1.0\cores\MCUdude_corefiles/wiring_digital.c:220
{
  uint8_t timer = digitalPinToTimer(pin);
  uint8_t bit = digitalPinToBitMask(pin);
  uint8_t port = digitalPinToPort(pin);

  if (port == NOT_A_PIN) return LOW;
     6a4:	80 e0       	ldi	r24, 0x00	; 0
     6a6:	90 e0       	ldi	r25, 0x00	; 0
     6a8:	fa cf       	rjmp	.-12     	; 0x69e <digitalRead+0x46>

000006aa <digitalWrite>:
digitalWrite():
C:\Users\LENOVO\AppData\Local\Arduino15\packages\MightyCore\hardware\avr\3.1.0\cores\MCUdude_corefiles/wiring_digital.c:188
    #endif
  }
}

void digitalWrite(uint8_t pin, uint8_t val)
{
     6aa:	1f 93       	push	r17
     6ac:	cf 93       	push	r28
     6ae:	df 93       	push	r29
C:\Users\LENOVO\AppData\Local\Arduino15\packages\MightyCore\hardware\avr\3.1.0\cores\MCUdude_corefiles/wiring_digital.c:189
  uint8_t timer = digitalPinToTimer(pin);
     6b0:	28 2f       	mov	r18, r24
     6b2:	30 e0       	ldi	r19, 0x00	; 0
     6b4:	f9 01       	movw	r30, r18
     6b6:	ed 57       	subi	r30, 0x7D	; 125
     6b8:	fc 4f       	sbci	r31, 0xFC	; 252
     6ba:	84 91       	lpm	r24, Z
C:\Users\LENOVO\AppData\Local\Arduino15\packages\MightyCore\hardware\avr\3.1.0\cores\MCUdude_corefiles/wiring_digital.c:190
  uint8_t bit = digitalPinToBitMask(pin);
     6bc:	f9 01       	movw	r30, r18
     6be:	ed 55       	subi	r30, 0x5D	; 93
     6c0:	fc 4f       	sbci	r31, 0xFC	; 252
     6c2:	d4 91       	lpm	r29, Z
C:\Users\LENOVO\AppData\Local\Arduino15\packages\MightyCore\hardware\avr\3.1.0\cores\MCUdude_corefiles/wiring_digital.c:191
  uint8_t port = digitalPinToPort(pin);
     6c4:	f9 01       	movw	r30, r18
     6c6:	e3 53       	subi	r30, 0x33	; 51
     6c8:	fc 4f       	sbci	r31, 0xFC	; 252
     6ca:	c4 91       	lpm	r28, Z
C:\Users\LENOVO\AppData\Local\Arduino15\packages\MightyCore\hardware\avr\3.1.0\cores\MCUdude_corefiles/wiring_digital.c:194
  volatile uint8_t *out;

  if (port == NOT_A_PIN) return;
     6cc:	cc 23       	and	r28, r28
     6ce:	a9 f0       	breq	.+42     	; 0x6fa <digitalWrite+0x50>
     6d0:	16 2f       	mov	r17, r22
C:\Users\LENOVO\AppData\Local\Arduino15\packages\MightyCore\hardware\avr\3.1.0\cores\MCUdude_corefiles/wiring_digital.c:198

  // If the pin that support PWM output, we need to turn it off
  // before doing a digital write.
  if (timer != NOT_ON_TIMER) turnOffPWM(timer);
     6d2:	81 11       	cpse	r24, r1
     6d4:	0e 94 10 03 	call	0x620	; 0x620 <turnOffPWM>
C:\Users\LENOVO\AppData\Local\Arduino15\packages\MightyCore\hardware\avr\3.1.0\cores\MCUdude_corefiles/wiring_digital.c:200

  out = portOutputRegister(port);
     6d8:	ec 2f       	mov	r30, r28
     6da:	f0 e0       	ldi	r31, 0x00	; 0
     6dc:	ee 0f       	add	r30, r30
     6de:	ff 1f       	adc	r31, r31
     6e0:	ed 53       	subi	r30, 0x3D	; 61
     6e2:	fc 4f       	sbci	r31, 0xFC	; 252
     6e4:	a5 91       	lpm	r26, Z+
     6e6:	b4 91       	lpm	r27, Z
C:\Users\LENOVO\AppData\Local\Arduino15\packages\MightyCore\hardware\avr\3.1.0\cores\MCUdude_corefiles/wiring_digital.c:202

  uint8_t oldSREG = SREG;
     6e8:	8f b7       	in	r24, 0x3f	; 63
C:\Users\LENOVO\AppData\Local\Arduino15\packages\MightyCore\hardware\avr\3.1.0\cores\MCUdude_corefiles/wiring_digital.c:203
  cli();
     6ea:	f8 94       	cli
C:\Users\LENOVO\AppData\Local\Arduino15\packages\MightyCore\hardware\avr\3.1.0\cores\MCUdude_corefiles/wiring_digital.c:206

  if (val == LOW) {
    *out &= ~bit;
     6ec:	ec 91       	ld	r30, X
C:\Users\LENOVO\AppData\Local\Arduino15\packages\MightyCore\hardware\avr\3.1.0\cores\MCUdude_corefiles/wiring_digital.c:205
  out = portOutputRegister(port);

  uint8_t oldSREG = SREG;
  cli();

  if (val == LOW) {
     6ee:	11 11       	cpse	r17, r1
     6f0:	08 c0       	rjmp	.+16     	; 0x702 <digitalWrite+0x58>
C:\Users\LENOVO\AppData\Local\Arduino15\packages\MightyCore\hardware\avr\3.1.0\cores\MCUdude_corefiles/wiring_digital.c:206
    *out &= ~bit;
     6f2:	d0 95       	com	r29
     6f4:	de 23       	and	r29, r30
C:\Users\LENOVO\AppData\Local\Arduino15\packages\MightyCore\hardware\avr\3.1.0\cores\MCUdude_corefiles/wiring_digital.c:208
  } else {
    *out |= bit;
     6f6:	dc 93       	st	X, r29
C:\Users\LENOVO\AppData\Local\Arduino15\packages\MightyCore\hardware\avr\3.1.0\cores\MCUdude_corefiles/wiring_digital.c:211
  }

  SREG = oldSREG;
     6f8:	8f bf       	out	0x3f, r24	; 63
C:\Users\LENOVO\AppData\Local\Arduino15\packages\MightyCore\hardware\avr\3.1.0\cores\MCUdude_corefiles/wiring_digital.c:212
}
     6fa:	df 91       	pop	r29
     6fc:	cf 91       	pop	r28
     6fe:	1f 91       	pop	r17
     700:	08 95       	ret
C:\Users\LENOVO\AppData\Local\Arduino15\packages\MightyCore\hardware\avr\3.1.0\cores\MCUdude_corefiles/wiring_digital.c:208
  cli();

  if (val == LOW) {
    *out &= ~bit;
  } else {
    *out |= bit;
     702:	de 2b       	or	r29, r30
     704:	f8 cf       	rjmp	.-16     	; 0x6f6 <digitalWrite+0x4c>

00000706 <TwoWire::begin() [clone .constprop.13]>:
_ZN7TwoWire5beginEv.constprop.13():
C:\Users\LENOVO\AppData\Local\Arduino15\packages\MightyCore\hardware\avr\3.1.0\libraries\Wire\src/Wire.cpp:61

// Public Methods //////////////////////////////////////////////////////////////

void TwoWire::begin(void)
{
  rxBufferIndex = 0;
     706:	10 92 0f 02 	sts	0x020F, r1	; 0x80020f <TwoWire::rxBufferIndex>
C:\Users\LENOVO\AppData\Local\Arduino15\packages\MightyCore\hardware\avr\3.1.0\libraries\Wire\src/Wire.cpp:62
  rxBufferLength = 0;
     70a:	10 92 0e 02 	sts	0x020E, r1	; 0x80020e <TwoWire::rxBufferLength>
C:\Users\LENOVO\AppData\Local\Arduino15\packages\MightyCore\hardware\avr\3.1.0\libraries\Wire\src/Wire.cpp:64

  txBufferIndex = 0;
     70e:	10 92 1c 02 	sts	0x021C, r1	; 0x80021c <TwoWire::txBufferIndex>
C:\Users\LENOVO\AppData\Local\Arduino15\packages\MightyCore\hardware\avr\3.1.0\libraries\Wire\src/Wire.cpp:65
  txBufferLength = 0;
     712:	10 92 3e 02 	sts	0x023E, r1	; 0x80023e <TwoWire::txBufferLength>
twi_init():
C:\Users\LENOVO\AppData\Local\Arduino15\packages\MightyCore\hardware\avr\3.1.0\libraries\Wire\src\utility/twi.c:84
 * Output   none
 */
void twi_init(void)
{
  // initialize state
  twi_state = TWI_READY;
     716:	10 92 1a 02 	sts	0x021A, r1	; 0x80021a <twi_state>
C:\Users\LENOVO\AppData\Local\Arduino15\packages\MightyCore\hardware\avr\3.1.0\libraries\Wire\src\utility/twi.c:85
  twi_sendStop = true; // default value
     71a:	81 e0       	ldi	r24, 0x01	; 1
     71c:	80 93 19 02 	sts	0x0219, r24	; 0x800219 <twi_sendStop>
C:\Users\LENOVO\AppData\Local\Arduino15\packages\MightyCore\hardware\avr\3.1.0\libraries\Wire\src\utility/twi.c:86
  twi_inRepStart = false;
     720:	10 92 12 02 	sts	0x0212, r1	; 0x800212 <twi_inRepStart>
C:\Users\LENOVO\AppData\Local\Arduino15\packages\MightyCore\hardware\avr\3.1.0\libraries\Wire\src\utility/twi.c:89

  // activate internal pullups for twi.
  digitalWrite(SDA, 1);
     724:	61 e0       	ldi	r22, 0x01	; 1
     726:	81 e1       	ldi	r24, 0x11	; 17
     728:	0e 94 55 03 	call	0x6aa	; 0x6aa <digitalWrite>
C:\Users\LENOVO\AppData\Local\Arduino15\packages\MightyCore\hardware\avr\3.1.0\libraries\Wire\src\utility/twi.c:90
  digitalWrite(SCL, 1);
     72c:	61 e0       	ldi	r22, 0x01	; 1
     72e:	80 e1       	ldi	r24, 0x10	; 16
     730:	0e 94 55 03 	call	0x6aa	; 0x6aa <digitalWrite>
C:\Users\LENOVO\AppData\Local\Arduino15\packages\MightyCore\hardware\avr\3.1.0\libraries\Wire\src\utility/twi.c:93

  // initialize twi prescaler and bit rate
  cbi(TWSR, TWPS0);
     734:	08 98       	cbi	0x01, 0	; 1
C:\Users\LENOVO\AppData\Local\Arduino15\packages\MightyCore\hardware\avr\3.1.0\libraries\Wire\src\utility/twi.c:94
  cbi(TWSR, TWPS1);
     736:	09 98       	cbi	0x01, 1	; 1
C:\Users\LENOVO\AppData\Local\Arduino15\packages\MightyCore\hardware\avr\3.1.0\libraries\Wire\src\utility/twi.c:95
  TWBR = ((F_CPU / TWI_FREQ) - 16) / 2;
     738:	80 e2       	ldi	r24, 0x20	; 32
     73a:	80 b9       	out	0x00, r24	; 0
C:\Users\LENOVO\AppData\Local\Arduino15\packages\MightyCore\hardware\avr\3.1.0\libraries\Wire\src\utility/twi.c:103
  SCL Frequency = CPU Clock Frequency / (16 + (2 * TWBR))
  note: TWBR should be 10 or higher for master mode
  It is 72 for a 16mhz Wiring board with 100kHz TWI */

  // enable twi module, acks, and twi interrupt
  TWCR = _BV(TWEN) | _BV(TWIE) | _BV(TWEA);
     73c:	85 e4       	ldi	r24, 0x45	; 69
     73e:	86 bf       	out	0x36, r24	; 54
twi_attachSlaveTxEvent():
C:\Users\LENOVO\AppData\Local\Arduino15\packages\MightyCore\hardware\avr\3.1.0\libraries\Wire\src\utility/twi.c:408
 * Input    function: callback function to use
 * Output   none
 */
void twi_attachSlaveTxEvent( void (*function)(void) )
{
  twi_onSlaveTransmit = function;
     740:	8e e0       	ldi	r24, 0x0E	; 14
     742:	93 e0       	ldi	r25, 0x03	; 3
     744:	90 93 0d 02 	sts	0x020D, r25	; 0x80020d <twi_onSlaveTransmit+0x1>
     748:	80 93 0c 02 	sts	0x020C, r24	; 0x80020c <twi_onSlaveTransmit>
twi_attachSlaveRxEvent():
C:\Users\LENOVO\AppData\Local\Arduino15\packages\MightyCore\hardware\avr\3.1.0\libraries\Wire\src\utility/twi.c:397
 * Input    function: callback function to use
 * Output   none
 */
void twi_attachSlaveRxEvent( void (*function)(uint8_t*, int) )
{
  twi_onSlaveReceive = function;
     74c:	8f e0       	ldi	r24, 0x0F	; 15
     74e:	93 e0       	ldi	r25, 0x03	; 3
     750:	90 93 0b 02 	sts	0x020B, r25	; 0x80020b <twi_onSlaveReceive+0x1>
     754:	80 93 0a 02 	sts	0x020A, r24	; 0x80020a <twi_onSlaveReceive>
_ZN7TwoWire5beginEv.constprop.13():
C:\Users\LENOVO\AppData\Local\Arduino15\packages\MightyCore\hardware\avr\3.1.0\libraries\Wire\src/Wire.cpp:70

  twi_init();
  twi_attachSlaveTxEvent(onRequestService); // default callback must exist
  twi_attachSlaveRxEvent(onReceiveService); // default callback must exist
}
     758:	08 95       	ret

0000075a <pinMode>:
pinMode():
C:\Users\LENOVO\AppData\Local\Arduino15\packages\MightyCore\hardware\avr\3.1.0\cores\MCUdude_corefiles/wiring_digital.c:30
#define ARDUINO_MAIN
#include "wiring_private.h"
#include "pins_arduino.h"

void pinMode(uint8_t pin, uint8_t mode)
{
     75a:	cf 93       	push	r28
     75c:	df 93       	push	r29
C:\Users\LENOVO\AppData\Local\Arduino15\packages\MightyCore\hardware\avr\3.1.0\cores\MCUdude_corefiles/wiring_digital.c:31
  uint8_t bit = digitalPinToBitMask(pin);
     75e:	90 e0       	ldi	r25, 0x00	; 0
     760:	fc 01       	movw	r30, r24
     762:	ed 55       	subi	r30, 0x5D	; 93
     764:	fc 4f       	sbci	r31, 0xFC	; 252
     766:	24 91       	lpm	r18, Z
C:\Users\LENOVO\AppData\Local\Arduino15\packages\MightyCore\hardware\avr\3.1.0\cores\MCUdude_corefiles/wiring_digital.c:32
  uint8_t port = digitalPinToPort(pin);
     768:	83 53       	subi	r24, 0x33	; 51
     76a:	9c 4f       	sbci	r25, 0xFC	; 252
     76c:	fc 01       	movw	r30, r24
     76e:	84 91       	lpm	r24, Z
C:\Users\LENOVO\AppData\Local\Arduino15\packages\MightyCore\hardware\avr\3.1.0\cores\MCUdude_corefiles/wiring_digital.c:35
  volatile uint8_t *reg, *out;

  if (port == NOT_A_PIN) return;
     770:	88 23       	and	r24, r24
     772:	c9 f0       	breq	.+50     	; 0x7a6 <pinMode+0x4c>
C:\Users\LENOVO\AppData\Local\Arduino15\packages\MightyCore\hardware\avr\3.1.0\cores\MCUdude_corefiles/wiring_digital.c:38

  // JWS: can I let the optimizer do this?
  reg = portModeRegister(port);
     774:	90 e0       	ldi	r25, 0x00	; 0
     776:	88 0f       	add	r24, r24
     778:	99 1f       	adc	r25, r25
     77a:	fc 01       	movw	r30, r24
     77c:	e1 59       	subi	r30, 0x91	; 145
     77e:	fc 4f       	sbci	r31, 0xFC	; 252
     780:	a5 91       	lpm	r26, Z+
     782:	b4 91       	lpm	r27, Z
C:\Users\LENOVO\AppData\Local\Arduino15\packages\MightyCore\hardware\avr\3.1.0\cores\MCUdude_corefiles/wiring_digital.c:39
  out = portOutputRegister(port);
     784:	fc 01       	movw	r30, r24
     786:	ed 53       	subi	r30, 0x3D	; 61
     788:	fc 4f       	sbci	r31, 0xFC	; 252
     78a:	c5 91       	lpm	r28, Z+
     78c:	d4 91       	lpm	r29, Z
C:\Users\LENOVO\AppData\Local\Arduino15\packages\MightyCore\hardware\avr\3.1.0\cores\MCUdude_corefiles/wiring_digital.c:41

  if (mode == INPUT) { 
     78e:	61 11       	cpse	r22, r1
     790:	0d c0       	rjmp	.+26     	; 0x7ac <pinMode+0x52>
C:\Users\LENOVO\AppData\Local\Arduino15\packages\MightyCore\hardware\avr\3.1.0\cores\MCUdude_corefiles/wiring_digital.c:42
    uint8_t oldSREG = SREG;
     792:	9f b7       	in	r25, 0x3f	; 63
C:\Users\LENOVO\AppData\Local\Arduino15\packages\MightyCore\hardware\avr\3.1.0\cores\MCUdude_corefiles/wiring_digital.c:43
    cli();
     794:	f8 94       	cli
C:\Users\LENOVO\AppData\Local\Arduino15\packages\MightyCore\hardware\avr\3.1.0\cores\MCUdude_corefiles/wiring_digital.c:44
    *reg &= ~bit;
     796:	8c 91       	ld	r24, X
     798:	20 95       	com	r18
     79a:	82 23       	and	r24, r18
     79c:	8c 93       	st	X, r24
C:\Users\LENOVO\AppData\Local\Arduino15\packages\MightyCore\hardware\avr\3.1.0\cores\MCUdude_corefiles/wiring_digital.c:45
    *out &= ~bit;
     79e:	88 81       	ld	r24, Y
     7a0:	28 23       	and	r18, r24
C:\Users\LENOVO\AppData\Local\Arduino15\packages\MightyCore\hardware\avr\3.1.0\cores\MCUdude_corefiles/wiring_digital.c:51
    SREG = oldSREG;
  } else if (mode == INPUT_PULLUP) {
    uint8_t oldSREG = SREG;
    cli();
    *reg &= ~bit;
    *out |= bit;
     7a2:	28 83       	st	Y, r18
C:\Users\LENOVO\AppData\Local\Arduino15\packages\MightyCore\hardware\avr\3.1.0\cores\MCUdude_corefiles/wiring_digital.c:52
    SREG = oldSREG;
     7a4:	9f bf       	out	0x3f, r25	; 63
C:\Users\LENOVO\AppData\Local\Arduino15\packages\MightyCore\hardware\avr\3.1.0\cores\MCUdude_corefiles/wiring_digital.c:59
    uint8_t oldSREG = SREG;
    cli();
    *reg |= bit;
    SREG = oldSREG;
  }
}
     7a6:	df 91       	pop	r29
     7a8:	cf 91       	pop	r28
     7aa:	08 95       	ret
C:\Users\LENOVO\AppData\Local\Arduino15\packages\MightyCore\hardware\avr\3.1.0\cores\MCUdude_corefiles/wiring_digital.c:47
    uint8_t oldSREG = SREG;
    cli();
    *reg &= ~bit;
    *out &= ~bit;
    SREG = oldSREG;
  } else if (mode == INPUT_PULLUP) {
     7ac:	62 30       	cpi	r22, 0x02	; 2
     7ae:	51 f4       	brne	.+20     	; 0x7c4 <pinMode+0x6a>
C:\Users\LENOVO\AppData\Local\Arduino15\packages\MightyCore\hardware\avr\3.1.0\cores\MCUdude_corefiles/wiring_digital.c:48
    uint8_t oldSREG = SREG;
     7b0:	9f b7       	in	r25, 0x3f	; 63
C:\Users\LENOVO\AppData\Local\Arduino15\packages\MightyCore\hardware\avr\3.1.0\cores\MCUdude_corefiles/wiring_digital.c:49
    cli();
     7b2:	f8 94       	cli
C:\Users\LENOVO\AppData\Local\Arduino15\packages\MightyCore\hardware\avr\3.1.0\cores\MCUdude_corefiles/wiring_digital.c:50
    *reg &= ~bit;
     7b4:	3c 91       	ld	r19, X
     7b6:	82 2f       	mov	r24, r18
     7b8:	80 95       	com	r24
     7ba:	83 23       	and	r24, r19
     7bc:	8c 93       	st	X, r24
C:\Users\LENOVO\AppData\Local\Arduino15\packages\MightyCore\hardware\avr\3.1.0\cores\MCUdude_corefiles/wiring_digital.c:51
    *out |= bit;
     7be:	e8 81       	ld	r30, Y
     7c0:	2e 2b       	or	r18, r30
     7c2:	ef cf       	rjmp	.-34     	; 0x7a2 <pinMode+0x48>
C:\Users\LENOVO\AppData\Local\Arduino15\packages\MightyCore\hardware\avr\3.1.0\cores\MCUdude_corefiles/wiring_digital.c:54
    SREG = oldSREG;
  } else {
    uint8_t oldSREG = SREG;
     7c4:	8f b7       	in	r24, 0x3f	; 63
C:\Users\LENOVO\AppData\Local\Arduino15\packages\MightyCore\hardware\avr\3.1.0\cores\MCUdude_corefiles/wiring_digital.c:55
    cli();
     7c6:	f8 94       	cli
C:\Users\LENOVO\AppData\Local\Arduino15\packages\MightyCore\hardware\avr\3.1.0\cores\MCUdude_corefiles/wiring_digital.c:56
    *reg |= bit;
     7c8:	ec 91       	ld	r30, X
     7ca:	2e 2b       	or	r18, r30
     7cc:	2c 93       	st	X, r18
C:\Users\LENOVO\AppData\Local\Arduino15\packages\MightyCore\hardware\avr\3.1.0\cores\MCUdude_corefiles/wiring_digital.c:57
    SREG = oldSREG;
     7ce:	8f bf       	out	0x3f, r24	; 63
     7d0:	ea cf       	rjmp	.-44     	; 0x7a6 <pinMode+0x4c>

000007d2 <delayMicroseconds>:
delayMicroseconds():
C:\Users\LENOVO\AppData\Local\Arduino15\packages\MightyCore\hardware\avr\3.1.0\cores\MCUdude_corefiles/wiring.c:761
              // 2 cycles to jump back to delay cycle.
  }

#elif F_CPU >= 8000000L
  // for the 8 MHz clock
  __asm__ __volatile__ (
     7d2:	00 00       	nop
     7d4:	00 00       	nop
C:\Users\LENOVO\AppData\Local\Arduino15\packages\MightyCore\hardware\avr\3.1.0\cores\MCUdude_corefiles/wiring.c:767
    "nop" "\n\t"
    "nop"); //just waiting 2 cycles

  // for a 1 and 2 microsecond delay, simply return.  the overhead
  // of the function call takes 16 (18) cycles, which is 2us
  if (us <= 2) return; // = 3 cycles, (4 when true)
     7d6:	83 30       	cpi	r24, 0x03	; 3
     7d8:	91 05       	cpc	r25, r1
     7da:	28 f0       	brcs	.+10     	; 0x7e6 <delayMicroseconds+0x14>
C:\Users\LENOVO\AppData\Local\Arduino15\packages\MightyCore\hardware\avr\3.1.0\cores\MCUdude_corefiles/wiring.c:772

  // the following loop takes 1/2 of a microsecond (4 cycles)
  // per iteration, so execute it twice for each microsecond of
  // delay requested.
  us <<= 1; //x2 us, = 2 cycles
     7dc:	88 0f       	add	r24, r24
     7de:	99 1f       	adc	r25, r25
C:\Users\LENOVO\AppData\Local\Arduino15\packages\MightyCore\hardware\avr\3.1.0\cores\MCUdude_corefiles/wiring.c:777

  // account for the time taken in the preceeding commands.
  // we just burned 19 (21) cycles above, remove 5, (5*4=20)
  // us is at least 6 so we can substract 5
  us -= 5; // = 2 cycles
     7e0:	05 97       	sbiw	r24, 0x05	; 5
C:\Users\LENOVO\AppData\Local\Arduino15\packages\MightyCore\hardware\avr\3.1.0\cores\MCUdude_corefiles/wiring.c:929
  us >>= 2; // us div 4, = 4 cycles

#endif

  // busy wait
  __asm__ __volatile__ (
     7e2:	01 97       	sbiw	r24, 0x01	; 1
     7e4:	f1 f7       	brne	.-4      	; 0x7e2 <delayMicroseconds+0x10>
C:\Users\LENOVO\AppData\Local\Arduino15\packages\MightyCore\hardware\avr\3.1.0\cores\MCUdude_corefiles/wiring.c:939
    "   brne 1b"                     // 2 cycles
    : /* no outputs */
    : "w" (us)
  );
  // return = 4 cycles
}
     7e6:	08 95       	ret

000007e8 <micros>:
micros():
C:\Users\LENOVO\AppData\Local\Arduino15\packages\MightyCore\hardware\avr\3.1.0\cores\MCUdude_corefiles/wiring.c:237
  unsigned char f; // temporary storage for millis fraction counter
  unsigned char q = 0; // record whether an overflow is flagged
#endif
  // t will be the number where the timer0 counter stopped
  uint8_t t;
  uint8_t oldSREG = SREG;
     7e8:	3f b7       	in	r19, 0x3f	; 63
C:\Users\LENOVO\AppData\Local\Arduino15\packages\MightyCore\hardware\avr\3.1.0\cores\MCUdude_corefiles/wiring.c:240

  // Stop all interrupts
  cli();
     7ea:	f8 94       	cli
C:\Users\LENOVO\AppData\Local\Arduino15\packages\MightyCore\hardware\avr\3.1.0\cores\MCUdude_corefiles/wiring.c:247
#ifdef CORRECT_EXACT_MICROS
  // combine exact millisec and 8usec counters
  m = timer0_millis;
  f = timer0_fract;
#else
  m = timer0_overflow_count;
     7ec:	80 91 06 02 	lds	r24, 0x0206	; 0x800206 <timer0_overflow_count>
     7f0:	90 91 07 02 	lds	r25, 0x0207	; 0x800207 <timer0_overflow_count+0x1>
     7f4:	a0 91 08 02 	lds	r26, 0x0208	; 0x800208 <timer0_overflow_count+0x2>
     7f8:	b0 91 09 02 	lds	r27, 0x0209	; 0x800209 <timer0_overflow_count+0x3>
C:\Users\LENOVO\AppData\Local\Arduino15\packages\MightyCore\hardware\avr\3.1.0\cores\MCUdude_corefiles/wiring.c:252
#endif

  // TCNT0 : The Timer Counter Register
#if defined(TCNT0)
  t = TCNT0;
     7fc:	22 b7       	in	r18, 0x32	; 50
C:\Users\LENOVO\AppData\Local\Arduino15\packages\MightyCore\hardware\avr\3.1.0\cores\MCUdude_corefiles/wiring.c:268
    m++;
#else
    q = 1;
#endif
#else
  if ((TIFR & _BV(TOV0)) && (t < 255))
     7fe:	08 b6       	in	r0, 0x38	; 56
     800:	00 fe       	sbrs	r0, 0
     802:	05 c0       	rjmp	.+10     	; 0x80e <micros+0x26>
     804:	2f 3f       	cpi	r18, 0xFF	; 255
     806:	19 f0       	breq	.+6      	; 0x80e <micros+0x26>
C:\Users\LENOVO\AppData\Local\Arduino15\packages\MightyCore\hardware\avr\3.1.0\cores\MCUdude_corefiles/wiring.c:270
#ifndef CORRECT_EXACT_MICROS
    m++;
     808:	01 96       	adiw	r24, 0x01	; 1
     80a:	a1 1d       	adc	r26, r1
     80c:	b1 1d       	adc	r27, r1
C:\Users\LENOVO\AppData\Local\Arduino15\packages\MightyCore\hardware\avr\3.1.0\cores\MCUdude_corefiles/wiring.c:276
#else
    q = 1;
#endif
#endif
  // Restore SREG
  SREG = oldSREG;
     80e:	3f bf       	out	0x3f, r19	; 63
C:\Users\LENOVO\AppData\Local\Arduino15\packages\MightyCore\hardware\avr\3.1.0\cores\MCUdude_corefiles/wiring.c:292
      ((t * MICROSECONDS_PER_TIMER0_OVERFLOW) >> 8);
  return q ? m + MICROSECONDS_PER_TIMER0_OVERFLOW : m;
#elif 1
  /* All power-of-two Megahertz frequencies enter here, as well as 12.8 MHz.
     We only end up here if right shift before multiplication is exact. */
  return ((m << 8) + t) * (MICROSECONDS_PER_TIMER0_OVERFLOW >> 8);
     810:	ba 2f       	mov	r27, r26
     812:	a9 2f       	mov	r26, r25
     814:	98 2f       	mov	r25, r24
     816:	88 27       	eor	r24, r24
     818:	bc 01       	movw	r22, r24
     81a:	cd 01       	movw	r24, r26
     81c:	62 0f       	add	r22, r18
     81e:	71 1d       	adc	r23, r1
     820:	81 1d       	adc	r24, r1
     822:	91 1d       	adc	r25, r1
     824:	43 e0       	ldi	r20, 0x03	; 3
     826:	66 0f       	add	r22, r22
     828:	77 1f       	adc	r23, r23
     82a:	88 1f       	adc	r24, r24
     82c:	99 1f       	adc	r25, r25
     82e:	4a 95       	dec	r20
     830:	d1 f7       	brne	.-12     	; 0x826 <micros+0x3e>
C:\Users\LENOVO\AppData\Local\Arduino15\packages\MightyCore\hardware\avr\3.1.0\cores\MCUdude_corefiles/wiring.c:393
  // m & t are multiplied by 4 (since it was already multiplied by 256)
  // t is multiplied by 4
  return ((m << 8) + t) * (64 / clockCyclesPerMicrosecond());
#endif
#endif // 0
}
     832:	08 95       	ret

00000834 <delay>:
delay():
C:\Users\LENOVO\AppData\Local\Arduino15\packages\MightyCore\hardware\avr\3.1.0\cores\MCUdude_corefiles/wiring.c:396

void delay(unsigned long ms)
{
     834:	8f 92       	push	r8
     836:	9f 92       	push	r9
     838:	af 92       	push	r10
     83a:	bf 92       	push	r11
     83c:	cf 92       	push	r12
     83e:	df 92       	push	r13
     840:	ef 92       	push	r14
     842:	ff 92       	push	r15
     844:	4b 01       	movw	r8, r22
     846:	5c 01       	movw	r10, r24
C:\Users\LENOVO\AppData\Local\Arduino15\packages\MightyCore\hardware\avr\3.1.0\cores\MCUdude_corefiles/wiring.c:397
  unsigned long start = micros();
     848:	0e 94 f4 03 	call	0x7e8	; 0x7e8 <micros>
     84c:	6b 01       	movw	r12, r22
     84e:	7c 01       	movw	r14, r24
C:\Users\LENOVO\AppData\Local\Arduino15\packages\MightyCore\hardware\avr\3.1.0\cores\MCUdude_corefiles/wiring.c:401

  while (ms > 0UL) {
    yield();
    while (ms > 0UL && (micros() - start) >= 1000UL) {
     850:	0e 94 f4 03 	call	0x7e8	; 0x7e8 <micros>
     854:	6c 19       	sub	r22, r12
     856:	7d 09       	sbc	r23, r13
     858:	8e 09       	sbc	r24, r14
     85a:	9f 09       	sbc	r25, r15
     85c:	68 3e       	cpi	r22, 0xE8	; 232
     85e:	73 40       	sbci	r23, 0x03	; 3
     860:	81 05       	cpc	r24, r1
     862:	91 05       	cpc	r25, r1
     864:	a8 f3       	brcs	.-22     	; 0x850 <delay+0x1c>
C:\Users\LENOVO\AppData\Local\Arduino15\packages\MightyCore\hardware\avr\3.1.0\cores\MCUdude_corefiles/wiring.c:402
      ms--;
     866:	21 e0       	ldi	r18, 0x01	; 1
     868:	82 1a       	sub	r8, r18
     86a:	91 08       	sbc	r9, r1
     86c:	a1 08       	sbc	r10, r1
     86e:	b1 08       	sbc	r11, r1
C:\Users\LENOVO\AppData\Local\Arduino15\packages\MightyCore\hardware\avr\3.1.0\cores\MCUdude_corefiles/wiring.c:403
      start += 1000UL;
     870:	88 ee       	ldi	r24, 0xE8	; 232
     872:	c8 0e       	add	r12, r24
     874:	83 e0       	ldi	r24, 0x03	; 3
     876:	d8 1e       	adc	r13, r24
     878:	e1 1c       	adc	r14, r1
     87a:	f1 1c       	adc	r15, r1
C:\Users\LENOVO\AppData\Local\Arduino15\packages\MightyCore\hardware\avr\3.1.0\cores\MCUdude_corefiles/wiring.c:401
{
  unsigned long start = micros();

  while (ms > 0UL) {
    yield();
    while (ms > 0UL && (micros() - start) >= 1000UL) {
     87c:	81 14       	cp	r8, r1
     87e:	91 04       	cpc	r9, r1
     880:	a1 04       	cpc	r10, r1
     882:	b1 04       	cpc	r11, r1
     884:	29 f7       	brne	.-54     	; 0x850 <delay+0x1c>
C:\Users\LENOVO\AppData\Local\Arduino15\packages\MightyCore\hardware\avr\3.1.0\cores\MCUdude_corefiles/wiring.c:406
      ms--;
      start += 1000UL;
    }
  }
}
     886:	ff 90       	pop	r15
     888:	ef 90       	pop	r14
     88a:	df 90       	pop	r13
     88c:	cf 90       	pop	r12
     88e:	bf 90       	pop	r11
     890:	af 90       	pop	r10
     892:	9f 90       	pop	r9
     894:	8f 90       	pop	r8
     896:	08 95       	ret

00000898 <Print::print(char)>:
_ZN5Print5printEc():
C:\Users\LENOVO\AppData\Local\Arduino15\packages\MightyCore\hardware\avr\3.1.0\cores\MCUdude_corefiles/Print.cpp:69
  return write(str);
}

size_t Print::print(char c)
{
  return write(c);
     898:	dc 01       	movw	r26, r24
     89a:	ed 91       	ld	r30, X+
     89c:	fc 91       	ld	r31, X
     89e:	01 90       	ld	r0, Z+
     8a0:	f0 81       	ld	r31, Z
     8a2:	e0 2d       	mov	r30, r0
     8a4:	09 94       	ijmp

000008a6 <Print::print(__FlashStringHelper const*)>:
_ZN5Print5printEPK19__FlashStringHelper():
C:\Users\LENOVO\AppData\Local\Arduino15\packages\MightyCore\hardware\avr\3.1.0\cores\MCUdude_corefiles/Print.cpp:45
  }
  return n;
}

size_t Print::print(const __FlashStringHelper *ifsh)
{
     8a6:	ef 92       	push	r14
     8a8:	ff 92       	push	r15
     8aa:	0f 93       	push	r16
     8ac:	1f 93       	push	r17
     8ae:	cf 93       	push	r28
     8b0:	df 93       	push	r29
     8b2:	8c 01       	movw	r16, r24
     8b4:	7b 01       	movw	r14, r22
C:\Users\LENOVO\AppData\Local\Arduino15\packages\MightyCore\hardware\avr\3.1.0\cores\MCUdude_corefiles/Print.cpp:47
  PGM_P p = reinterpret_cast<PGM_P>(ifsh);
  size_t n = 0;
     8b6:	d0 e0       	ldi	r29, 0x00	; 0
     8b8:	c0 e0       	ldi	r28, 0x00	; 0
C:\Users\LENOVO\AppData\Local\Arduino15\packages\MightyCore\hardware\avr\3.1.0\cores\MCUdude_corefiles/Print.cpp:49
  while (1) {
    unsigned char c = pgm_read_byte(p++);
     8ba:	f7 01       	movw	r30, r14
     8bc:	ec 0f       	add	r30, r28
     8be:	fd 1f       	adc	r31, r29
     8c0:	64 91       	lpm	r22, Z
C:\Users\LENOVO\AppData\Local\Arduino15\packages\MightyCore\hardware\avr\3.1.0\cores\MCUdude_corefiles/Print.cpp:50
    if (c == 0) break;
     8c2:	66 23       	and	r22, r22
     8c4:	61 f0       	breq	.+24     	; 0x8de <Print::print(__FlashStringHelper const*)+0x38>
C:\Users\LENOVO\AppData\Local\Arduino15\packages\MightyCore\hardware\avr\3.1.0\cores\MCUdude_corefiles/Print.cpp:51
    if (write(c)) n++;
     8c6:	d8 01       	movw	r26, r16
     8c8:	ed 91       	ld	r30, X+
     8ca:	fc 91       	ld	r31, X
     8cc:	01 90       	ld	r0, Z+
     8ce:	f0 81       	ld	r31, Z
     8d0:	e0 2d       	mov	r30, r0
     8d2:	c8 01       	movw	r24, r16
     8d4:	09 95       	icall
     8d6:	89 2b       	or	r24, r25
     8d8:	11 f0       	breq	.+4      	; 0x8de <Print::print(__FlashStringHelper const*)+0x38>
     8da:	21 96       	adiw	r28, 0x01	; 1
     8dc:	ee cf       	rjmp	.-36     	; 0x8ba <Print::print(__FlashStringHelper const*)+0x14>
C:\Users\LENOVO\AppData\Local\Arduino15\packages\MightyCore\hardware\avr\3.1.0\cores\MCUdude_corefiles/Print.cpp:55
    else break;
  }
  return n;
}
     8de:	ce 01       	movw	r24, r28
     8e0:	df 91       	pop	r29
     8e2:	cf 91       	pop	r28
     8e4:	1f 91       	pop	r17
     8e6:	0f 91       	pop	r16
     8e8:	ff 90       	pop	r15
     8ea:	ef 90       	pop	r14
     8ec:	08 95       	ret

000008ee <Print::write(unsigned char const*, unsigned int)>:
_ZN5Print5writeEPKhj():
C:\Users\LENOVO\AppData\Local\Arduino15\packages\MightyCore\hardware\avr\3.1.0\cores\MCUdude_corefiles/Print.cpp:35

// Public Methods //////////////////////////////////////////////////////////////

/* default implementation: may be overridden */
size_t Print::write(const uint8_t *buffer, size_t size)
{
     8ee:	af 92       	push	r10
     8f0:	bf 92       	push	r11
     8f2:	cf 92       	push	r12
     8f4:	df 92       	push	r13
     8f6:	ef 92       	push	r14
     8f8:	ff 92       	push	r15
     8fa:	0f 93       	push	r16
     8fc:	1f 93       	push	r17
     8fe:	cf 93       	push	r28
     900:	df 93       	push	r29
     902:	6c 01       	movw	r12, r24
     904:	7b 01       	movw	r14, r22
     906:	8b 01       	movw	r16, r22
     908:	04 0f       	add	r16, r20
     90a:	15 1f       	adc	r17, r21
     90c:	eb 01       	movw	r28, r22
     90e:	5e 01       	movw	r10, r28
     910:	ae 18       	sub	r10, r14
     912:	bf 08       	sbc	r11, r15
C:\Users\LENOVO\AppData\Local\Arduino15\packages\MightyCore\hardware\avr\3.1.0\cores\MCUdude_corefiles/Print.cpp:37
  size_t n = 0;
  while (size--) {
     914:	c0 17       	cp	r28, r16
     916:	d1 07       	cpc	r29, r17
     918:	59 f0       	breq	.+22     	; 0x930 <Print::write(unsigned char const*, unsigned int)+0x42>
C:\Users\LENOVO\AppData\Local\Arduino15\packages\MightyCore\hardware\avr\3.1.0\cores\MCUdude_corefiles/Print.cpp:38
    if (write(*buffer++)) n++;
     91a:	69 91       	ld	r22, Y+
     91c:	d6 01       	movw	r26, r12
     91e:	ed 91       	ld	r30, X+
     920:	fc 91       	ld	r31, X
     922:	01 90       	ld	r0, Z+
     924:	f0 81       	ld	r31, Z
     926:	e0 2d       	mov	r30, r0
     928:	c6 01       	movw	r24, r12
     92a:	09 95       	icall
     92c:	89 2b       	or	r24, r25
     92e:	79 f7       	brne	.-34     	; 0x90e <Print::write(unsigned char const*, unsigned int)+0x20>
C:\Users\LENOVO\AppData\Local\Arduino15\packages\MightyCore\hardware\avr\3.1.0\cores\MCUdude_corefiles/Print.cpp:42
    else break;
  }
  return n;
}
     930:	c5 01       	movw	r24, r10
     932:	df 91       	pop	r29
     934:	cf 91       	pop	r28
     936:	1f 91       	pop	r17
     938:	0f 91       	pop	r16
     93a:	ff 90       	pop	r15
     93c:	ef 90       	pop	r14
     93e:	df 90       	pop	r13
     940:	cf 90       	pop	r12
     942:	bf 90       	pop	r11
     944:	af 90       	pop	r10
     946:	08 95       	ret

00000948 <HardwareSerial::availableForWrite()>:
_ZN14HardwareSerial17availableForWriteEv():
C:\Users\LENOVO\AppData\Local\Arduino15\packages\MightyCore\hardware\avr\3.1.0\cores\MCUdude_corefiles/HardwareSerial.cpp:195
{
  tx_buffer_index_t head;
  tx_buffer_index_t tail;

  TX_BUFFER_ATOMIC {
    head = _tx_buffer_head;
     948:	fc 01       	movw	r30, r24
     94a:	53 8d       	ldd	r21, Z+27	; 0x1b
C:\Users\LENOVO\AppData\Local\Arduino15\packages\MightyCore\hardware\avr\3.1.0\cores\MCUdude_corefiles/HardwareSerial.cpp:196
    tail = _tx_buffer_tail;
     94c:	44 8d       	ldd	r20, Z+28	; 0x1c
     94e:	25 2f       	mov	r18, r21
     950:	30 e0       	ldi	r19, 0x00	; 0
     952:	84 2f       	mov	r24, r20
     954:	90 e0       	ldi	r25, 0x00	; 0
C:\Users\LENOVO\AppData\Local\Arduino15\packages\MightyCore\hardware\avr\3.1.0\cores\MCUdude_corefiles/HardwareSerial.cpp:198
  }
  if (head >= tail) return SERIAL_TX_BUFFER_SIZE - 1 - head + tail;
     956:	82 1b       	sub	r24, r18
     958:	93 0b       	sbc	r25, r19
     95a:	54 17       	cp	r21, r20
     95c:	10 f0       	brcs	.+4      	; 0x962 <HardwareSerial::availableForWrite()+0x1a>
     95e:	cf 96       	adiw	r24, 0x3f	; 63
     960:	08 95       	ret
C:\Users\LENOVO\AppData\Local\Arduino15\packages\MightyCore\hardware\avr\3.1.0\cores\MCUdude_corefiles/HardwareSerial.cpp:199
  return tail - head - 1;
     962:	01 97       	sbiw	r24, 0x01	; 1
C:\Users\LENOVO\AppData\Local\Arduino15\packages\MightyCore\hardware\avr\3.1.0\cores\MCUdude_corefiles/HardwareSerial.cpp:200
}
     964:	08 95       	ret

00000966 <HardwareSerial::read()>:
_ZN14HardwareSerial4readEv():
C:\Users\LENOVO\AppData\Local\Arduino15\packages\MightyCore\hardware\avr\3.1.0\cores\MCUdude_corefiles/HardwareSerial.cpp:178
    return _rx_buffer[_rx_buffer_tail];
  }
}

int HardwareSerial::read(void)
{
     966:	fc 01       	movw	r30, r24
C:\Users\LENOVO\AppData\Local\Arduino15\packages\MightyCore\hardware\avr\3.1.0\cores\MCUdude_corefiles/HardwareSerial.cpp:180
  // if the head isn't ahead of the tail, we don't have any characters
  if (_rx_buffer_head == _rx_buffer_tail) {
     968:	91 8d       	ldd	r25, Z+25	; 0x19
     96a:	82 8d       	ldd	r24, Z+26	; 0x1a
     96c:	98 17       	cp	r25, r24
     96e:	61 f0       	breq	.+24     	; 0x988 <HardwareSerial::read()+0x22>
C:\Users\LENOVO\AppData\Local\Arduino15\packages\MightyCore\hardware\avr\3.1.0\cores\MCUdude_corefiles/HardwareSerial.cpp:183
    return -1;
  } else {
    unsigned char c = _rx_buffer[_rx_buffer_tail];
     970:	a2 8d       	ldd	r26, Z+26	; 0x1a
     972:	ae 0f       	add	r26, r30
     974:	bf 2f       	mov	r27, r31
     976:	b1 1d       	adc	r27, r1
     978:	5d 96       	adiw	r26, 0x1d	; 29
     97a:	8c 91       	ld	r24, X
C:\Users\LENOVO\AppData\Local\Arduino15\packages\MightyCore\hardware\avr\3.1.0\cores\MCUdude_corefiles/HardwareSerial.cpp:184
    _rx_buffer_tail = (rx_buffer_index_t)(_rx_buffer_tail + 1) % SERIAL_RX_BUFFER_SIZE;
     97c:	92 8d       	ldd	r25, Z+26	; 0x1a
     97e:	9f 5f       	subi	r25, 0xFF	; 255
     980:	9f 73       	andi	r25, 0x3F	; 63
     982:	92 8f       	std	Z+26, r25	; 0x1a
C:\Users\LENOVO\AppData\Local\Arduino15\packages\MightyCore\hardware\avr\3.1.0\cores\MCUdude_corefiles/HardwareSerial.cpp:185
    return c;
     984:	90 e0       	ldi	r25, 0x00	; 0
     986:	08 95       	ret
C:\Users\LENOVO\AppData\Local\Arduino15\packages\MightyCore\hardware\avr\3.1.0\cores\MCUdude_corefiles/HardwareSerial.cpp:181

int HardwareSerial::read(void)
{
  // if the head isn't ahead of the tail, we don't have any characters
  if (_rx_buffer_head == _rx_buffer_tail) {
    return -1;
     988:	8f ef       	ldi	r24, 0xFF	; 255
     98a:	9f ef       	ldi	r25, 0xFF	; 255
C:\Users\LENOVO\AppData\Local\Arduino15\packages\MightyCore\hardware\avr\3.1.0\cores\MCUdude_corefiles/HardwareSerial.cpp:187
  } else {
    unsigned char c = _rx_buffer[_rx_buffer_tail];
    _rx_buffer_tail = (rx_buffer_index_t)(_rx_buffer_tail + 1) % SERIAL_RX_BUFFER_SIZE;
    return c;
  }
}
     98c:	08 95       	ret

0000098e <HardwareSerial::peek()>:
_ZN14HardwareSerial4peekEv():
C:\Users\LENOVO\AppData\Local\Arduino15\packages\MightyCore\hardware\avr\3.1.0\cores\MCUdude_corefiles/HardwareSerial.cpp:169
{
  return ((unsigned int)(SERIAL_RX_BUFFER_SIZE + _rx_buffer_head - _rx_buffer_tail)) % SERIAL_RX_BUFFER_SIZE;
}

int HardwareSerial::peek(void)
{
     98e:	fc 01       	movw	r30, r24
C:\Users\LENOVO\AppData\Local\Arduino15\packages\MightyCore\hardware\avr\3.1.0\cores\MCUdude_corefiles/HardwareSerial.cpp:170
  if (_rx_buffer_head == _rx_buffer_tail) {
     990:	91 8d       	ldd	r25, Z+25	; 0x19
     992:	82 8d       	ldd	r24, Z+26	; 0x1a
     994:	98 17       	cp	r25, r24
     996:	31 f0       	breq	.+12     	; 0x9a4 <HardwareSerial::peek()+0x16>
C:\Users\LENOVO\AppData\Local\Arduino15\packages\MightyCore\hardware\avr\3.1.0\cores\MCUdude_corefiles/HardwareSerial.cpp:173
    return -1;
  } else {
    return _rx_buffer[_rx_buffer_tail];
     998:	82 8d       	ldd	r24, Z+26	; 0x1a
     99a:	e8 0f       	add	r30, r24
     99c:	f1 1d       	adc	r31, r1
     99e:	85 8d       	ldd	r24, Z+29	; 0x1d
     9a0:	90 e0       	ldi	r25, 0x00	; 0
     9a2:	08 95       	ret
C:\Users\LENOVO\AppData\Local\Arduino15\packages\MightyCore\hardware\avr\3.1.0\cores\MCUdude_corefiles/HardwareSerial.cpp:171
}

int HardwareSerial::peek(void)
{
  if (_rx_buffer_head == _rx_buffer_tail) {
    return -1;
     9a4:	8f ef       	ldi	r24, 0xFF	; 255
     9a6:	9f ef       	ldi	r25, 0xFF	; 255
C:\Users\LENOVO\AppData\Local\Arduino15\packages\MightyCore\hardware\avr\3.1.0\cores\MCUdude_corefiles/HardwareSerial.cpp:175
  } else {
    return _rx_buffer[_rx_buffer_tail];
  }
}
     9a8:	08 95       	ret

000009aa <HardwareSerial::available()>:
_ZN14HardwareSerial9availableEv():
C:\Users\LENOVO\AppData\Local\Arduino15\packages\MightyCore\hardware\avr\3.1.0\cores\MCUdude_corefiles/HardwareSerial.cpp:164
  // clear any received data
  _rx_buffer_head = _rx_buffer_tail;
}

int HardwareSerial::available(void)
{
     9aa:	fc 01       	movw	r30, r24
C:\Users\LENOVO\AppData\Local\Arduino15\packages\MightyCore\hardware\avr\3.1.0\cores\MCUdude_corefiles/HardwareSerial.cpp:165
  return ((unsigned int)(SERIAL_RX_BUFFER_SIZE + _rx_buffer_head - _rx_buffer_tail)) % SERIAL_RX_BUFFER_SIZE;
     9ac:	91 8d       	ldd	r25, Z+25	; 0x19
     9ae:	22 8d       	ldd	r18, Z+26	; 0x1a
     9b0:	89 2f       	mov	r24, r25
     9b2:	90 e0       	ldi	r25, 0x00	; 0
     9b4:	80 5c       	subi	r24, 0xC0	; 192
     9b6:	9f 4f       	sbci	r25, 0xFF	; 255
     9b8:	82 1b       	sub	r24, r18
     9ba:	91 09       	sbc	r25, r1
C:\Users\LENOVO\AppData\Local\Arduino15\packages\MightyCore\hardware\avr\3.1.0\cores\MCUdude_corefiles/HardwareSerial.cpp:166
}
     9bc:	8f 73       	andi	r24, 0x3F	; 63
     9be:	99 27       	eor	r25, r25
     9c0:	08 95       	ret

000009c2 <Serial0_available()>:
_Z17Serial0_availablev():
C:\Users\LENOVO\AppData\Local\Arduino15\packages\MightyCore\hardware\avr\3.1.0\cores\MCUdude_corefiles/HardwareSerial0.cpp:76
#endif

// Function that can be weakly referenced by serialEventRun to prevent
// pulling in this file if it's not otherwise used.
bool Serial0_available() {
  return Serial.available();
     9c2:	8f e3       	ldi	r24, 0x3F	; 63
     9c4:	92 e0       	ldi	r25, 0x02	; 2
     9c6:	0e 94 d5 04 	call	0x9aa	; 0x9aa <HardwareSerial::available()>
     9ca:	21 e0       	ldi	r18, 0x01	; 1
     9cc:	89 2b       	or	r24, r25
     9ce:	09 f4       	brne	.+2      	; 0x9d2 <Serial0_available()+0x10>
     9d0:	20 e0       	ldi	r18, 0x00	; 0
C:\Users\LENOVO\AppData\Local\Arduino15\packages\MightyCore\hardware\avr\3.1.0\cores\MCUdude_corefiles/HardwareSerial0.cpp:77
}
     9d2:	82 2f       	mov	r24, r18
     9d4:	08 95       	ret

000009d6 <serialEventRun()>:
_Z14serialEventRunv():
C:\Users\LENOVO\AppData\Local\Arduino15\packages\MightyCore\hardware\avr\3.1.0\cores\MCUdude_corefiles/HardwareSerial.cpp:67
#endif

void serialEventRun(void)
{
#if defined(HAVE_HWSERIAL0)
  if (Serial0_available && serialEvent && Serial0_available()) serialEvent();
     9d6:	80 e0       	ldi	r24, 0x00	; 0
     9d8:	90 e0       	ldi	r25, 0x00	; 0
     9da:	89 2b       	or	r24, r25
     9dc:	29 f0       	breq	.+10     	; 0x9e8 <serialEventRun()+0x12>
     9de:	0e 94 e1 04 	call	0x9c2	; 0x9c2 <Serial0_available()>
     9e2:	81 11       	cpse	r24, r1
     9e4:	0c 94 00 00 	jmp	0	; 0x0 <__vectors>
C:\Users\LENOVO\AppData\Local\Arduino15\packages\MightyCore\hardware\avr\3.1.0\cores\MCUdude_corefiles/HardwareSerial.cpp:78
  if (Serial2_available && serialEvent2 && Serial2_available()) serialEvent2();
#endif
#if defined(HAVE_HWSERIAL3)
  if (Serial3_available && serialEvent3 && Serial3_available()) serialEvent3();
#endif
}
     9e8:	08 95       	ret

000009ea <HardwareSerial::_tx_udr_empty_irq()>:
_ZN14HardwareSerial17_tx_udr_empty_irqEv():
C:\Users\LENOVO\AppData\Local\Arduino15\packages\MightyCore\hardware\avr\3.1.0\cores\MCUdude_corefiles/HardwareSerial.cpp:90
#endif

// Actual interrupt handlers //////////////////////////////////////////////////////////////

void HardwareSerial::_tx_udr_empty_irq(void)
{
     9ea:	fc 01       	movw	r30, r24
C:\Users\LENOVO\AppData\Local\Arduino15\packages\MightyCore\hardware\avr\3.1.0\cores\MCUdude_corefiles/HardwareSerial.cpp:93
  // If interrupts are enabled, there must be more data in the output
  // buffer. Send the next byte
  unsigned char c = _tx_buffer[_tx_buffer_tail];
     9ec:	a4 8d       	ldd	r26, Z+28	; 0x1c
     9ee:	a8 0f       	add	r26, r24
     9f0:	b9 2f       	mov	r27, r25
     9f2:	b1 1d       	adc	r27, r1
     9f4:	a3 5a       	subi	r26, 0xA3	; 163
     9f6:	bf 4f       	sbci	r27, 0xFF	; 255
     9f8:	2c 91       	ld	r18, X
C:\Users\LENOVO\AppData\Local\Arduino15\packages\MightyCore\hardware\avr\3.1.0\cores\MCUdude_corefiles/HardwareSerial.cpp:94
  _tx_buffer_tail = (_tx_buffer_tail + 1) % SERIAL_TX_BUFFER_SIZE;
     9fa:	84 8d       	ldd	r24, Z+28	; 0x1c
     9fc:	90 e0       	ldi	r25, 0x00	; 0
     9fe:	01 96       	adiw	r24, 0x01	; 1
     a00:	8f 73       	andi	r24, 0x3F	; 63
     a02:	99 27       	eor	r25, r25
     a04:	84 8f       	std	Z+28, r24	; 0x1c
C:\Users\LENOVO\AppData\Local\Arduino15\packages\MightyCore\hardware\avr\3.1.0\cores\MCUdude_corefiles/HardwareSerial.cpp:96

  *_udr = c;
     a06:	a6 89       	ldd	r26, Z+22	; 0x16
     a08:	b7 89       	ldd	r27, Z+23	; 0x17
     a0a:	2c 93       	st	X, r18
C:\Users\LENOVO\AppData\Local\Arduino15\packages\MightyCore\hardware\avr\3.1.0\cores\MCUdude_corefiles/HardwareSerial.cpp:106
  // written to the rest.

  #ifdef MPCM0
    *_ucsra = ((*_ucsra) & ((1 << U2X0) | (1 << MPCM0))) | (1 << TXC0);
  #else
    *_ucsra = ((*_ucsra) & ((1 << U2X0) | (1 << TXC0)));
     a0c:	a0 89       	ldd	r26, Z+16	; 0x10
     a0e:	b1 89       	ldd	r27, Z+17	; 0x11
     a10:	8c 91       	ld	r24, X
     a12:	82 74       	andi	r24, 0x42	; 66
     a14:	8c 93       	st	X, r24
C:\Users\LENOVO\AppData\Local\Arduino15\packages\MightyCore\hardware\avr\3.1.0\cores\MCUdude_corefiles/HardwareSerial.cpp:109
  #endif

  if (_tx_buffer_head == _tx_buffer_tail) {
     a16:	93 8d       	ldd	r25, Z+27	; 0x1b
     a18:	84 8d       	ldd	r24, Z+28	; 0x1c
     a1a:	98 13       	cpse	r25, r24
     a1c:	06 c0       	rjmp	.+12     	; 0xa2a <HardwareSerial::_tx_udr_empty_irq()+0x40>
C:\Users\LENOVO\AppData\Local\Arduino15\packages\MightyCore\hardware\avr\3.1.0\cores\MCUdude_corefiles/HardwareSerial.cpp:111
    // Buffer empty, so disable interrupts
    *_ucsrb &= ~_BV(UDRIE0);
     a1e:	02 88       	ldd	r0, Z+18	; 0x12
     a20:	f3 89       	ldd	r31, Z+19	; 0x13
     a22:	e0 2d       	mov	r30, r0
     a24:	80 81       	ld	r24, Z
     a26:	8f 7d       	andi	r24, 0xDF	; 223
     a28:	80 83       	st	Z, r24
C:\Users\LENOVO\AppData\Local\Arduino15\packages\MightyCore\hardware\avr\3.1.0\cores\MCUdude_corefiles/HardwareSerial.cpp:113
  }
}
     a2a:	08 95       	ret

00000a2c <HardwareSerial::write(unsigned char)>:
_ZN14HardwareSerial5writeEh():
C:\Users\LENOVO\AppData\Local\Arduino15\packages\MightyCore\hardware\avr\3.1.0\cores\MCUdude_corefiles/HardwareSerial.cpp:223
  // If we get here, nothing is queued anymore (DRIE is disabled) and
  // the hardware finished tranmission (TXC is set).
}

size_t HardwareSerial::write(uint8_t c)
{
     a2c:	ef 92       	push	r14
     a2e:	ff 92       	push	r15
     a30:	0f 93       	push	r16
     a32:	1f 93       	push	r17
     a34:	cf 93       	push	r28
     a36:	df 93       	push	r29
     a38:	ec 01       	movw	r28, r24
C:\Users\LENOVO\AppData\Local\Arduino15\packages\MightyCore\hardware\avr\3.1.0\cores\MCUdude_corefiles/HardwareSerial.cpp:224
  _written = true;
     a3a:	81 e0       	ldi	r24, 0x01	; 1
     a3c:	88 8f       	std	Y+24, r24	; 0x18
C:\Users\LENOVO\AppData\Local\Arduino15\packages\MightyCore\hardware\avr\3.1.0\cores\MCUdude_corefiles/HardwareSerial.cpp:229
  // If the buffer and the data register is empty, just write the byte
  // to the data register and be done. This shortcut helps
  // significantly improve the effective datarate at high (>
  // 500kbit/s) bitrates, where interrupt overhead becomes a slowdown.
  if (_tx_buffer_head == _tx_buffer_tail && bit_is_set(*_ucsra, UDRE0)) {
     a3e:	9b 8d       	ldd	r25, Y+27	; 0x1b
     a40:	8c 8d       	ldd	r24, Y+28	; 0x1c
     a42:	98 13       	cpse	r25, r24
     a44:	19 c0       	rjmp	.+50     	; 0xa78 <HardwareSerial::write(unsigned char)+0x4c>
     a46:	e8 89       	ldd	r30, Y+16	; 0x10
     a48:	f9 89       	ldd	r31, Y+17	; 0x11
     a4a:	80 81       	ld	r24, Z
     a4c:	85 ff       	sbrs	r24, 5
     a4e:	14 c0       	rjmp	.+40     	; 0xa78 <HardwareSerial::write(unsigned char)+0x4c>
C:\Users\LENOVO\AppData\Local\Arduino15\packages\MightyCore\hardware\avr\3.1.0\cores\MCUdude_corefiles/HardwareSerial.cpp:238
    // So writing UDR must happen first.
    // Writing UDR and clearing TC must be done atomically, otherwise
    // interrupts might delay the TXC clear so the byte written to UDR
    // is transmitted (setting TXC) before clearing TXC. Then TXC will
    // be cleared when no bytes are left, causing flush() to hang
    ATOMIC_BLOCK(ATOMIC_RESTORESTATE) {
     a50:	9f b7       	in	r25, 0x3f	; 63
__iCliRetVal():
c:\users\lenovo\appdata\local\arduino15\packages\arduino\tools\avr-gcc\7.3.0-atmel3.6.1-arduino7\avr\include\util/atomic.h:50
    return 1;
}

static __inline__ uint8_t __iCliRetVal(void)
{
    cli();
     a52:	f8 94       	cli
_ZN14HardwareSerial5writeEh():
C:\Users\LENOVO\AppData\Local\Arduino15\packages\MightyCore\hardware\avr\3.1.0\cores\MCUdude_corefiles/HardwareSerial.cpp:239
      *_udr = c;
     a54:	ee 89       	ldd	r30, Y+22	; 0x16
     a56:	ff 89       	ldd	r31, Y+23	; 0x17
     a58:	60 83       	st	Z, r22
C:\Users\LENOVO\AppData\Local\Arduino15\packages\MightyCore\hardware\avr\3.1.0\cores\MCUdude_corefiles/HardwareSerial.cpp:243
      #ifdef MPCM0
        *_ucsra = ((*_ucsra) & ((1 << U2X0) | (1 << MPCM0))) | (1 << TXC0);
      #else
        *_ucsra = ((*_ucsra) & ((1 << U2X0) | (1 << TXC0)));
     a5a:	e8 89       	ldd	r30, Y+16	; 0x10
     a5c:	f9 89       	ldd	r31, Y+17	; 0x11
     a5e:	80 81       	ld	r24, Z
     a60:	82 74       	andi	r24, 0x42	; 66
C:\Users\LENOVO\AppData\Local\Arduino15\packages\MightyCore\hardware\avr\3.1.0\cores\MCUdude_corefiles/HardwareSerial.cpp:271
  // make atomic to prevent execution of ISR between setting the
  // head pointer and setting the interrupt flag resulting in buffer
  // retransmission
  ATOMIC_BLOCK(ATOMIC_RESTORESTATE) {
    _tx_buffer_head = i;
    *_ucsrb |= _BV(UDRIE0);
     a62:	80 83       	st	Z, r24
__iRestore():
c:\users\lenovo\appdata\local\arduino15\packages\arduino\tools\avr-gcc\7.3.0-atmel3.6.1-arduino7\avr\include\util/atomic.h:70
    (void)__s;
}

static __inline__ void __iRestore(const  uint8_t *__s)
{
    SREG = *__s;
     a64:	9f bf       	out	0x3f, r25	; 63
_ZN14HardwareSerial5writeEh():
C:\Users\LENOVO\AppData\Local\Arduino15\packages\MightyCore\hardware\avr\3.1.0\cores\MCUdude_corefiles/HardwareSerial.cpp:275
  }
  
  return 1;
}
     a66:	81 e0       	ldi	r24, 0x01	; 1
     a68:	90 e0       	ldi	r25, 0x00	; 0
     a6a:	df 91       	pop	r29
     a6c:	cf 91       	pop	r28
     a6e:	1f 91       	pop	r17
     a70:	0f 91       	pop	r16
     a72:	ff 90       	pop	r15
     a74:	ef 90       	pop	r14
     a76:	08 95       	ret
     a78:	f6 2e       	mov	r15, r22
C:\Users\LENOVO\AppData\Local\Arduino15\packages\MightyCore\hardware\avr\3.1.0\cores\MCUdude_corefiles/HardwareSerial.cpp:248
        *_ucsra = ((*_ucsra) & ((1 << U2X0) | (1 << TXC0)));
      #endif
    }
    return 1;
  }
  tx_buffer_index_t i = (_tx_buffer_head + 1) % SERIAL_TX_BUFFER_SIZE;
     a7a:	0b 8d       	ldd	r16, Y+27	; 0x1b
     a7c:	10 e0       	ldi	r17, 0x00	; 0
     a7e:	0f 5f       	subi	r16, 0xFF	; 255
     a80:	1f 4f       	sbci	r17, 0xFF	; 255
     a82:	0f 73       	andi	r16, 0x3F	; 63
     a84:	11 27       	eor	r17, r17
     a86:	e0 2e       	mov	r14, r16
C:\Users\LENOVO\AppData\Local\Arduino15\packages\MightyCore\hardware\avr\3.1.0\cores\MCUdude_corefiles/HardwareSerial.cpp:252

  // If the output buffer is full, there's nothing for it other than to 
  // wait for the interrupt handler to empty it a bit
  while (i == _tx_buffer_tail) {
     a88:	8c 8d       	ldd	r24, Y+28	; 0x1c
     a8a:	8e 11       	cpse	r24, r14
     a8c:	0c c0       	rjmp	.+24     	; 0xaa6 <HardwareSerial::write(unsigned char)+0x7a>
C:\Users\LENOVO\AppData\Local\Arduino15\packages\MightyCore\hardware\avr\3.1.0\cores\MCUdude_corefiles/HardwareSerial.cpp:253
    if (bit_is_clear(SREG, SREG_I)) {
     a8e:	0f b6       	in	r0, 0x3f	; 63
     a90:	07 fc       	sbrc	r0, 7
     a92:	fa cf       	rjmp	.-12     	; 0xa88 <HardwareSerial::write(unsigned char)+0x5c>
C:\Users\LENOVO\AppData\Local\Arduino15\packages\MightyCore\hardware\avr\3.1.0\cores\MCUdude_corefiles/HardwareSerial.cpp:258
      // Interrupts are disabled, so we'll have to poll the data
      // register empty flag ourselves. If it is set, pretend an
      // interrupt has happened and call the handler to free up
      // space for us.
      if(bit_is_set(*_ucsra, UDRE0))
     a94:	e8 89       	ldd	r30, Y+16	; 0x10
     a96:	f9 89       	ldd	r31, Y+17	; 0x11
     a98:	80 81       	ld	r24, Z
     a9a:	85 ff       	sbrs	r24, 5
     a9c:	f5 cf       	rjmp	.-22     	; 0xa88 <HardwareSerial::write(unsigned char)+0x5c>
C:\Users\LENOVO\AppData\Local\Arduino15\packages\MightyCore\hardware\avr\3.1.0\cores\MCUdude_corefiles/HardwareSerial.cpp:259
        _tx_udr_empty_irq();
     a9e:	ce 01       	movw	r24, r28
     aa0:	0e 94 f5 04 	call	0x9ea	; 0x9ea <HardwareSerial::_tx_udr_empty_irq()>
     aa4:	f1 cf       	rjmp	.-30     	; 0xa88 <HardwareSerial::write(unsigned char)+0x5c>
C:\Users\LENOVO\AppData\Local\Arduino15\packages\MightyCore\hardware\avr\3.1.0\cores\MCUdude_corefiles/HardwareSerial.cpp:265
    } else {
      // nop, the interrupt handler will free up space for us
    }
  }

  _tx_buffer[_tx_buffer_head] = c;
     aa6:	eb 8d       	ldd	r30, Y+27	; 0x1b
     aa8:	ec 0f       	add	r30, r28
     aaa:	fd 2f       	mov	r31, r29
     aac:	f1 1d       	adc	r31, r1
     aae:	e3 5a       	subi	r30, 0xA3	; 163
     ab0:	ff 4f       	sbci	r31, 0xFF	; 255
     ab2:	f0 82       	st	Z, r15
C:\Users\LENOVO\AppData\Local\Arduino15\packages\MightyCore\hardware\avr\3.1.0\cores\MCUdude_corefiles/HardwareSerial.cpp:269
  // make atomic to prevent execution of ISR between setting the
  // head pointer and setting the interrupt flag resulting in buffer
  // retransmission
  ATOMIC_BLOCK(ATOMIC_RESTORESTATE) {
     ab4:	9f b7       	in	r25, 0x3f	; 63
__iCliRetVal():
c:\users\lenovo\appdata\local\arduino15\packages\arduino\tools\avr-gcc\7.3.0-atmel3.6.1-arduino7\avr\include\util/atomic.h:50
    return 1;
}

static __inline__ uint8_t __iCliRetVal(void)
{
    cli();
     ab6:	f8 94       	cli
_ZN14HardwareSerial5writeEh():
C:\Users\LENOVO\AppData\Local\Arduino15\packages\MightyCore\hardware\avr\3.1.0\cores\MCUdude_corefiles/HardwareSerial.cpp:270
    _tx_buffer_head = i;
     ab8:	0b 8f       	std	Y+27, r16	; 0x1b
C:\Users\LENOVO\AppData\Local\Arduino15\packages\MightyCore\hardware\avr\3.1.0\cores\MCUdude_corefiles/HardwareSerial.cpp:271
    *_ucsrb |= _BV(UDRIE0);
     aba:	ea 89       	ldd	r30, Y+18	; 0x12
     abc:	fb 89       	ldd	r31, Y+19	; 0x13
     abe:	80 81       	ld	r24, Z
     ac0:	80 62       	ori	r24, 0x20	; 32
     ac2:	cf cf       	rjmp	.-98     	; 0xa62 <HardwareSerial::write(unsigned char)+0x36>

00000ac4 <HardwareSerial::flush()>:
_ZN14HardwareSerial5flushEv():
C:\Users\LENOVO\AppData\Local\Arduino15\packages\MightyCore\hardware\avr\3.1.0\cores\MCUdude_corefiles/HardwareSerial.cpp:203
  if (head >= tail) return SERIAL_TX_BUFFER_SIZE - 1 - head + tail;
  return tail - head - 1;
}

void HardwareSerial::flush()
{
     ac4:	cf 93       	push	r28
     ac6:	df 93       	push	r29
     ac8:	ec 01       	movw	r28, r24
C:\Users\LENOVO\AppData\Local\Arduino15\packages\MightyCore\hardware\avr\3.1.0\cores\MCUdude_corefiles/HardwareSerial.cpp:207
  // If we have never written a byte, no need to flush. This special
  // case is needed since there is no way to force the TXC (transmit
  // complete) bit to 1 during initialization
  if (!_written)
     aca:	88 8d       	ldd	r24, Y+24	; 0x18
     acc:	88 23       	and	r24, r24
     ace:	b9 f0       	breq	.+46     	; 0xafe <HardwareSerial::flush()+0x3a>
C:\Users\LENOVO\AppData\Local\Arduino15\packages\MightyCore\hardware\avr\3.1.0\cores\MCUdude_corefiles/HardwareSerial.cpp:210
    return;

  while (bit_is_set(*_ucsrb, UDRIE0) || bit_is_clear(*_ucsra, TXC0)) {
     ad0:	aa 89       	ldd	r26, Y+18	; 0x12
     ad2:	bb 89       	ldd	r27, Y+19	; 0x13
     ad4:	e8 89       	ldd	r30, Y+16	; 0x10
     ad6:	f9 89       	ldd	r31, Y+17	; 0x11
     ad8:	8c 91       	ld	r24, X
     ada:	85 fd       	sbrc	r24, 5
     adc:	03 c0       	rjmp	.+6      	; 0xae4 <HardwareSerial::flush()+0x20>
     ade:	80 81       	ld	r24, Z
     ae0:	86 fd       	sbrc	r24, 6
     ae2:	0d c0       	rjmp	.+26     	; 0xafe <HardwareSerial::flush()+0x3a>
C:\Users\LENOVO\AppData\Local\Arduino15\packages\MightyCore\hardware\avr\3.1.0\cores\MCUdude_corefiles/HardwareSerial.cpp:211
    if (bit_is_clear(SREG, SREG_I) && bit_is_set(*_ucsrb, UDRIE0))
     ae4:	0f b6       	in	r0, 0x3f	; 63
     ae6:	07 fc       	sbrc	r0, 7
     ae8:	f7 cf       	rjmp	.-18     	; 0xad8 <HardwareSerial::flush()+0x14>
     aea:	8c 91       	ld	r24, X
     aec:	85 ff       	sbrs	r24, 5
     aee:	f2 cf       	rjmp	.-28     	; 0xad4 <HardwareSerial::flush()+0x10>
C:\Users\LENOVO\AppData\Local\Arduino15\packages\MightyCore\hardware\avr\3.1.0\cores\MCUdude_corefiles/HardwareSerial.cpp:215
      // Interrupts are globally disabled, but the DR empty
      // interrupt should be enabled, so poll the DR empty flag to
      // prevent deadlock
      if (bit_is_set(*_ucsra, UDRE0))
     af0:	80 81       	ld	r24, Z
     af2:	85 ff       	sbrs	r24, 5
     af4:	ed cf       	rjmp	.-38     	; 0xad0 <HardwareSerial::flush()+0xc>
C:\Users\LENOVO\AppData\Local\Arduino15\packages\MightyCore\hardware\avr\3.1.0\cores\MCUdude_corefiles/HardwareSerial.cpp:216
        _tx_udr_empty_irq();
     af6:	ce 01       	movw	r24, r28
     af8:	0e 94 f5 04 	call	0x9ea	; 0x9ea <HardwareSerial::_tx_udr_empty_irq()>
     afc:	e9 cf       	rjmp	.-46     	; 0xad0 <HardwareSerial::flush()+0xc>
C:\Users\LENOVO\AppData\Local\Arduino15\packages\MightyCore\hardware\avr\3.1.0\cores\MCUdude_corefiles/HardwareSerial.cpp:220
  }
  // If we get here, nothing is queued anymore (DRIE is disabled) and
  // the hardware finished tranmission (TXC is set).
}
     afe:	df 91       	pop	r29
     b00:	cf 91       	pop	r28
     b02:	08 95       	ret

00000b04 <Print::flush()>:
_ZN5Print5flushEv():
C:\Users\LENOVO\AppData\Local\Arduino15\packages\MightyCore\hardware\avr\3.1.0\cores\MCUdude_corefiles/Print.h:65

    // default to zero, meaning "a single write may block"
    // should be overriden by subclasses with buffering
    virtual int availableForWrite() { return 0; }

    virtual void flush() { /* Empty implementation for backward compatibility */ }
     b04:	08 95       	ret

00000b06 <Adafruit_I2CDevice::write(unsigned char const*, unsigned int, bool, unsigned char const*, unsigned int) [clone .part.1]>:
_ZN18Adafruit_I2CDevice5writeEPKhjbS1_j.part.1():
c:\Users\LENOVO\Documents\Arduino\libraries\Adafruit_BusIO/Adafruit_I2CDevice.cpp:102
 *            ensure the content of this buffer doesn't change.
 *    @param  prefix_len Number of bytes from prefix buffer to write
 *    @param  stop Whether to send an I2C STOP signal on write
 *    @return True if write was successful, otherwise false.
 */
bool Adafruit_I2CDevice::write(const uint8_t *buffer, size_t len, bool stop,
     b06:	1f 93       	push	r17
     b08:	cf 93       	push	r28
     b0a:	df 93       	push	r29
     b0c:	ea 01       	movw	r28, r20
     b0e:	12 2f       	mov	r17, r18
c:\Users\LENOVO\Documents\Arduino\libraries\Adafruit_BusIO/Adafruit_I2CDevice.cpp:128
      return false;
    }
  }

  // Write the data itself
  if (_wire->write(buffer, len) != len) {
     b10:	dc 01       	movw	r26, r24
     b12:	11 96       	adiw	r26, 0x01	; 1
     b14:	8d 91       	ld	r24, X+
     b16:	9c 91       	ld	r25, X
     b18:	dc 01       	movw	r26, r24
     b1a:	ed 91       	ld	r30, X+
     b1c:	fc 91       	ld	r31, X
     b1e:	02 80       	ldd	r0, Z+2	; 0x02
     b20:	f3 81       	ldd	r31, Z+3	; 0x03
     b22:	e0 2d       	mov	r30, r0
     b24:	09 95       	icall
     b26:	c8 17       	cp	r28, r24
     b28:	d9 07       	cpc	r29, r25
     b2a:	29 f4       	brne	.+10     	; 0xb36 <Adafruit_I2CDevice::write(unsigned char const*, unsigned int, bool, unsigned char const*, unsigned int) [clone .part.1]+0x30>
c:\Users\LENOVO\Documents\Arduino\libraries\Adafruit_BusIO/Adafruit_I2CDevice.cpp:161
  if (stop) {
    DEBUG_SERIAL.print("\tSTOP");
  }
#endif

  if (_wire->endTransmission(stop) == 0) {
     b2c:	81 2f       	mov	r24, r17
     b2e:	0e 94 23 02 	call	0x446	; 0x446 <TwoWire::endTransmission(unsigned char) [clone .constprop.51]>
     b32:	91 e0       	ldi	r25, 0x01	; 1
     b34:	81 11       	cpse	r24, r1
c:\Users\LENOVO\Documents\Arduino\libraries\Adafruit_BusIO/Adafruit_I2CDevice.cpp:132
  // Write the data itself
  if (_wire->write(buffer, len) != len) {
#ifdef DEBUG_SERIAL
    DEBUG_SERIAL.println(F("\tI2CDevice failed to write"));
#endif
    return false;
     b36:	90 e0       	ldi	r25, 0x00	; 0
c:\Users\LENOVO\Documents\Arduino\libraries\Adafruit_BusIO/Adafruit_I2CDevice.cpp:173
#ifdef DEBUG_SERIAL
    DEBUG_SERIAL.println("\tFailed to send!");
#endif
    return false;
  }
}
     b38:	89 2f       	mov	r24, r25
     b3a:	df 91       	pop	r29
     b3c:	cf 91       	pop	r28
     b3e:	1f 91       	pop	r17
     b40:	08 95       	ret

00000b42 <Adafruit_I2CDevice::detected()>:
_ZN18Adafruit_I2CDevice8detectedEv():
c:\Users\LENOVO\Documents\Arduino\libraries\Adafruit_BusIO/Adafruit_I2CDevice.cpp:62
/*!
 *    @brief  Scans I2C for the address - note will give a false-positive
 *    if there's no pullups on I2C
 *    @return True if I2C initialized and a device with the addr found
 */
bool Adafruit_I2CDevice::detected(void) {
     b42:	cf 93       	push	r28
     b44:	df 93       	push	r29
     b46:	ec 01       	movw	r28, r24
c:\Users\LENOVO\Documents\Arduino\libraries\Adafruit_BusIO/Adafruit_I2CDevice.cpp:64
  // Init I2C if not done yet
  if (!_begun && !begin()) {
     b48:	8b 81       	ldd	r24, Y+3	; 0x03
     b4a:	88 23       	and	r24, r24
     b4c:	a1 f0       	breq	.+40     	; 0xb76 <Adafruit_I2CDevice::detected()+0x34>
c:\Users\LENOVO\Documents\Arduino\libraries\Adafruit_BusIO/Adafruit_I2CDevice.cpp:69
    return false;
  }

  // A basic scanner, see if it ACK's
  _wire->beginTransmission(_addr);
     b4e:	88 81       	ld	r24, Y
beginTransmission():
C:\Users\LENOVO\AppData\Local\Arduino15\packages\MightyCore\hardware\avr\3.1.0\libraries\Wire\src/Wire.cpp:196
}

void TwoWire::beginTransmission(uint8_t address)
{
  // indicate that we are transmitting
  transmitting = 1;
     b50:	91 e0       	ldi	r25, 0x01	; 1
     b52:	90 93 1b 02 	sts	0x021B, r25	; 0x80021b <TwoWire::transmitting>
C:\Users\LENOVO\AppData\Local\Arduino15\packages\MightyCore\hardware\avr\3.1.0\libraries\Wire\src/Wire.cpp:198
  // set address of targeted slave
  txAddress = address;
     b56:	80 93 3d 02 	sts	0x023D, r24	; 0x80023d <TwoWire::txAddress>
C:\Users\LENOVO\AppData\Local\Arduino15\packages\MightyCore\hardware\avr\3.1.0\libraries\Wire\src/Wire.cpp:200
  // reset tx buffer iterator vars
  txBufferIndex = 0;
     b5a:	10 92 1c 02 	sts	0x021C, r1	; 0x80021c <TwoWire::txBufferIndex>
C:\Users\LENOVO\AppData\Local\Arduino15\packages\MightyCore\hardware\avr\3.1.0\libraries\Wire\src/Wire.cpp:201
  txBufferLength = 0;
     b5e:	10 92 3e 02 	sts	0x023E, r1	; 0x80023e <TwoWire::txBufferLength>
endTransmission():
C:\Users\LENOVO\AppData\Local\Arduino15\packages\MightyCore\hardware\avr\3.1.0\libraries\Wire\src/Wire.cpp:239
//  This provides backwards compatibility with the original
//  definition, and expected behaviour, of endTransmission
//
uint8_t TwoWire::endTransmission(void)
{
  return endTransmission(true);
     b62:	81 e0       	ldi	r24, 0x01	; 1
     b64:	0e 94 23 02 	call	0x446	; 0x446 <TwoWire::endTransmission(unsigned char) [clone .constprop.51]>
_ZN18Adafruit_I2CDevice8detectedEv():
c:\Users\LENOVO\Documents\Arduino\libraries\Adafruit_BusIO/Adafruit_I2CDevice.cpp:77
  DEBUG_SERIAL.print(_addr, HEX);
#endif
#ifdef ARDUINO_ARCH_MBED
  _wire->write(0); // forces a write request instead of a read
#endif
  if (_wire->endTransmission() == 0) {
     b68:	91 e0       	ldi	r25, 0x01	; 1
     b6a:	81 11       	cpse	r24, r1
     b6c:	90 e0       	ldi	r25, 0x00	; 0
c:\Users\LENOVO\Documents\Arduino\libraries\Adafruit_BusIO/Adafruit_I2CDevice.cpp:87
  }
#ifdef DEBUG_SERIAL
  DEBUG_SERIAL.println(F(" Not detected"));
#endif
  return false;
}
     b6e:	89 2f       	mov	r24, r25
     b70:	df 91       	pop	r29
     b72:	cf 91       	pop	r28
     b74:	08 95       	ret
begin():
c:\Users\LENOVO\Documents\Arduino\libraries\Adafruit_BusIO/Adafruit_I2CDevice.cpp:31
 * with a scan. 99% of sensors/devices don't mind, but once in a while they
 * don't respond well to a scan!
 *    @return True if I2C initialized and a device with the addr found
 */
bool Adafruit_I2CDevice::begin(bool addr_detect) {
  _wire->begin();
     b76:	0e 94 83 03 	call	0x706	; 0x706 <TwoWire::begin() [clone .constprop.13]>
c:\Users\LENOVO\Documents\Arduino\libraries\Adafruit_BusIO/Adafruit_I2CDevice.cpp:32
  _begun = true;
     b7a:	81 e0       	ldi	r24, 0x01	; 1
     b7c:	8b 83       	std	Y+3, r24	; 0x03
c:\Users\LENOVO\Documents\Arduino\libraries\Adafruit_BusIO/Adafruit_I2CDevice.cpp:35

  if (addr_detect) {
    return detected();
     b7e:	ce 01       	movw	r24, r28
     b80:	0e 94 a1 05 	call	0xb42	; 0xb42 <Adafruit_I2CDevice::detected()>
     b84:	98 2f       	mov	r25, r24
_ZN18Adafruit_I2CDevice8detectedEv():
c:\Users\LENOVO\Documents\Arduino\libraries\Adafruit_BusIO/Adafruit_I2CDevice.cpp:64
 *    if there's no pullups on I2C
 *    @return True if I2C initialized and a device with the addr found
 */
bool Adafruit_I2CDevice::detected(void) {
  // Init I2C if not done yet
  if (!_begun && !begin()) {
     b86:	81 11       	cpse	r24, r1
     b88:	e2 cf       	rjmp	.-60     	; 0xb4e <Adafruit_I2CDevice::detected()+0xc>
     b8a:	f1 cf       	rjmp	.-30     	; 0xb6e <Adafruit_I2CDevice::detected()+0x2c>

00000b8c <twi_stop>:
twi_stop():
C:\Users\LENOVO\AppData\Local\Arduino15\packages\MightyCore\hardware\avr\3.1.0\libraries\Wire\src\utility/twi.c:436
 * Output   none
 */
void twi_stop(void)
{
  // send stop condition
  TWCR = _BV(TWEN) | _BV(TWIE) | _BV(TWEA) | _BV(TWINT) | _BV(TWSTO);
     b8c:	85 ed       	ldi	r24, 0xD5	; 213
     b8e:	86 bf       	out	0x36, r24	; 54
C:\Users\LENOVO\AppData\Local\Arduino15\packages\MightyCore\hardware\avr\3.1.0\libraries\Wire\src\utility/twi.c:456
          return;
        }
      }
    }
  #else
    while(TWCR & _BV(TWSTO)){
     b90:	06 b6       	in	r0, 0x36	; 54
     b92:	04 fc       	sbrc	r0, 4
     b94:	fd cf       	rjmp	.-6      	; 0xb90 <twi_stop+0x4>
C:\Users\LENOVO\AppData\Local\Arduino15\packages\MightyCore\hardware\avr\3.1.0\libraries\Wire\src\utility/twi.c:462
      continue;
    }
  #endif

  // update twi state
  twi_state = TWI_READY;
     b96:	10 92 1a 02 	sts	0x021A, r1	; 0x80021a <twi_state>
C:\Users\LENOVO\AppData\Local\Arduino15\packages\MightyCore\hardware\avr\3.1.0\libraries\Wire\src\utility/twi.c:463
}
     b9a:	08 95       	ret

00000b9c <twi_transmit>:
twi_transmit():
C:\Users\LENOVO\AppData\Local\Arduino15\packages\MightyCore\hardware\avr\3.1.0\libraries\Wire\src\utility/twi.c:371
uint8_t twi_transmit(const uint8_t* data, uint8_t length)
{
  uint8_t i;

  // ensure data will fit into buffer
  if(TWI_BUFFER_SIZE < (twi_txBufferLength+length)){
     b9c:	20 91 97 01 	lds	r18, 0x0197	; 0x800197 <twi_txBufferLength>
     ba0:	26 0f       	add	r18, r22
     ba2:	33 27       	eor	r19, r19
     ba4:	33 1f       	adc	r19, r19
     ba6:	21 32       	cpi	r18, 0x21	; 33
     ba8:	31 05       	cpc	r19, r1
     baa:	ec f4       	brge	.+58     	; 0xbe6 <twi_transmit+0x4a>
C:\Users\LENOVO\AppData\Local\Arduino15\packages\MightyCore\hardware\avr\3.1.0\libraries\Wire\src\utility/twi.c:376
    return 1;
  }

  // ensure we are currently a slave transmitter
  if(TWI_STX != twi_state){
     bac:	20 91 1a 02 	lds	r18, 0x021A	; 0x80021a <twi_state>
     bb0:	fc 01       	movw	r30, r24
     bb2:	90 e0       	ldi	r25, 0x00	; 0
     bb4:	80 e0       	ldi	r24, 0x00	; 0
     bb6:	24 30       	cpi	r18, 0x04	; 4
     bb8:	69 f0       	breq	.+26     	; 0xbd4 <twi_transmit+0x38>
C:\Users\LENOVO\AppData\Local\Arduino15\packages\MightyCore\hardware\avr\3.1.0\libraries\Wire\src\utility/twi.c:377
    return 2;
     bba:	82 e0       	ldi	r24, 0x02	; 2
C:\Users\LENOVO\AppData\Local\Arduino15\packages\MightyCore\hardware\avr\3.1.0\libraries\Wire\src\utility/twi.c:387
    twi_txBuffer[twi_txBufferLength+i] = data[i];
  }
  twi_txBufferLength += length;

  return 0;
}
     bbc:	08 95       	ret
C:\Users\LENOVO\AppData\Local\Arduino15\packages\MightyCore\hardware\avr\3.1.0\libraries\Wire\src\utility/twi.c:382
    return 2;
  }

  // set length and copy data into tx buffer
  for(i = 0; i < length; ++i){
    twi_txBuffer[twi_txBufferLength+i] = data[i];
     bbe:	a0 91 97 01 	lds	r26, 0x0197	; 0x800197 <twi_txBufferLength>
     bc2:	21 91       	ld	r18, Z+
     bc4:	ac 01       	movw	r20, r24
     bc6:	49 58       	subi	r20, 0x89	; 137
     bc8:	5e 4f       	sbci	r21, 0xFE	; 254
     bca:	a4 0f       	add	r26, r20
     bcc:	b5 2f       	mov	r27, r21
     bce:	b1 1d       	adc	r27, r1
     bd0:	2c 93       	st	X, r18
     bd2:	01 96       	adiw	r24, 0x01	; 1
C:\Users\LENOVO\AppData\Local\Arduino15\packages\MightyCore\hardware\avr\3.1.0\libraries\Wire\src\utility/twi.c:381
  if(TWI_STX != twi_state){
    return 2;
  }

  // set length and copy data into tx buffer
  for(i = 0; i < length; ++i){
     bd4:	86 17       	cp	r24, r22
     bd6:	98 f3       	brcs	.-26     	; 0xbbe <twi_transmit+0x22>
C:\Users\LENOVO\AppData\Local\Arduino15\packages\MightyCore\hardware\avr\3.1.0\libraries\Wire\src\utility/twi.c:384
    twi_txBuffer[twi_txBufferLength+i] = data[i];
  }
  twi_txBufferLength += length;
     bd8:	80 91 97 01 	lds	r24, 0x0197	; 0x800197 <twi_txBufferLength>
     bdc:	68 0f       	add	r22, r24
     bde:	60 93 97 01 	sts	0x0197, r22	; 0x800197 <twi_txBufferLength>
     be2:	80 e0       	ldi	r24, 0x00	; 0
     be4:	08 95       	ret
C:\Users\LENOVO\AppData\Local\Arduino15\packages\MightyCore\hardware\avr\3.1.0\libraries\Wire\src\utility/twi.c:372
{
  uint8_t i;

  // ensure data will fit into buffer
  if(TWI_BUFFER_SIZE < (twi_txBufferLength+length)){
    return 1;
     be6:	81 e0       	ldi	r24, 0x01	; 1
     be8:	08 95       	ret

00000bea <TwoWire::flush()>:
_ZN7TwoWire5flushEv():
C:\Users\LENOVO\AppData\Local\Arduino15\packages\MightyCore\hardware\avr\3.1.0\libraries\Wire\src/Wire.cpp:326
}

void TwoWire::flush(void)
{
  // XXX: to be implemented.
}
     bea:	08 95       	ret

00000bec <TwoWire::peek()>:
_ZN7TwoWire4peekEv():
C:\Users\LENOVO\AppData\Local\Arduino15\packages\MightyCore\hardware\avr\3.1.0\libraries\Wire\src/Wire.cpp:316
// or after requestFrom(address, numBytes)
int TwoWire::peek(void)
{
  int value = -1;

  if(rxBufferIndex < rxBufferLength){
     bec:	e0 91 0f 02 	lds	r30, 0x020F	; 0x80020f <TwoWire::rxBufferIndex>
     bf0:	80 91 0e 02 	lds	r24, 0x020E	; 0x80020e <TwoWire::rxBufferLength>
     bf4:	e8 17       	cp	r30, r24
     bf6:	30 f4       	brcc	.+12     	; 0xc04 <TwoWire::peek()+0x18>
C:\Users\LENOVO\AppData\Local\Arduino15\packages\MightyCore\hardware\avr\3.1.0\libraries\Wire\src/Wire.cpp:317
    value = rxBuffer[rxBufferIndex];
     bf8:	f0 e0       	ldi	r31, 0x00	; 0
     bfa:	e6 54       	subi	r30, 0x46	; 70
     bfc:	fe 4f       	sbci	r31, 0xFE	; 254
     bfe:	80 81       	ld	r24, Z
     c00:	90 e0       	ldi	r25, 0x00	; 0
     c02:	08 95       	ret
C:\Users\LENOVO\AppData\Local\Arduino15\packages\MightyCore\hardware\avr\3.1.0\libraries\Wire\src/Wire.cpp:314
// must be called in:
// slave rx event callback
// or after requestFrom(address, numBytes)
int TwoWire::peek(void)
{
  int value = -1;
     c04:	8f ef       	ldi	r24, 0xFF	; 255
     c06:	9f ef       	ldi	r25, 0xFF	; 255
C:\Users\LENOVO\AppData\Local\Arduino15\packages\MightyCore\hardware\avr\3.1.0\libraries\Wire\src/Wire.cpp:321
  if(rxBufferIndex < rxBufferLength){
    value = rxBuffer[rxBufferIndex];
  }

  return value;
}
     c08:	08 95       	ret

00000c0a <TwoWire::read()>:
_ZN7TwoWire4readEv():
C:\Users\LENOVO\AppData\Local\Arduino15\packages\MightyCore\hardware\avr\3.1.0\libraries\Wire\src/Wire.cpp:301
int TwoWire::read(void)
{
  int value = -1;

  // get each successive byte on each call
  if(rxBufferIndex < rxBufferLength){
     c0a:	90 91 0f 02 	lds	r25, 0x020F	; 0x80020f <TwoWire::rxBufferIndex>
     c0e:	80 91 0e 02 	lds	r24, 0x020E	; 0x80020e <TwoWire::rxBufferLength>
C:\Users\LENOVO\AppData\Local\Arduino15\packages\MightyCore\hardware\avr\3.1.0\libraries\Wire\src/Wire.cpp:298
// must be called in:
// slave rx event callback
// or after requestFrom(address, numBytes)
int TwoWire::read(void)
{
  int value = -1;
     c12:	2f ef       	ldi	r18, 0xFF	; 255
     c14:	3f ef       	ldi	r19, 0xFF	; 255
C:\Users\LENOVO\AppData\Local\Arduino15\packages\MightyCore\hardware\avr\3.1.0\libraries\Wire\src/Wire.cpp:301

  // get each successive byte on each call
  if(rxBufferIndex < rxBufferLength){
     c16:	98 17       	cp	r25, r24
     c18:	48 f4       	brcc	.+18     	; 0xc2c <TwoWire::read()+0x22>
C:\Users\LENOVO\AppData\Local\Arduino15\packages\MightyCore\hardware\avr\3.1.0\libraries\Wire\src/Wire.cpp:302
    value = rxBuffer[rxBufferIndex];
     c1a:	e9 2f       	mov	r30, r25
     c1c:	f0 e0       	ldi	r31, 0x00	; 0
     c1e:	e6 54       	subi	r30, 0x46	; 70
     c20:	fe 4f       	sbci	r31, 0xFE	; 254
     c22:	20 81       	ld	r18, Z
     c24:	30 e0       	ldi	r19, 0x00	; 0
C:\Users\LENOVO\AppData\Local\Arduino15\packages\MightyCore\hardware\avr\3.1.0\libraries\Wire\src/Wire.cpp:303
    ++rxBufferIndex;
     c26:	9f 5f       	subi	r25, 0xFF	; 255
     c28:	90 93 0f 02 	sts	0x020F, r25	; 0x80020f <TwoWire::rxBufferIndex>
C:\Users\LENOVO\AppData\Local\Arduino15\packages\MightyCore\hardware\avr\3.1.0\libraries\Wire\src/Wire.cpp:307
  }

  return value;
}
     c2c:	c9 01       	movw	r24, r18
     c2e:	08 95       	ret

00000c30 <TwoWire::available()>:
_ZN7TwoWire9availableEv():
C:\Users\LENOVO\AppData\Local\Arduino15\packages\MightyCore\hardware\avr\3.1.0\libraries\Wire\src/Wire.cpp:290
// must be called in:
// slave rx event callback
// or after requestFrom(address, numBytes)
int TwoWire::available(void)
{
  return rxBufferLength - rxBufferIndex;
     c30:	80 91 0e 02 	lds	r24, 0x020E	; 0x80020e <TwoWire::rxBufferLength>
     c34:	90 91 0f 02 	lds	r25, 0x020F	; 0x80020f <TwoWire::rxBufferIndex>
C:\Users\LENOVO\AppData\Local\Arduino15\packages\MightyCore\hardware\avr\3.1.0\libraries\Wire\src/Wire.cpp:291
}
     c38:	89 1b       	sub	r24, r25
     c3a:	99 0b       	sbc	r25, r25
     c3c:	08 95       	ret

00000c3e <TwoWire::write(unsigned char const*, unsigned int)>:
_ZN7TwoWire5writeEPKhj():
C:\Users\LENOVO\AppData\Local\Arduino15\packages\MightyCore\hardware\avr\3.1.0\libraries\Wire\src/Wire.cpp:271

// must be called in:
// slave tx event callback
// or after beginTransmission(address)
size_t TwoWire::write(const uint8_t *data, size_t quantity)
{
     c3e:	cf 92       	push	r12
     c40:	df 92       	push	r13
     c42:	ef 92       	push	r14
     c44:	ff 92       	push	r15
     c46:	0f 93       	push	r16
     c48:	1f 93       	push	r17
     c4a:	cf 93       	push	r28
     c4c:	df 93       	push	r29
     c4e:	7c 01       	movw	r14, r24
     c50:	cb 01       	movw	r24, r22
     c52:	8a 01       	movw	r16, r20
C:\Users\LENOVO\AppData\Local\Arduino15\packages\MightyCore\hardware\avr\3.1.0\libraries\Wire\src/Wire.cpp:272
  if(transmitting){
     c54:	20 91 1b 02 	lds	r18, 0x021B	; 0x80021b <TwoWire::transmitting>
     c58:	22 23       	and	r18, r18
     c5a:	89 f0       	breq	.+34     	; 0xc7e <TwoWire::write(unsigned char const*, unsigned int)+0x40>
     c5c:	eb 01       	movw	r28, r22
     c5e:	6b 01       	movw	r12, r22
     c60:	c4 0e       	add	r12, r20
     c62:	d5 1e       	adc	r13, r21
C:\Users\LENOVO\AppData\Local\Arduino15\packages\MightyCore\hardware\avr\3.1.0\libraries\Wire\src/Wire.cpp:274
  // in master transmitter mode
    for(size_t i = 0; i < quantity; ++i){
     c64:	cc 15       	cp	r28, r12
     c66:	dd 05       	cpc	r29, r13
     c68:	69 f0       	breq	.+26     	; 0xc84 <TwoWire::write(unsigned char const*, unsigned int)+0x46>
C:\Users\LENOVO\AppData\Local\Arduino15\packages\MightyCore\hardware\avr\3.1.0\libraries\Wire\src/Wire.cpp:275
      write(data[i]);
     c6a:	69 91       	ld	r22, Y+
     c6c:	d7 01       	movw	r26, r14
     c6e:	ed 91       	ld	r30, X+
     c70:	fc 91       	ld	r31, X
     c72:	01 90       	ld	r0, Z+
     c74:	f0 81       	ld	r31, Z
     c76:	e0 2d       	mov	r30, r0
     c78:	c7 01       	movw	r24, r14
     c7a:	09 95       	icall
     c7c:	f3 cf       	rjmp	.-26     	; 0xc64 <TwoWire::write(unsigned char const*, unsigned int)+0x26>
C:\Users\LENOVO\AppData\Local\Arduino15\packages\MightyCore\hardware\avr\3.1.0\libraries\Wire\src/Wire.cpp:280
    }
  }else{
  // in slave send mode
    // reply to master
    twi_transmit(data, quantity);
     c7e:	64 2f       	mov	r22, r20
     c80:	0e 94 ce 05 	call	0xb9c	; 0xb9c <twi_transmit>
C:\Users\LENOVO\AppData\Local\Arduino15\packages\MightyCore\hardware\avr\3.1.0\libraries\Wire\src/Wire.cpp:283
  }
  return quantity;
}
     c84:	c8 01       	movw	r24, r16
     c86:	df 91       	pop	r29
     c88:	cf 91       	pop	r28
     c8a:	1f 91       	pop	r17
     c8c:	0f 91       	pop	r16
     c8e:	ff 90       	pop	r15
     c90:	ef 90       	pop	r14
     c92:	df 90       	pop	r13
     c94:	cf 90       	pop	r12
     c96:	08 95       	ret

00000c98 <TwoWire::write(unsigned char)>:
_ZN7TwoWire5writeEh():
C:\Users\LENOVO\AppData\Local\Arduino15\packages\MightyCore\hardware\avr\3.1.0\libraries\Wire\src/Wire.cpp:246

// must be called in:
// slave tx event callback
// or after beginTransmission(address)
size_t TwoWire::write(uint8_t data)
{
     c98:	cf 93       	push	r28
     c9a:	df 93       	push	r29
     c9c:	1f 92       	push	r1
     c9e:	cd b7       	in	r28, 0x3d	; 61
     ca0:	de b7       	in	r29, 0x3e	; 62
     ca2:	69 83       	std	Y+1, r22	; 0x01
C:\Users\LENOVO\AppData\Local\Arduino15\packages\MightyCore\hardware\avr\3.1.0\libraries\Wire\src/Wire.cpp:247
  if(transmitting){
     ca4:	20 91 1b 02 	lds	r18, 0x021B	; 0x80021b <TwoWire::transmitting>
     ca8:	22 23       	and	r18, r18
     caa:	f9 f0       	breq	.+62     	; 0xcea <TwoWire::write(unsigned char)+0x52>
C:\Users\LENOVO\AppData\Local\Arduino15\packages\MightyCore\hardware\avr\3.1.0\libraries\Wire\src/Wire.cpp:250
  // in master transmitter mode
    // don't bother if buffer is full
    if(txBufferLength >= TWI_BUFFER_SIZE){
     cac:	20 91 3e 02 	lds	r18, 0x023E	; 0x80023e <TwoWire::txBufferLength>
     cb0:	20 32       	cpi	r18, 0x20	; 32
     cb2:	58 f0       	brcs	.+22     	; 0xcca <TwoWire::write(unsigned char)+0x32>
_ZN5Print13setWriteErrorEi():
C:\Users\LENOVO\AppData\Local\Arduino15\packages\MightyCore\hardware\avr\3.1.0\cores\MCUdude_corefiles/Print.h:44
  private:
    int write_error;
    size_t printNumber(unsigned long, uint8_t);
    size_t printFloat(double, uint8_t);
  protected:
    void setWriteError(int err = 1) { write_error = err; }
     cb4:	21 e0       	ldi	r18, 0x01	; 1
     cb6:	30 e0       	ldi	r19, 0x00	; 0
     cb8:	fc 01       	movw	r30, r24
     cba:	33 83       	std	Z+3, r19	; 0x03
     cbc:	22 83       	std	Z+2, r18	; 0x02
_ZN7TwoWire5writeEh():
C:\Users\LENOVO\AppData\Local\Arduino15\packages\MightyCore\hardware\avr\3.1.0\libraries\Wire\src/Wire.cpp:252
      setWriteError();
      return 0;
     cbe:	90 e0       	ldi	r25, 0x00	; 0
     cc0:	80 e0       	ldi	r24, 0x00	; 0
C:\Users\LENOVO\AppData\Local\Arduino15\packages\MightyCore\hardware\avr\3.1.0\libraries\Wire\src/Wire.cpp:265
  // in slave send mode
    // reply to master
    twi_transmit(&data, 1);
  }
  return 1;
}
     cc2:	0f 90       	pop	r0
     cc4:	df 91       	pop	r29
     cc6:	cf 91       	pop	r28
     cc8:	08 95       	ret
C:\Users\LENOVO\AppData\Local\Arduino15\packages\MightyCore\hardware\avr\3.1.0\libraries\Wire\src/Wire.cpp:255
    if(txBufferLength >= TWI_BUFFER_SIZE){
      setWriteError();
      return 0;
    }
    // put byte in tx buffer
    txBuffer[txBufferIndex] = data;
     cca:	80 91 1c 02 	lds	r24, 0x021C	; 0x80021c <TwoWire::txBufferIndex>
     cce:	e8 2f       	mov	r30, r24
     cd0:	f0 e0       	ldi	r31, 0x00	; 0
     cd2:	e3 5e       	subi	r30, 0xE3	; 227
     cd4:	fd 4f       	sbci	r31, 0xFD	; 253
     cd6:	99 81       	ldd	r25, Y+1	; 0x01
     cd8:	90 83       	st	Z, r25
C:\Users\LENOVO\AppData\Local\Arduino15\packages\MightyCore\hardware\avr\3.1.0\libraries\Wire\src/Wire.cpp:256
    ++txBufferIndex;
     cda:	8f 5f       	subi	r24, 0xFF	; 255
     cdc:	80 93 1c 02 	sts	0x021C, r24	; 0x80021c <TwoWire::txBufferIndex>
C:\Users\LENOVO\AppData\Local\Arduino15\packages\MightyCore\hardware\avr\3.1.0\libraries\Wire\src/Wire.cpp:258
    // update amount in buffer
    txBufferLength = txBufferIndex;
     ce0:	80 93 3e 02 	sts	0x023E, r24	; 0x80023e <TwoWire::txBufferLength>
C:\Users\LENOVO\AppData\Local\Arduino15\packages\MightyCore\hardware\avr\3.1.0\libraries\Wire\src/Wire.cpp:264
  }else{
  // in slave send mode
    // reply to master
    twi_transmit(&data, 1);
  }
  return 1;
     ce4:	81 e0       	ldi	r24, 0x01	; 1
     ce6:	90 e0       	ldi	r25, 0x00	; 0
     ce8:	ec cf       	rjmp	.-40     	; 0xcc2 <TwoWire::write(unsigned char)+0x2a>
C:\Users\LENOVO\AppData\Local\Arduino15\packages\MightyCore\hardware\avr\3.1.0\libraries\Wire\src/Wire.cpp:262
    // update amount in buffer
    txBufferLength = txBufferIndex;
  }else{
  // in slave send mode
    // reply to master
    twi_transmit(&data, 1);
     cea:	61 e0       	ldi	r22, 0x01	; 1
     cec:	ce 01       	movw	r24, r28
     cee:	01 96       	adiw	r24, 0x01	; 1
     cf0:	0e 94 ce 05 	call	0xb9c	; 0xb9c <twi_transmit>
     cf4:	f7 cf       	rjmp	.-18     	; 0xce4 <TwoWire::write(unsigned char)+0x4c>

00000cf6 <LiquidCrystal_I2C::expanderWrite(unsigned char)>:
_ZN17LiquidCrystal_I2C13expanderWriteEh():
c:\Users\LENOVO\Documents\Arduino\libraries\LiquidCrystal_I2C/LiquidCrystal_I2C.cpp:253
	expanderWrite(value);
	pulseEnable(value);
}

void LiquidCrystal_I2C::expanderWrite(uint8_t _data){                                        
	Wire.beginTransmission(_Addr);
     cf6:	fc 01       	movw	r30, r24
     cf8:	24 81       	ldd	r18, Z+4	; 0x04
beginTransmission():
C:\Users\LENOVO\AppData\Local\Arduino15\packages\MightyCore\hardware\avr\3.1.0\libraries\Wire\src/Wire.cpp:196
}

void TwoWire::beginTransmission(uint8_t address)
{
  // indicate that we are transmitting
  transmitting = 1;
     cfa:	31 e0       	ldi	r19, 0x01	; 1
     cfc:	30 93 1b 02 	sts	0x021B, r19	; 0x80021b <TwoWire::transmitting>
C:\Users\LENOVO\AppData\Local\Arduino15\packages\MightyCore\hardware\avr\3.1.0\libraries\Wire\src/Wire.cpp:198
  // set address of targeted slave
  txAddress = address;
     d00:	20 93 3d 02 	sts	0x023D, r18	; 0x80023d <TwoWire::txAddress>
C:\Users\LENOVO\AppData\Local\Arduino15\packages\MightyCore\hardware\avr\3.1.0\libraries\Wire\src/Wire.cpp:200
  // reset tx buffer iterator vars
  txBufferIndex = 0;
     d04:	10 92 1c 02 	sts	0x021C, r1	; 0x80021c <TwoWire::txBufferIndex>
C:\Users\LENOVO\AppData\Local\Arduino15\packages\MightyCore\hardware\avr\3.1.0\libraries\Wire\src/Wire.cpp:201
  txBufferLength = 0;
     d08:	10 92 3e 02 	sts	0x023E, r1	; 0x80023e <TwoWire::txBufferLength>
_ZN17LiquidCrystal_I2C13expanderWriteEh():
c:\Users\LENOVO\Documents\Arduino\libraries\LiquidCrystal_I2C/LiquidCrystal_I2C.cpp:254
	printIIC((int)(_data) | _backlightval);
     d0c:	83 85       	ldd	r24, Z+11	; 0x0b
     d0e:	68 2b       	or	r22, r24
write():
C:\Users\LENOVO\AppData\Local\Arduino15\packages\MightyCore\hardware\avr\3.1.0\libraries\Wire\src/Wire.h:86
    void onRequest( void (*)(void) );

    inline size_t write(unsigned long n) { return write((uint8_t)n); }
    inline size_t write(long n) { return write((uint8_t)n); }
    inline size_t write(unsigned int n) { return write((uint8_t)n); }
    inline size_t write(int n) { return write((uint8_t)n); }
     d10:	8c ed       	ldi	r24, 0xDC	; 220
     d12:	92 e0       	ldi	r25, 0x02	; 2
     d14:	0e 94 4c 06 	call	0xc98	; 0xc98 <TwoWire::write(unsigned char)>
endTransmission():
C:\Users\LENOVO\AppData\Local\Arduino15\packages\MightyCore\hardware\avr\3.1.0\libraries\Wire\src/Wire.cpp:239
//  This provides backwards compatibility with the original
//  definition, and expected behaviour, of endTransmission
//
uint8_t TwoWire::endTransmission(void)
{
  return endTransmission(true);
     d18:	81 e0       	ldi	r24, 0x01	; 1
     d1a:	0c 94 23 02 	jmp	0x446	; 0x446 <TwoWire::endTransmission(unsigned char) [clone .constprop.51]>

00000d1e <LiquidCrystal_I2C::write4bits(unsigned char)>:
_ZN17LiquidCrystal_I2C10write4bitsEh():
c:\Users\LENOVO\Documents\Arduino\libraries\LiquidCrystal_I2C/LiquidCrystal_I2C.cpp:247
	uint8_t lownib=(value<<4)&0xf0;
       write4bits((highnib)|mode);
	write4bits((lownib)|mode); 
}

void LiquidCrystal_I2C::write4bits(uint8_t value) {
     d1e:	0f 93       	push	r16
     d20:	1f 93       	push	r17
     d22:	cf 93       	push	r28
     d24:	8c 01       	movw	r16, r24
     d26:	c6 2f       	mov	r28, r22
c:\Users\LENOVO\Documents\Arduino\libraries\LiquidCrystal_I2C/LiquidCrystal_I2C.cpp:248
	expanderWrite(value);
     d28:	0e 94 7b 06 	call	0xcf6	; 0xcf6 <LiquidCrystal_I2C::expanderWrite(unsigned char)>
pulseEnable():
c:\Users\LENOVO\Documents\Arduino\libraries\LiquidCrystal_I2C/LiquidCrystal_I2C.cpp:259
	printIIC((int)(_data) | _backlightval);
	Wire.endTransmission();   
}

void LiquidCrystal_I2C::pulseEnable(uint8_t _data){
	expanderWrite(_data | En);	// En high
     d2c:	6c 2f       	mov	r22, r28
     d2e:	64 60       	ori	r22, 0x04	; 4
     d30:	c8 01       	movw	r24, r16
     d32:	0e 94 7b 06 	call	0xcf6	; 0xcf6 <LiquidCrystal_I2C::expanderWrite(unsigned char)>
c:\Users\LENOVO\Documents\Arduino\libraries\LiquidCrystal_I2C/LiquidCrystal_I2C.cpp:260
	delayMicroseconds(1);		// enable pulse must be >450ns
     d36:	81 e0       	ldi	r24, 0x01	; 1
     d38:	90 e0       	ldi	r25, 0x00	; 0
     d3a:	0e 94 e9 03 	call	0x7d2	; 0x7d2 <delayMicroseconds>
c:\Users\LENOVO\Documents\Arduino\libraries\LiquidCrystal_I2C/LiquidCrystal_I2C.cpp:262
	
	expanderWrite(_data & ~En);	// En low
     d3e:	6c 2f       	mov	r22, r28
     d40:	6b 7f       	andi	r22, 0xFB	; 251
     d42:	c8 01       	movw	r24, r16
     d44:	0e 94 7b 06 	call	0xcf6	; 0xcf6 <LiquidCrystal_I2C::expanderWrite(unsigned char)>
c:\Users\LENOVO\Documents\Arduino\libraries\LiquidCrystal_I2C/LiquidCrystal_I2C.cpp:263
	delayMicroseconds(50);		// commands need > 37us to settle
     d48:	82 e3       	ldi	r24, 0x32	; 50
     d4a:	90 e0       	ldi	r25, 0x00	; 0
_ZN17LiquidCrystal_I2C10write4bitsEh():
c:\Users\LENOVO\Documents\Arduino\libraries\LiquidCrystal_I2C/LiquidCrystal_I2C.cpp:250
}

void LiquidCrystal_I2C::write4bits(uint8_t value) {
	expanderWrite(value);
	pulseEnable(value);
}
     d4c:	cf 91       	pop	r28
     d4e:	1f 91       	pop	r17
     d50:	0f 91       	pop	r16
pulseEnable():
c:\Users\LENOVO\Documents\Arduino\libraries\LiquidCrystal_I2C/LiquidCrystal_I2C.cpp:263
void LiquidCrystal_I2C::pulseEnable(uint8_t _data){
	expanderWrite(_data | En);	// En high
	delayMicroseconds(1);		// enable pulse must be >450ns
	
	expanderWrite(_data & ~En);	// En low
	delayMicroseconds(50);		// commands need > 37us to settle
     d52:	0c 94 e9 03 	jmp	0x7d2	; 0x7d2 <delayMicroseconds>

00000d56 <LiquidCrystal_I2C::send(unsigned char, unsigned char)>:
_ZN17LiquidCrystal_I2C4sendEhh():
c:\Users\LENOVO\Documents\Arduino\libraries\LiquidCrystal_I2C/LiquidCrystal_I2C.cpp:240


/************ low level data pushing commands **********/

// write either command or data
void LiquidCrystal_I2C::send(uint8_t value, uint8_t mode) {
     d56:	0f 93       	push	r16
     d58:	1f 93       	push	r17
     d5a:	cf 93       	push	r28
     d5c:	df 93       	push	r29
     d5e:	8c 01       	movw	r16, r24
     d60:	d6 2f       	mov	r29, r22
     d62:	c4 2f       	mov	r28, r20
c:\Users\LENOVO\Documents\Arduino\libraries\LiquidCrystal_I2C/LiquidCrystal_I2C.cpp:241
	uint8_t highnib=value&0xf0;
     d64:	60 7f       	andi	r22, 0xF0	; 240
c:\Users\LENOVO\Documents\Arduino\libraries\LiquidCrystal_I2C/LiquidCrystal_I2C.cpp:243
	uint8_t lownib=(value<<4)&0xf0;
       write4bits((highnib)|mode);
     d66:	64 2b       	or	r22, r20
     d68:	0e 94 8f 06 	call	0xd1e	; 0xd1e <LiquidCrystal_I2C::write4bits(unsigned char)>
c:\Users\LENOVO\Documents\Arduino\libraries\LiquidCrystal_I2C/LiquidCrystal_I2C.cpp:242
/************ low level data pushing commands **********/

// write either command or data
void LiquidCrystal_I2C::send(uint8_t value, uint8_t mode) {
	uint8_t highnib=value&0xf0;
	uint8_t lownib=(value<<4)&0xf0;
     d6c:	80 e1       	ldi	r24, 0x10	; 16
     d6e:	d8 9f       	mul	r29, r24
     d70:	b0 01       	movw	r22, r0
     d72:	11 24       	eor	r1, r1
c:\Users\LENOVO\Documents\Arduino\libraries\LiquidCrystal_I2C/LiquidCrystal_I2C.cpp:244
       write4bits((highnib)|mode);
	write4bits((lownib)|mode); 
     d74:	6c 2b       	or	r22, r28
     d76:	c8 01       	movw	r24, r16
c:\Users\LENOVO\Documents\Arduino\libraries\LiquidCrystal_I2C/LiquidCrystal_I2C.cpp:245
}
     d78:	df 91       	pop	r29
     d7a:	cf 91       	pop	r28
     d7c:	1f 91       	pop	r17
     d7e:	0f 91       	pop	r16
c:\Users\LENOVO\Documents\Arduino\libraries\LiquidCrystal_I2C/LiquidCrystal_I2C.cpp:244
// write either command or data
void LiquidCrystal_I2C::send(uint8_t value, uint8_t mode) {
	uint8_t highnib=value&0xf0;
	uint8_t lownib=(value<<4)&0xf0;
       write4bits((highnib)|mode);
	write4bits((lownib)|mode); 
     d80:	0c 94 8f 06 	jmp	0xd1e	; 0xd1e <LiquidCrystal_I2C::write4bits(unsigned char)>

00000d84 <LiquidCrystal_I2C::setCursor(unsigned char, unsigned char) [clone .constprop.47]>:
_ZN17LiquidCrystal_I2C9setCursorEhh.constprop.47():
c:\Users\LENOVO\Documents\Arduino\libraries\LiquidCrystal_I2C/LiquidCrystal_I2C.cpp:137
void LiquidCrystal_I2C::home(){
	command(LCD_RETURNHOME);  // set cursor position to zero
	delayMicroseconds(2000);  // this command takes a long time!
}

void LiquidCrystal_I2C::setCursor(uint8_t col, uint8_t row){
     d84:	cf 93       	push	r28
     d86:	df 93       	push	r29
     d88:	cd b7       	in	r28, 0x3d	; 61
     d8a:	de b7       	in	r29, 0x3e	; 62
     d8c:	28 97       	sbiw	r28, 0x08	; 8
     d8e:	0f b6       	in	r0, 0x3f	; 63
     d90:	f8 94       	cli
     d92:	de bf       	out	0x3e, r29	; 62
     d94:	0f be       	out	0x3f, r0	; 63
     d96:	cd bf       	out	0x3d, r28	; 61
c:\Users\LENOVO\Documents\Arduino\libraries\LiquidCrystal_I2C/LiquidCrystal_I2C.cpp:138
	int row_offsets[] = { 0x00, 0x40, 0x14, 0x54 };
     d98:	98 e0       	ldi	r25, 0x08	; 8
     d9a:	e8 e7       	ldi	r30, 0x78	; 120
     d9c:	f0 e0       	ldi	r31, 0x00	; 0
     d9e:	de 01       	movw	r26, r28
     da0:	11 96       	adiw	r26, 0x01	; 1
     da2:	01 90       	ld	r0, Z+
     da4:	0d 92       	st	X+, r0
     da6:	9a 95       	dec	r25
     da8:	e1 f7       	brne	.-8      	; 0xda2 <LiquidCrystal_I2C::setCursor(unsigned char, unsigned char) [clone .constprop.47]+0x1e>
c:\Users\LENOVO\Documents\Arduino\libraries\LiquidCrystal_I2C/LiquidCrystal_I2C.cpp:139
	if ( row > _numlines ) {
     daa:	90 91 06 03 	lds	r25, 0x0306	; 0x800306 <lcd+0x8>
     dae:	96 17       	cp	r25, r22
     db0:	08 f4       	brcc	.+2      	; 0xdb4 <LiquidCrystal_I2C::setCursor(unsigned char, unsigned char) [clone .constprop.47]+0x30>
c:\Users\LENOVO\Documents\Arduino\libraries\LiquidCrystal_I2C/LiquidCrystal_I2C.cpp:140
		row = _numlines-1;    // we count rows starting w/0
     db2:	6f ef       	ldi	r22, 0xFF	; 255
c:\Users\LENOVO\Documents\Arduino\libraries\LiquidCrystal_I2C/LiquidCrystal_I2C.cpp:142
	}
	command(LCD_SETDDRAMADDR | (col + row_offsets[row]));
     db4:	26 2f       	mov	r18, r22
     db6:	30 e0       	ldi	r19, 0x00	; 0
     db8:	22 0f       	add	r18, r18
     dba:	33 1f       	adc	r19, r19
     dbc:	41 e0       	ldi	r20, 0x01	; 1
     dbe:	50 e0       	ldi	r21, 0x00	; 0
     dc0:	4c 0f       	add	r20, r28
     dc2:	5d 1f       	adc	r21, r29
     dc4:	24 0f       	add	r18, r20
     dc6:	35 1f       	adc	r19, r21
     dc8:	f9 01       	movw	r30, r18
     dca:	60 81       	ld	r22, Z
     dcc:	68 0f       	add	r22, r24
     dce:	60 68       	ori	r22, 0x80	; 128
command():
c:\Users\LENOVO\Documents\Arduino\libraries\LiquidCrystal_I2C/LiquidCrystal_I2C.cpp:233


/*********** mid level commands, for sending data/cmds */

inline void LiquidCrystal_I2C::command(uint8_t value) {
	send(value, 0);
     dd0:	40 e0       	ldi	r20, 0x00	; 0
     dd2:	8e ef       	ldi	r24, 0xFE	; 254
     dd4:	92 e0       	ldi	r25, 0x02	; 2
_ZN17LiquidCrystal_I2C9setCursorEhh.constprop.47():
c:\Users\LENOVO\Documents\Arduino\libraries\LiquidCrystal_I2C/LiquidCrystal_I2C.cpp:143
	int row_offsets[] = { 0x00, 0x40, 0x14, 0x54 };
	if ( row > _numlines ) {
		row = _numlines-1;    // we count rows starting w/0
	}
	command(LCD_SETDDRAMADDR | (col + row_offsets[row]));
}
     dd6:	28 96       	adiw	r28, 0x08	; 8
     dd8:	0f b6       	in	r0, 0x3f	; 63
     dda:	f8 94       	cli
     ddc:	de bf       	out	0x3e, r29	; 62
     dde:	0f be       	out	0x3f, r0	; 63
     de0:	cd bf       	out	0x3d, r28	; 61
     de2:	df 91       	pop	r29
     de4:	cf 91       	pop	r28
command():
c:\Users\LENOVO\Documents\Arduino\libraries\LiquidCrystal_I2C/LiquidCrystal_I2C.cpp:233


/*********** mid level commands, for sending data/cmds */

inline void LiquidCrystal_I2C::command(uint8_t value) {
	send(value, 0);
     de6:	0c 94 ab 06 	jmp	0xd56	; 0xd56 <LiquidCrystal_I2C::send(unsigned char, unsigned char)>

00000dea <LiquidCrystal_I2C::clear() [clone .constprop.46]>:
_ZN17LiquidCrystal_I2C5clearEv.constprop.46():
     dea:	40 e0       	ldi	r20, 0x00	; 0
     dec:	61 e0       	ldi	r22, 0x01	; 1
     dee:	8e ef       	ldi	r24, 0xFE	; 254
     df0:	92 e0       	ldi	r25, 0x02	; 2
     df2:	0e 94 ab 06 	call	0xd56	; 0xd56 <LiquidCrystal_I2C::send(unsigned char, unsigned char)>
c:\Users\LENOVO\Documents\Arduino\libraries\LiquidCrystal_I2C/LiquidCrystal_I2C.cpp:129
}

/********** high level commands, for the user! */
void LiquidCrystal_I2C::clear(){
	command(LCD_CLEARDISPLAY);// clear display, set cursor position to zero
	delayMicroseconds(2000);  // this command takes a long time!
     df6:	80 ed       	ldi	r24, 0xD0	; 208
     df8:	97 e0       	ldi	r25, 0x07	; 7
     dfa:	0c 94 e9 03 	jmp	0x7d2	; 0x7d2 <delayMicroseconds>

00000dfe <LiquidCrystal_I2C::write(unsigned char)>:
_ZN17LiquidCrystal_I2C5writeEh():
c:\Users\LENOVO\Documents\Arduino\libraries\LiquidCrystal_I2C/LiquidCrystal_I2C.cpp:11

#include "Arduino.h"

#define printIIC(args)	Wire.write(args)
inline size_t LiquidCrystal_I2C::write(uint8_t value) {
	send(value, Rs);
     dfe:	41 e0       	ldi	r20, 0x01	; 1
     e00:	0e 94 ab 06 	call	0xd56	; 0xd56 <LiquidCrystal_I2C::send(unsigned char, unsigned char)>
c:\Users\LENOVO\Documents\Arduino\libraries\LiquidCrystal_I2C/LiquidCrystal_I2C.cpp:13
	return 1;
}
     e04:	81 e0       	ldi	r24, 0x01	; 1
     e06:	90 e0       	ldi	r25, 0x00	; 0
     e08:	08 95       	ret

00000e0a <Print::availableForWrite()>:
_ZN5Print17availableForWriteEv():
C:\Users\LENOVO\AppData\Local\Arduino15\packages\MightyCore\hardware\avr\3.1.0\cores\MCUdude_corefiles/Print.h:63
      return write((const uint8_t *)buffer, size);
    }

    // default to zero, meaning "a single write may block"
    // should be overriden by subclasses with buffering
    virtual int availableForWrite() { return 0; }
     e0a:	90 e0       	ldi	r25, 0x00	; 0
     e0c:	80 e0       	ldi	r24, 0x00	; 0
     e0e:	08 95       	ret

00000e10 <beep()>:
_Z4beepv():
D:\KULIAH SEMESTER 4\LAB PROYEKSI ELEKTRONIKA\smart-drawer\firmware\atmega16\JAM DIGITAL\sketch_mar27a/sketch_mar27a.ino:486
  if (n < 10) lcd.print(F("0")); 
  lcd.print(n); 
}

void beep() { 
  digitalWrite(BUZZER, HIGH); 
     e10:	61 e0       	ldi	r22, 0x01	; 1
     e12:	8e e0       	ldi	r24, 0x0E	; 14
     e14:	0e 94 55 03 	call	0x6aa	; 0x6aa <digitalWrite>
D:\KULIAH SEMESTER 4\LAB PROYEKSI ELEKTRONIKA\smart-drawer\firmware\atmega16\JAM DIGITAL\sketch_mar27a/sketch_mar27a.ino:487
  delay(30); 
     e18:	6e e1       	ldi	r22, 0x1E	; 30
     e1a:	70 e0       	ldi	r23, 0x00	; 0
     e1c:	80 e0       	ldi	r24, 0x00	; 0
     e1e:	90 e0       	ldi	r25, 0x00	; 0
     e20:	0e 94 1a 04 	call	0x834	; 0x834 <delay>
D:\KULIAH SEMESTER 4\LAB PROYEKSI ELEKTRONIKA\smart-drawer\firmware\atmega16\JAM DIGITAL\sketch_mar27a/sketch_mar27a.ino:488
  digitalWrite(BUZZER, LOW); 
     e24:	60 e0       	ldi	r22, 0x00	; 0
     e26:	8e e0       	ldi	r24, 0x0E	; 14
     e28:	0c 94 55 03 	jmp	0x6aa	; 0x6aa <digitalWrite>

00000e2c <RTC_DS1307::adjust(DateTime const&) [clone .constprop.44]>:
_ZN10RTC_DS13076adjustERK8DateTime.constprop.44():
c:\Users\LENOVO\Documents\Arduino\libraries\RTClib\src/RTC_DS1307.cpp:37
/*!
    @brief  Set the date and time in the DS1307
    @param dt DateTime object containing the desired date/time
*/
/**************************************************************************/
void RTC_DS1307::adjust(const DateTime &dt) {
     e2c:	0f 93       	push	r16
     e2e:	1f 93       	push	r17
     e30:	cf 93       	push	r28
     e32:	df 93       	push	r29
     e34:	cd b7       	in	r28, 0x3d	; 61
     e36:	de b7       	in	r29, 0x3e	; 62
     e38:	28 97       	sbiw	r28, 0x08	; 8
     e3a:	0f b6       	in	r0, 0x3f	; 63
     e3c:	f8 94       	cli
     e3e:	de bf       	out	0x3e, r29	; 62
     e40:	0f be       	out	0x3f, r0	; 63
     e42:	cd bf       	out	0x3d, r28	; 61
     e44:	dc 01       	movw	r26, r24
c:\Users\LENOVO\Documents\Arduino\libraries\RTClib\src/RTC_DS1307.cpp:38
  uint8_t buffer[8] = {0,
     e46:	8e 01       	movw	r16, r28
     e48:	0f 5f       	subi	r16, 0xFF	; 255
     e4a:	1f 4f       	sbci	r17, 0xFF	; 255
     e4c:	86 e0       	ldi	r24, 0x06	; 6
     e4e:	f8 01       	movw	r30, r16
     e50:	11 92       	st	Z+, r1
     e52:	8a 95       	dec	r24
     e54:	e9 f7       	brne	.-6      	; 0xe50 <RTC_DS1307::adjust(DateTime const&) [clone .constprop.44]+0x24>
     e56:	15 96       	adiw	r26, 0x05	; 5
     e58:	3c 91       	ld	r19, X
     e5a:	15 97       	sbiw	r26, 0x05	; 5
_ZN7RTC_I2C7bin2bcdEh():
c:\Users\LENOVO\Documents\Arduino\libraries\RTClib\src/RTClib.h:340
  /*!
      @brief  Convert a binary value to BCD format for the RTC registers
      @param val Binary value
      @return BCD value
  */
  static uint8_t bin2bcd(uint8_t val) { return val + 6 * (val / 10); }
     e5c:	2a e0       	ldi	r18, 0x0A	; 10
     e5e:	83 2f       	mov	r24, r19
     e60:	62 2f       	mov	r22, r18
     e62:	0e 94 1b 19 	call	0x3236	; 0x3236 <__udivmodqi4>
     e66:	98 2f       	mov	r25, r24
     e68:	88 0f       	add	r24, r24
     e6a:	89 0f       	add	r24, r25
     e6c:	88 0f       	add	r24, r24
     e6e:	83 0f       	add	r24, r19
_ZN10RTC_DS13076adjustERK8DateTime.constprop.44():
c:\Users\LENOVO\Documents\Arduino\libraries\RTClib\src/RTC_DS1307.cpp:45
                       bin2bcd(dt.minute()),
                       bin2bcd(dt.hour()),
                       0,
                       bin2bcd(dt.day()),
                       bin2bcd(dt.month()),
                       bin2bcd(dt.year() - 2000U)};
     e70:	8a 83       	std	Y+2, r24	; 0x02
     e72:	14 96       	adiw	r26, 0x04	; 4
     e74:	3c 91       	ld	r19, X
     e76:	14 97       	sbiw	r26, 0x04	; 4
_ZN7RTC_I2C7bin2bcdEh():
c:\Users\LENOVO\Documents\Arduino\libraries\RTClib\src/RTClib.h:340
     e78:	83 2f       	mov	r24, r19
     e7a:	0e 94 1b 19 	call	0x3236	; 0x3236 <__udivmodqi4>
     e7e:	98 2f       	mov	r25, r24
     e80:	88 0f       	add	r24, r24
     e82:	89 0f       	add	r24, r25
     e84:	88 0f       	add	r24, r24
     e86:	83 0f       	add	r24, r19
_ZN10RTC_DS13076adjustERK8DateTime.constprop.44():
c:\Users\LENOVO\Documents\Arduino\libraries\RTClib\src/RTC_DS1307.cpp:45
     e88:	8b 83       	std	Y+3, r24	; 0x03
     e8a:	13 96       	adiw	r26, 0x03	; 3
     e8c:	3c 91       	ld	r19, X
     e8e:	13 97       	sbiw	r26, 0x03	; 3
_ZN7RTC_I2C7bin2bcdEh():
c:\Users\LENOVO\Documents\Arduino\libraries\RTClib\src/RTClib.h:340
     e90:	83 2f       	mov	r24, r19
     e92:	0e 94 1b 19 	call	0x3236	; 0x3236 <__udivmodqi4>
     e96:	98 2f       	mov	r25, r24
     e98:	88 0f       	add	r24, r24
     e9a:	89 0f       	add	r24, r25
     e9c:	88 0f       	add	r24, r24
     e9e:	83 0f       	add	r24, r19
_ZN10RTC_DS13076adjustERK8DateTime.constprop.44():
c:\Users\LENOVO\Documents\Arduino\libraries\RTClib\src/RTC_DS1307.cpp:45
     ea0:	8c 83       	std	Y+4, r24	; 0x04
     ea2:	12 96       	adiw	r26, 0x02	; 2
     ea4:	3c 91       	ld	r19, X
     ea6:	12 97       	sbiw	r26, 0x02	; 2
_ZN7RTC_I2C7bin2bcdEh():
c:\Users\LENOVO\Documents\Arduino\libraries\RTClib\src/RTClib.h:340
     ea8:	83 2f       	mov	r24, r19
     eaa:	0e 94 1b 19 	call	0x3236	; 0x3236 <__udivmodqi4>
     eae:	98 2f       	mov	r25, r24
     eb0:	88 0f       	add	r24, r24
     eb2:	89 0f       	add	r24, r25
     eb4:	88 0f       	add	r24, r24
     eb6:	83 0f       	add	r24, r19
_ZN10RTC_DS13076adjustERK8DateTime.constprop.44():
c:\Users\LENOVO\Documents\Arduino\libraries\RTClib\src/RTC_DS1307.cpp:45
     eb8:	8e 83       	std	Y+6, r24	; 0x06
     eba:	11 96       	adiw	r26, 0x01	; 1
     ebc:	3c 91       	ld	r19, X
     ebe:	11 97       	sbiw	r26, 0x01	; 1
_ZN7RTC_I2C7bin2bcdEh():
c:\Users\LENOVO\Documents\Arduino\libraries\RTClib\src/RTClib.h:340
     ec0:	83 2f       	mov	r24, r19
     ec2:	0e 94 1b 19 	call	0x3236	; 0x3236 <__udivmodqi4>
     ec6:	98 2f       	mov	r25, r24
     ec8:	88 0f       	add	r24, r24
     eca:	89 0f       	add	r24, r25
     ecc:	88 0f       	add	r24, r24
     ece:	83 0f       	add	r24, r19
_ZN10RTC_DS13076adjustERK8DateTime.constprop.44():
c:\Users\LENOVO\Documents\Arduino\libraries\RTClib\src/RTC_DS1307.cpp:45
     ed0:	8f 83       	std	Y+7, r24	; 0x07
     ed2:	3c 91       	ld	r19, X
_ZN7RTC_I2C7bin2bcdEh():
c:\Users\LENOVO\Documents\Arduino\libraries\RTClib\src/RTClib.h:340
     ed4:	83 2f       	mov	r24, r19
     ed6:	0e 94 1b 19 	call	0x3236	; 0x3236 <__udivmodqi4>
     eda:	98 2f       	mov	r25, r24
     edc:	88 0f       	add	r24, r24
     ede:	89 0f       	add	r24, r25
     ee0:	88 0f       	add	r24, r24
     ee2:	83 0f       	add	r24, r19
_ZN10RTC_DS13076adjustERK8DateTime.constprop.44():
c:\Users\LENOVO\Documents\Arduino\libraries\RTClib\src/RTC_DS1307.cpp:45
     ee4:	88 87       	std	Y+8, r24	; 0x08
c:\Users\LENOVO\Documents\Arduino\libraries\RTClib\src/RTC_DS1307.cpp:46
  i2c_dev->write(buffer, 8);
     ee6:	80 91 10 02 	lds	r24, 0x0210	; 0x800210 <rtc>
     eea:	90 91 11 02 	lds	r25, 0x0211	; 0x800211 <rtc+0x1>
write():
c:\Users\LENOVO\Documents\Arduino\libraries\Adafruit_BusIO/Adafruit_I2CDevice.cpp:105
 *    @return True if write was successful, otherwise false.
 */
bool Adafruit_I2CDevice::write(const uint8_t *buffer, size_t len, bool stop,
                               const uint8_t *prefix_buffer,
                               size_t prefix_len) {
  if ((len + prefix_len) > maxBufferSize()) {
     eee:	fc 01       	movw	r30, r24
     ef0:	24 81       	ldd	r18, Z+4	; 0x04
     ef2:	35 81       	ldd	r19, Z+5	; 0x05
     ef4:	28 30       	cpi	r18, 0x08	; 8
     ef6:	31 05       	cpc	r19, r1
     ef8:	80 f0       	brcs	.+32     	; 0xf1a <RTC_DS1307::adjust(DateTime const&) [clone .constprop.44]+0xee>
c:\Users\LENOVO\Documents\Arduino\libraries\Adafruit_BusIO/Adafruit_I2CDevice.cpp:115
    DEBUG_SERIAL.println(F("\tI2CDevice could not write such a large buffer"));
#endif
    return false;
  }

  _wire->beginTransmission(_addr);
     efa:	20 81       	ld	r18, Z
beginTransmission():
C:\Users\LENOVO\AppData\Local\Arduino15\packages\MightyCore\hardware\avr\3.1.0\libraries\Wire\src/Wire.cpp:196
}

void TwoWire::beginTransmission(uint8_t address)
{
  // indicate that we are transmitting
  transmitting = 1;
     efc:	31 e0       	ldi	r19, 0x01	; 1
     efe:	30 93 1b 02 	sts	0x021B, r19	; 0x80021b <TwoWire::transmitting>
C:\Users\LENOVO\AppData\Local\Arduino15\packages\MightyCore\hardware\avr\3.1.0\libraries\Wire\src/Wire.cpp:198
  // set address of targeted slave
  txAddress = address;
     f02:	20 93 3d 02 	sts	0x023D, r18	; 0x80023d <TwoWire::txAddress>
C:\Users\LENOVO\AppData\Local\Arduino15\packages\MightyCore\hardware\avr\3.1.0\libraries\Wire\src/Wire.cpp:200
  // reset tx buffer iterator vars
  txBufferIndex = 0;
     f06:	10 92 1c 02 	sts	0x021C, r1	; 0x80021c <TwoWire::txBufferIndex>
C:\Users\LENOVO\AppData\Local\Arduino15\packages\MightyCore\hardware\avr\3.1.0\libraries\Wire\src/Wire.cpp:201
  txBufferLength = 0;
     f0a:	10 92 3e 02 	sts	0x023E, r1	; 0x80023e <TwoWire::txBufferLength>
write():
     f0e:	21 e0       	ldi	r18, 0x01	; 1
     f10:	48 e0       	ldi	r20, 0x08	; 8
     f12:	50 e0       	ldi	r21, 0x00	; 0
     f14:	b8 01       	movw	r22, r16
     f16:	0e 94 83 05 	call	0xb06	; 0xb06 <Adafruit_I2CDevice::write(unsigned char const*, unsigned int, bool, unsigned char const*, unsigned int) [clone .part.1]>
_ZN10RTC_DS13076adjustERK8DateTime.constprop.44():
c:\Users\LENOVO\Documents\Arduino\libraries\RTClib\src/RTC_DS1307.cpp:47
}
     f1a:	28 96       	adiw	r28, 0x08	; 8
     f1c:	0f b6       	in	r0, 0x3f	; 63
     f1e:	f8 94       	cli
     f20:	de bf       	out	0x3e, r29	; 62
     f22:	0f be       	out	0x3f, r0	; 63
     f24:	cd bf       	out	0x3d, r28	; 61
     f26:	df 91       	pop	r29
     f28:	cf 91       	pop	r28
     f2a:	1f 91       	pop	r17
     f2c:	0f 91       	pop	r16
     f2e:	08 95       	ret

00000f30 <Print::write(char const*) [clone .part.2]>:
_ZN5Print5writeEPKc.part.2():
C:\Users\LENOVO\AppData\Local\Arduino15\packages\MightyCore\hardware\avr\3.1.0\cores\MCUdude_corefiles/Print.h:54
    void clearWriteError() { setWriteError(0); }

    virtual size_t write(uint8_t) = 0;
    size_t write(const char *str) {
      if (str == NULL) return 0;
      return write((const uint8_t *)str, strlen(str));
     f30:	fb 01       	movw	r30, r22
     f32:	01 90       	ld	r0, Z+
     f34:	00 20       	and	r0, r0
     f36:	e9 f7       	brne	.-6      	; 0xf32 <Print::write(char const*) [clone .part.2]+0x2>
     f38:	31 97       	sbiw	r30, 0x01	; 1
     f3a:	af 01       	movw	r20, r30
     f3c:	46 1b       	sub	r20, r22
     f3e:	57 0b       	sbc	r21, r23
     f40:	dc 01       	movw	r26, r24
     f42:	ed 91       	ld	r30, X+
     f44:	fc 91       	ld	r31, X
     f46:	02 80       	ldd	r0, Z+2	; 0x02
     f48:	f3 81       	ldd	r31, Z+3	; 0x03
     f4a:	e0 2d       	mov	r30, r0
     f4c:	09 94       	ijmp

00000f4e <Print::printNumber(unsigned long, unsigned char)>:
_ZN5Print11printNumberEmh():
C:\Users\LENOVO\AppData\Local\Arduino15\packages\MightyCore\hardware\avr\3.1.0\cores\MCUdude_corefiles/Print.cpp:233
}

// Private Methods /////////////////////////////////////////////////////////////

size_t Print::printNumber(unsigned long n, uint8_t base)
{
     f4e:	8f 92       	push	r8
     f50:	9f 92       	push	r9
     f52:	af 92       	push	r10
     f54:	bf 92       	push	r11
     f56:	ef 92       	push	r14
     f58:	ff 92       	push	r15
     f5a:	0f 93       	push	r16
     f5c:	1f 93       	push	r17
     f5e:	cf 93       	push	r28
     f60:	df 93       	push	r29
     f62:	cd b7       	in	r28, 0x3d	; 61
     f64:	de b7       	in	r29, 0x3e	; 62
     f66:	a1 97       	sbiw	r28, 0x21	; 33
     f68:	0f b6       	in	r0, 0x3f	; 63
     f6a:	f8 94       	cli
     f6c:	de bf       	out	0x3e, r29	; 62
     f6e:	0f be       	out	0x3f, r0	; 63
     f70:	cd bf       	out	0x3d, r28	; 61
     f72:	7c 01       	movw	r14, r24
     f74:	fa 01       	movw	r30, r20
     f76:	cb 01       	movw	r24, r22
C:\Users\LENOVO\AppData\Local\Arduino15\packages\MightyCore\hardware\avr\3.1.0\cores\MCUdude_corefiles/Print.cpp:237
  char buf[8 * sizeof(long) + 1]; // Assumes 8-bit chars plus zero byte.
  char *str = &buf[sizeof(buf) - 1];

  *str = '\0';
     f78:	19 a2       	std	Y+33, r1	; 0x21
C:\Users\LENOVO\AppData\Local\Arduino15\packages\MightyCore\hardware\avr\3.1.0\cores\MCUdude_corefiles/Print.cpp:240

  // prevent crash if called with base == 1
  if (base < 2) base = 10;
     f7a:	22 30       	cpi	r18, 0x02	; 2
     f7c:	08 f4       	brcc	.+2      	; 0xf80 <Print::printNumber(unsigned long, unsigned char)+0x32>
     f7e:	2a e0       	ldi	r18, 0x0A	; 10
     f80:	8e 01       	movw	r16, r28
     f82:	0f 5d       	subi	r16, 0xDF	; 223
     f84:	1f 4f       	sbci	r17, 0xFF	; 255
C:\Users\LENOVO\AppData\Local\Arduino15\packages\MightyCore\hardware\avr\3.1.0\cores\MCUdude_corefiles/Print.cpp:243

  do {
    char c = n % base;
     f86:	82 2e       	mov	r8, r18
     f88:	91 2c       	mov	r9, r1
     f8a:	b1 2c       	mov	r11, r1
     f8c:	a1 2c       	mov	r10, r1
     f8e:	bf 01       	movw	r22, r30
     f90:	a5 01       	movw	r20, r10
     f92:	94 01       	movw	r18, r8
     f94:	0e 94 4f 19 	call	0x329e	; 0x329e <__udivmodsi4>
C:\Users\LENOVO\AppData\Local\Arduino15\packages\MightyCore\hardware\avr\3.1.0\cores\MCUdude_corefiles/Print.cpp:244
    n /= base;
     f98:	f9 01       	movw	r30, r18
     f9a:	ca 01       	movw	r24, r20
C:\Users\LENOVO\AppData\Local\Arduino15\packages\MightyCore\hardware\avr\3.1.0\cores\MCUdude_corefiles/Print.cpp:246

    *--str = c < 10 ? c + '0' : c + 'A' - 10;
     f9c:	6a 30       	cpi	r22, 0x0A	; 10
     f9e:	0c f5       	brge	.+66     	; 0xfe2 <Print::printNumber(unsigned long, unsigned char)+0x94>
     fa0:	60 5d       	subi	r22, 0xD0	; 208
     fa2:	d8 01       	movw	r26, r16
     fa4:	6e 93       	st	-X, r22
     fa6:	8d 01       	movw	r16, r26
C:\Users\LENOVO\AppData\Local\Arduino15\packages\MightyCore\hardware\avr\3.1.0\cores\MCUdude_corefiles/Print.cpp:247
  } while(n);
     fa8:	23 2b       	or	r18, r19
     faa:	24 2b       	or	r18, r20
     fac:	25 2b       	or	r18, r21
     fae:	79 f7       	brne	.-34     	; 0xf8e <Print::printNumber(unsigned long, unsigned char)+0x40>
C:\Users\LENOVO\AppData\Local\Arduino15\packages\MightyCore\hardware\avr\3.1.0\cores\MCUdude_corefiles/Print.h:53
    int getWriteError() { return write_error; }
    void clearWriteError() { setWriteError(0); }

    virtual size_t write(uint8_t) = 0;
    size_t write(const char *str) {
      if (str == NULL) return 0;
     fb0:	90 e0       	ldi	r25, 0x00	; 0
     fb2:	80 e0       	ldi	r24, 0x00	; 0
write():
     fb4:	10 97       	sbiw	r26, 0x00	; 0
     fb6:	21 f0       	breq	.+8      	; 0xfc0 <Print::printNumber(unsigned long, unsigned char)+0x72>
     fb8:	bd 01       	movw	r22, r26
     fba:	c7 01       	movw	r24, r14
     fbc:	0e 94 98 07 	call	0xf30	; 0xf30 <Print::write(char const*) [clone .part.2]>
_ZN5Print11printNumberEmh():
C:\Users\LENOVO\AppData\Local\Arduino15\packages\MightyCore\hardware\avr\3.1.0\cores\MCUdude_corefiles/Print.cpp:250

  return write(str);
}
     fc0:	a1 96       	adiw	r28, 0x21	; 33
     fc2:	0f b6       	in	r0, 0x3f	; 63
     fc4:	f8 94       	cli
     fc6:	de bf       	out	0x3e, r29	; 62
     fc8:	0f be       	out	0x3f, r0	; 63
     fca:	cd bf       	out	0x3d, r28	; 61
     fcc:	df 91       	pop	r29
     fce:	cf 91       	pop	r28
     fd0:	1f 91       	pop	r17
     fd2:	0f 91       	pop	r16
     fd4:	ff 90       	pop	r15
     fd6:	ef 90       	pop	r14
     fd8:	bf 90       	pop	r11
     fda:	af 90       	pop	r10
     fdc:	9f 90       	pop	r9
     fde:	8f 90       	pop	r8
     fe0:	08 95       	ret
C:\Users\LENOVO\AppData\Local\Arduino15\packages\MightyCore\hardware\avr\3.1.0\cores\MCUdude_corefiles/Print.cpp:246

  do {
    char c = n % base;
    n /= base;

    *--str = c < 10 ? c + '0' : c + 'A' - 10;
     fe2:	69 5c       	subi	r22, 0xC9	; 201
     fe4:	de cf       	rjmp	.-68     	; 0xfa2 <Print::printNumber(unsigned long, unsigned char)+0x54>

00000fe6 <Print::print(unsigned char, int) [clone .constprop.37]>:
_ZN5Print5printEhi.constprop.37():
C:\Users\LENOVO\AppData\Local\Arduino15\packages\MightyCore\hardware\avr\3.1.0\cores\MCUdude_corefiles/Print.cpp:74
  return write(c);
}

size_t Print::print(unsigned char b, int base)
{
  return print((unsigned long) b, base);
     fe6:	46 2f       	mov	r20, r22
     fe8:	50 e0       	ldi	r21, 0x00	; 0
     fea:	70 e0       	ldi	r23, 0x00	; 0
     fec:	60 e0       	ldi	r22, 0x00	; 0
print():
C:\Users\LENOVO\AppData\Local\Arduino15\packages\MightyCore\hardware\avr\3.1.0\cores\MCUdude_corefiles/Print.cpp:106
}

size_t Print::print(unsigned long n, int base)
{
  if (base == 0) return write(n);
  else return printNumber(n, base);
     fee:	2a e0       	ldi	r18, 0x0A	; 10
     ff0:	0c 94 a7 07 	jmp	0xf4e	; 0xf4e <Print::printNumber(unsigned long, unsigned char)>

00000ff4 <Print::println(unsigned char, int) [clone .constprop.32]>:
_ZN5Print7printlnEhi.constprop.32():
C:\Users\LENOVO\AppData\Local\Arduino15\packages\MightyCore\hardware\avr\3.1.0\cores\MCUdude_corefiles/Print.cpp:152
  size_t n = print(c);
  n += println();
  return n;
}

size_t Print::println(unsigned char b, int base)
     ff4:	cf 93       	push	r28
     ff6:	df 93       	push	r29
C:\Users\LENOVO\AppData\Local\Arduino15\packages\MightyCore\hardware\avr\3.1.0\cores\MCUdude_corefiles/Print.cpp:154
{
  size_t n = print(b, base);
     ff8:	68 2f       	mov	r22, r24
     ffa:	8f e3       	ldi	r24, 0x3F	; 63
     ffc:	92 e0       	ldi	r25, 0x02	; 2
     ffe:	0e 94 f3 07 	call	0xfe6	; 0xfe6 <Print::print(unsigned char, int) [clone .constprop.37]>
    1002:	ec 01       	movw	r28, r24
write():
    1004:	68 ec       	ldi	r22, 0xC8	; 200
    1006:	70 e0       	ldi	r23, 0x00	; 0
    1008:	8f e3       	ldi	r24, 0x3F	; 63
    100a:	92 e0       	ldi	r25, 0x02	; 2
    100c:	0e 94 98 07 	call	0xf30	; 0xf30 <Print::write(char const*) [clone .part.2]>
_ZN5Print7printlnEhi.constprop.32():
C:\Users\LENOVO\AppData\Local\Arduino15\packages\MightyCore\hardware\avr\3.1.0\cores\MCUdude_corefiles/Print.cpp:157
  n += println();
  return n;
}
    1010:	8c 0f       	add	r24, r28
    1012:	9d 1f       	adc	r25, r29
    1014:	df 91       	pop	r29
    1016:	cf 91       	pop	r28
    1018:	08 95       	ret

0000101a <tampil_angka_lcd(unsigned char)>:
_Z16tampil_angka_lcdh():
D:\KULIAH SEMESTER 4\LAB PROYEKSI ELEKTRONIKA\smart-drawer\firmware\atmega16\JAM DIGITAL\sketch_mar27a/sketch_mar27a.ino:480
  static int t[] = {0, 3, 2, 5, 0, 3, 5, 1, 4, 6, 2, 4};
  if (m < 3) th -= 1;
  return (th + th/4 - th/100 + th/400 + t[m-1] + d) % 7 ;
}

void tampil_angka_lcd(unsigned char n) { 
    101a:	cf 93       	push	r28
    101c:	c8 2f       	mov	r28, r24
D:\KULIAH SEMESTER 4\LAB PROYEKSI ELEKTRONIKA\smart-drawer\firmware\atmega16\JAM DIGITAL\sketch_mar27a/sketch_mar27a.ino:481
  if (n < 10) lcd.print(F("0")); 
    101e:	8a 30       	cpi	r24, 0x0A	; 10
    1020:	30 f4       	brcc	.+12     	; 0x102e <tampil_angka_lcd(unsigned char)+0x14>
    1022:	6e ec       	ldi	r22, 0xCE	; 206
    1024:	72 e0       	ldi	r23, 0x02	; 2
    1026:	8e ef       	ldi	r24, 0xFE	; 254
    1028:	92 e0       	ldi	r25, 0x02	; 2
    102a:	0e 94 53 04 	call	0x8a6	; 0x8a6 <Print::print(__FlashStringHelper const*)>
D:\KULIAH SEMESTER 4\LAB PROYEKSI ELEKTRONIKA\smart-drawer\firmware\atmega16\JAM DIGITAL\sketch_mar27a/sketch_mar27a.ino:482
  lcd.print(n); 
    102e:	6c 2f       	mov	r22, r28
    1030:	8e ef       	ldi	r24, 0xFE	; 254
    1032:	92 e0       	ldi	r25, 0x02	; 2
D:\KULIAH SEMESTER 4\LAB PROYEKSI ELEKTRONIKA\smart-drawer\firmware\atmega16\JAM DIGITAL\sketch_mar27a/sketch_mar27a.ino:483
}
    1034:	cf 91       	pop	r28
D:\KULIAH SEMESTER 4\LAB PROYEKSI ELEKTRONIKA\smart-drawer\firmware\atmega16\JAM DIGITAL\sketch_mar27a/sketch_mar27a.ino:482
  return (th + th/4 - th/100 + th/400 + t[m-1] + d) % 7 ;
}

void tampil_angka_lcd(unsigned char n) { 
  if (n < 10) lcd.print(F("0")); 
  lcd.print(n); 
    1036:	0c 94 f3 07 	jmp	0xfe6	; 0xfe6 <Print::print(unsigned char, int) [clone .constprop.37]>

0000103a <update_display()>:
_Z14update_displayv():
D:\KULIAH SEMESTER 4\LAB PROYEKSI ELEKTRONIKA\smart-drawer\firmware\atmega16\JAM DIGITAL\sketch_mar27a/sketch_mar27a.ino:339
    }
  }
  // ===================================================
}

void update_display() {
    103a:	cf 92       	push	r12
    103c:	df 92       	push	r13
    103e:	ef 92       	push	r14
    1040:	ff 92       	push	r15
    1042:	cf 93       	push	r28
    1044:	df 93       	push	r29
    1046:	80 91 ee 01 	lds	r24, 0x01EE	; 0x8001ee <menu_aktif>
D:\KULIAH SEMESTER 4\LAB PROYEKSI ELEKTRONIKA\smart-drawer\firmware\atmega16\JAM DIGITAL\sketch_mar27a/sketch_mar27a.ino:340
  if (menu_pos == 0 && menu_aktif == 0) {
    104a:	90 91 ef 01 	lds	r25, 0x01EF	; 0x8001ef <menu_pos>
    104e:	91 11       	cpse	r25, r1
    1050:	e2 c0       	rjmp	.+452    	; 0x1216 <update_display()+0x1dc>
    1052:	81 11       	cpse	r24, r1
    1054:	16 c1       	rjmp	.+556    	; 0x1282 <update_display()+0x248>
D:\KULIAH SEMESTER 4\LAB PROYEKSI ELEKTRONIKA\smart-drawer\firmware\atmega16\JAM DIGITAL\sketch_mar27a/sketch_mar27a.ino:341
    display_timer++; if (display_timer > 131) { display_timer = 0; lcd.clear(); }
    1056:	80 91 76 01 	lds	r24, 0x0176	; 0x800176 <display_timer>
    105a:	8f 5f       	subi	r24, 0xFF	; 255
    105c:	84 38       	cpi	r24, 0x84	; 132
    105e:	90 f5       	brcc	.+100    	; 0x10c4 <update_display()+0x8a>
    1060:	80 93 76 01 	sts	0x0176, r24	; 0x800176 <display_timer>
D:\KULIAH SEMESTER 4\LAB PROYEKSI ELEKTRONIKA\smart-drawer\firmware\atmega16\JAM DIGITAL\sketch_mar27a/sketch_mar27a.ino:342
    if (display_timer <= 120) {
    1064:	20 91 76 01 	lds	r18, 0x0176	; 0x800176 <display_timer>
    1068:	29 37       	cpi	r18, 0x79	; 121
    106a:	08 f0       	brcs	.+2      	; 0x106e <update_display()+0x34>
    106c:	8f c0       	rjmp	.+286    	; 0x118c <update_display()+0x152>
D:\KULIAH SEMESTER 4\LAB PROYEKSI ELEKTRONIKA\smart-drawer\firmware\atmega16\JAM DIGITAL\sketch_mar27a/sketch_mar27a.ino:343
      if (display_timer == 1) lcd.clear();
    106e:	21 30       	cpi	r18, 0x01	; 1
    1070:	11 f4       	brne	.+4      	; 0x1076 <update_display()+0x3c>
    1072:	0e 94 f5 06 	call	0xdea	; 0xdea <LiquidCrystal_I2C::clear() [clone .constprop.46]>
D:\KULIAH SEMESTER 4\LAB PROYEKSI ELEKTRONIKA\smart-drawer\firmware\atmega16\JAM DIGITAL\sketch_mar27a/sketch_mar27a.ino:344
      lcd.setCursor(0, 0);
    1076:	60 e0       	ldi	r22, 0x00	; 0
    1078:	80 e0       	ldi	r24, 0x00	; 0
    107a:	0e 94 c2 06 	call	0xd84	; 0xd84 <LiquidCrystal_I2C::setCursor(unsigned char, unsigned char) [clone .constprop.47]>
D:\KULIAH SEMESTER 4\LAB PROYEKSI ELEKTRONIKA\smart-drawer\firmware\atmega16\JAM DIGITAL\sketch_mar27a/sketch_mar27a.ino:345
      strcpy_P(buf, nama_hari[hari]);
    107e:	60 91 f9 01 	lds	r22, 0x01F9	; 0x8001f9 <hari>
    1082:	8a e0       	ldi	r24, 0x0A	; 10
    1084:	68 9f       	mul	r22, r24
    1086:	b0 01       	movw	r22, r0
    1088:	11 24       	eor	r1, r1
    108a:	68 57       	subi	r22, 0x78	; 120
    108c:	7d 4f       	sbci	r23, 0xFD	; 253
    108e:	8c ed       	ldi	r24, 0xDC	; 220
    1090:	91 e0       	ldi	r25, 0x01	; 1
    1092:	0e 94 bc 18 	call	0x3178	; 0x3178 <strcpy_P>
write():
    1096:	6c ed       	ldi	r22, 0xDC	; 220
    1098:	71 e0       	ldi	r23, 0x01	; 1
    109a:	8e ef       	ldi	r24, 0xFE	; 254
    109c:	92 e0       	ldi	r25, 0x02	; 2
    109e:	0e 94 98 07 	call	0xf30	; 0xf30 <Print::write(char const*) [clone .part.2]>
_Z14update_displayv():
D:\KULIAH SEMESTER 4\LAB PROYEKSI ELEKTRONIKA\smart-drawer\firmware\atmega16\JAM DIGITAL\sketch_mar27a/sketch_mar27a.ino:348
      lcd.print(buf);
      // hitung panjang kata
      int len = strlen(buf);
    10a2:	cc ed       	ldi	r28, 0xDC	; 220
    10a4:	d1 e0       	ldi	r29, 0x01	; 1
    10a6:	09 90       	ld	r0, Y+
    10a8:	00 20       	and	r0, r0
    10aa:	e9 f7       	brne	.-6      	; 0x10a6 <update_display()+0x6c>
    10ac:	cd 5d       	subi	r28, 0xDD	; 221
    10ae:	d1 40       	sbci	r29, 0x01	; 1
D:\KULIAH SEMESTER 4\LAB PROYEKSI ELEKTRONIKA\smart-drawer\firmware\atmega16\JAM DIGITAL\sketch_mar27a/sketch_mar27a.ino:350
      // total mau 8 karakter (biar rapi)
      for(int i = len; i < 8; i++) {
    10b0:	c8 30       	cpi	r28, 0x08	; 8
    10b2:	d1 05       	cpc	r29, r1
    10b4:	64 f4       	brge	.+24     	; 0x10ce <update_display()+0x94>
D:\KULIAH SEMESTER 4\LAB PROYEKSI ELEKTRONIKA\smart-drawer\firmware\atmega16\JAM DIGITAL\sketch_mar27a/sketch_mar27a.ino:351
        lcd.print(' ');
    10b6:	60 e2       	ldi	r22, 0x20	; 32
    10b8:	8e ef       	ldi	r24, 0xFE	; 254
    10ba:	92 e0       	ldi	r25, 0x02	; 2
    10bc:	0e 94 4c 04 	call	0x898	; 0x898 <Print::print(char)>
D:\KULIAH SEMESTER 4\LAB PROYEKSI ELEKTRONIKA\smart-drawer\firmware\atmega16\JAM DIGITAL\sketch_mar27a/sketch_mar27a.ino:350
      strcpy_P(buf, nama_hari[hari]);
      lcd.print(buf);
      // hitung panjang kata
      int len = strlen(buf);
      // total mau 8 karakter (biar rapi)
      for(int i = len; i < 8; i++) {
    10c0:	21 96       	adiw	r28, 0x01	; 1
    10c2:	f6 cf       	rjmp	.-20     	; 0x10b0 <update_display()+0x76>
D:\KULIAH SEMESTER 4\LAB PROYEKSI ELEKTRONIKA\smart-drawer\firmware\atmega16\JAM DIGITAL\sketch_mar27a/sketch_mar27a.ino:341
  // ===================================================
}

void update_display() {
  if (menu_pos == 0 && menu_aktif == 0) {
    display_timer++; if (display_timer > 131) { display_timer = 0; lcd.clear(); }
    10c4:	10 92 76 01 	sts	0x0176, r1	; 0x800176 <display_timer>
    10c8:	0e 94 f5 06 	call	0xdea	; 0xdea <LiquidCrystal_I2C::clear() [clone .constprop.46]>
    10cc:	cb cf       	rjmp	.-106    	; 0x1064 <update_display()+0x2a>
D:\KULIAH SEMESTER 4\LAB PROYEKSI ELEKTRONIKA\smart-drawer\firmware\atmega16\JAM DIGITAL\sketch_mar27a/sketch_mar27a.ino:353
      int len = strlen(buf);
      // total mau 8 karakter (biar rapi)
      for(int i = len; i < 8; i++) {
        lcd.print(' ');
      }
      tampil_angka_lcd(tgl);
    10ce:	80 91 fd 01 	lds	r24, 0x01FD	; 0x8001fd <tgl>
    10d2:	0e 94 0d 08 	call	0x101a	; 0x101a <tampil_angka_lcd(unsigned char)>
D:\KULIAH SEMESTER 4\LAB PROYEKSI ELEKTRONIKA\smart-drawer\firmware\atmega16\JAM DIGITAL\sketch_mar27a/sketch_mar27a.ino:354
      lcd.print(F("/"));
    10d6:	66 e8       	ldi	r22, 0x86	; 134
    10d8:	72 e0       	ldi	r23, 0x02	; 2
    10da:	8e ef       	ldi	r24, 0xFE	; 254
    10dc:	92 e0       	ldi	r25, 0x02	; 2
    10de:	0e 94 53 04 	call	0x8a6	; 0x8a6 <Print::print(__FlashStringHelper const*)>
D:\KULIAH SEMESTER 4\LAB PROYEKSI ELEKTRONIKA\smart-drawer\firmware\atmega16\JAM DIGITAL\sketch_mar27a/sketch_mar27a.ino:355
      tampil_angka_lcd(bln);
    10e2:	80 91 fc 01 	lds	r24, 0x01FC	; 0x8001fc <bln>
    10e6:	0e 94 0d 08 	call	0x101a	; 0x101a <tampil_angka_lcd(unsigned char)>
D:\KULIAH SEMESTER 4\LAB PROYEKSI ELEKTRONIKA\smart-drawer\firmware\atmega16\JAM DIGITAL\sketch_mar27a/sketch_mar27a.ino:356
      lcd.print(F("/"));
    10ea:	64 e8       	ldi	r22, 0x84	; 132
    10ec:	72 e0       	ldi	r23, 0x02	; 2
    10ee:	8e ef       	ldi	r24, 0xFE	; 254
    10f0:	92 e0       	ldi	r25, 0x02	; 2
    10f2:	0e 94 53 04 	call	0x8a6	; 0x8a6 <Print::print(__FlashStringHelper const*)>
D:\KULIAH SEMESTER 4\LAB PROYEKSI ELEKTRONIKA\smart-drawer\firmware\atmega16\JAM DIGITAL\sketch_mar27a/sketch_mar27a.ino:357
      tampil_angka_lcd(thn);
    10f6:	80 91 fa 01 	lds	r24, 0x01FA	; 0x8001fa <thn>
    10fa:	0e 94 0d 08 	call	0x101a	; 0x101a <tampil_angka_lcd(unsigned char)>
D:\KULIAH SEMESTER 4\LAB PROYEKSI ELEKTRONIKA\smart-drawer\firmware\atmega16\JAM DIGITAL\sketch_mar27a/sketch_mar27a.ino:358
      lcd.setCursor(0, 1);
    10fe:	61 e0       	ldi	r22, 0x01	; 1
    1100:	80 e0       	ldi	r24, 0x00	; 0
    1102:	0e 94 c2 06 	call	0xd84	; 0xd84 <LiquidCrystal_I2C::setCursor(unsigned char, unsigned char) [clone .constprop.47]>
D:\KULIAH SEMESTER 4\LAB PROYEKSI ELEKTRONIKA\smart-drawer\firmware\atmega16\JAM DIGITAL\sketch_mar27a/sketch_mar27a.ino:359
      tampil_angka_lcd(jam); lcd.print(detik % 2 == 0 ? F(":") : F(" "));
    1106:	80 91 00 02 	lds	r24, 0x0200	; 0x800200 <jam>
    110a:	0e 94 0d 08 	call	0x101a	; 0x101a <tampil_angka_lcd(unsigned char)>
    110e:	80 91 fe 01 	lds	r24, 0x01FE	; 0x8001fe <detik>
    1112:	62 e8       	ldi	r22, 0x82	; 130
    1114:	72 e0       	ldi	r23, 0x02	; 2
    1116:	80 ff       	sbrs	r24, 0
    1118:	02 c0       	rjmp	.+4      	; 0x111e <update_display()+0xe4>
    111a:	60 e8       	ldi	r22, 0x80	; 128
    111c:	72 e0       	ldi	r23, 0x02	; 2
    111e:	8e ef       	ldi	r24, 0xFE	; 254
    1120:	92 e0       	ldi	r25, 0x02	; 2
    1122:	0e 94 53 04 	call	0x8a6	; 0x8a6 <Print::print(__FlashStringHelper const*)>
D:\KULIAH SEMESTER 4\LAB PROYEKSI ELEKTRONIKA\smart-drawer\firmware\atmega16\JAM DIGITAL\sketch_mar27a/sketch_mar27a.ino:360
      tampil_angka_lcd(menit); lcd.print(detik % 2 == 0 ? F(":") : F(" "));
    1126:	80 91 ff 01 	lds	r24, 0x01FF	; 0x8001ff <menit>
    112a:	0e 94 0d 08 	call	0x101a	; 0x101a <tampil_angka_lcd(unsigned char)>
    112e:	80 91 fe 01 	lds	r24, 0x01FE	; 0x8001fe <detik>
    1132:	6e e7       	ldi	r22, 0x7E	; 126
    1134:	72 e0       	ldi	r23, 0x02	; 2
    1136:	80 ff       	sbrs	r24, 0
    1138:	02 c0       	rjmp	.+4      	; 0x113e <update_display()+0x104>
    113a:	6c e7       	ldi	r22, 0x7C	; 124
    113c:	72 e0       	ldi	r23, 0x02	; 2
    113e:	8e ef       	ldi	r24, 0xFE	; 254
    1140:	92 e0       	ldi	r25, 0x02	; 2
    1142:	0e 94 53 04 	call	0x8a6	; 0x8a6 <Print::print(__FlashStringHelper const*)>
D:\KULIAH SEMESTER 4\LAB PROYEKSI ELEKTRONIKA\smart-drawer\firmware\atmega16\JAM DIGITAL\sketch_mar27a/sketch_mar27a.ino:361
      tampil_angka_lcd(detik);
    1146:	80 91 fe 01 	lds	r24, 0x01FE	; 0x8001fe <detik>
    114a:	0e 94 0d 08 	call	0x101a	; 0x101a <tampil_angka_lcd(unsigned char)>
D:\KULIAH SEMESTER 4\LAB PROYEKSI ELEKTRONIKA\smart-drawer\firmware\atmega16\JAM DIGITAL\sketch_mar27a/sketch_mar27a.ino:362
      if (alm_on) { lcd.print(F(" A")); tampil_angka_lcd(alm_h); lcd.print(F(":")); tampil_angka_lcd(alm_m); }
    114e:	80 91 f4 01 	lds	r24, 0x01F4	; 0x8001f4 <alm_on>
    1152:	88 23       	and	r24, r24
    1154:	09 f4       	brne	.+2      	; 0x1158 <update_display()+0x11e>
    1156:	30 c1       	rjmp	.+608    	; 0x13b8 <update_display()+0x37e>
    1158:	69 e7       	ldi	r22, 0x79	; 121
    115a:	72 e0       	ldi	r23, 0x02	; 2
    115c:	8e ef       	ldi	r24, 0xFE	; 254
    115e:	92 e0       	ldi	r25, 0x02	; 2
    1160:	0e 94 53 04 	call	0x8a6	; 0x8a6 <Print::print(__FlashStringHelper const*)>
    1164:	80 91 f8 01 	lds	r24, 0x01F8	; 0x8001f8 <alm_h>
    1168:	0e 94 0d 08 	call	0x101a	; 0x101a <tampil_angka_lcd(unsigned char)>
    116c:	67 e7       	ldi	r22, 0x77	; 119
    116e:	72 e0       	ldi	r23, 0x02	; 2
    1170:	8e ef       	ldi	r24, 0xFE	; 254
    1172:	92 e0       	ldi	r25, 0x02	; 2
    1174:	0e 94 53 04 	call	0x8a6	; 0x8a6 <Print::print(__FlashStringHelper const*)>
    1178:	80 91 f7 01 	lds	r24, 0x01F7	; 0x8001f7 <alm_m>
D:\KULIAH SEMESTER 4\LAB PROYEKSI ELEKTRONIKA\smart-drawer\firmware\atmega16\JAM DIGITAL\sketch_mar27a/sketch_mar27a.ino:394
    else if (menu_pos == 1 || menu_pos == 6) { lcd.print(F("JAM: ")); tampil_angka_lcd(edit_val); }
    else if (menu_pos == 2 || menu_pos == 7) { lcd.print(F("MENIT: ")); tampil_angka_lcd(edit_val); }
    else { lcd.print(F("VAL: ")); tampil_angka_lcd(edit_val); }
    lcd.print(F("      "));
  }
}
    117c:	df 91       	pop	r29
    117e:	cf 91       	pop	r28
    1180:	ff 90       	pop	r15
    1182:	ef 90       	pop	r14
    1184:	df 90       	pop	r13
    1186:	cf 90       	pop	r12
D:\KULIAH SEMESTER 4\LAB PROYEKSI ELEKTRONIKA\smart-drawer\firmware\atmega16\JAM DIGITAL\sketch_mar27a/sketch_mar27a.ino:370
      // ===== PERUBAHAN: Menampilkan jadwal hari ini ke LCD =====
      if (s_idx >= 0 && s_idx < 5 && display_timer % 2 == 0) {
        lcd.clear(); lcd.setCursor(0, 0); lcd.print(F("JADWAL SHOLAT"));
        lcd.setCursor(0, 1);strcpy_P(buf,nama_sholat[s_idx]);
        lcd.print(buf);lcd.print(F(" "));
        tampil_angka_lcd(jadwal_hari_ini[s_idx][0]); lcd.print(F(":")); tampil_angka_lcd(jadwal_hari_ini[s_idx][1]);
    1188:	0c 94 0d 08 	jmp	0x101a	; 0x101a <tampil_angka_lcd(unsigned char)>
D:\KULIAH SEMESTER 4\LAB PROYEKSI ELEKTRONIKA\smart-drawer\firmware\atmega16\JAM DIGITAL\sketch_mar27a/sketch_mar27a.ino:364
      tampil_angka_lcd(jam); lcd.print(detik % 2 == 0 ? F(":") : F(" "));
      tampil_angka_lcd(menit); lcd.print(detik % 2 == 0 ? F(":") : F(" "));
      tampil_angka_lcd(detik);
      if (alm_on) { lcd.print(F(" A")); tampil_angka_lcd(alm_h); lcd.print(F(":")); tampil_angka_lcd(alm_m); }
    } else {
      int s_idx = (display_timer - 122) / 2;
    118c:	82 2f       	mov	r24, r18
    118e:	8a 57       	subi	r24, 0x7A	; 122
    1190:	99 0b       	sbc	r25, r25
    1192:	ec 01       	movw	r28, r24
    1194:	97 fd       	sbrc	r25, 7
    1196:	21 96       	adiw	r28, 0x01	; 1
    1198:	d5 95       	asr	r29
    119a:	c7 95       	ror	r28
D:\KULIAH SEMESTER 4\LAB PROYEKSI ELEKTRONIKA\smart-drawer\firmware\atmega16\JAM DIGITAL\sketch_mar27a/sketch_mar27a.ino:366
      // ===== PERUBAHAN: Menampilkan jadwal hari ini ke LCD =====
      if (s_idx >= 0 && s_idx < 5 && display_timer % 2 == 0) {
    119c:	c5 30       	cpi	r28, 0x05	; 5
    119e:	d1 05       	cpc	r29, r1
    11a0:	0c f0       	brlt	.+2      	; 0x11a4 <update_display()+0x16a>
    11a2:	0a c1       	rjmp	.+532    	; 0x13b8 <update_display()+0x37e>
    11a4:	20 fd       	sbrc	r18, 0
    11a6:	08 c1       	rjmp	.+528    	; 0x13b8 <update_display()+0x37e>
D:\KULIAH SEMESTER 4\LAB PROYEKSI ELEKTRONIKA\smart-drawer\firmware\atmega16\JAM DIGITAL\sketch_mar27a/sketch_mar27a.ino:367
        lcd.clear(); lcd.setCursor(0, 0); lcd.print(F("JADWAL SHOLAT"));
    11a8:	0e 94 f5 06 	call	0xdea	; 0xdea <LiquidCrystal_I2C::clear() [clone .constprop.46]>
    11ac:	60 e0       	ldi	r22, 0x00	; 0
    11ae:	80 e0       	ldi	r24, 0x00	; 0
    11b0:	0e 94 c2 06 	call	0xd84	; 0xd84 <LiquidCrystal_I2C::setCursor(unsigned char, unsigned char) [clone .constprop.47]>
    11b4:	69 e6       	ldi	r22, 0x69	; 105
    11b6:	72 e0       	ldi	r23, 0x02	; 2
    11b8:	8e ef       	ldi	r24, 0xFE	; 254
    11ba:	92 e0       	ldi	r25, 0x02	; 2
    11bc:	0e 94 53 04 	call	0x8a6	; 0x8a6 <Print::print(__FlashStringHelper const*)>
D:\KULIAH SEMESTER 4\LAB PROYEKSI ELEKTRONIKA\smart-drawer\firmware\atmega16\JAM DIGITAL\sketch_mar27a/sketch_mar27a.ino:368
        lcd.setCursor(0, 1);strcpy_P(buf,nama_sholat[s_idx]);
    11c0:	61 e0       	ldi	r22, 0x01	; 1
    11c2:	80 e0       	ldi	r24, 0x00	; 0
    11c4:	0e 94 c2 06 	call	0xd84	; 0xd84 <LiquidCrystal_I2C::setCursor(unsigned char, unsigned char) [clone .constprop.47]>
    11c8:	8a e0       	ldi	r24, 0x0A	; 10
    11ca:	8c 9f       	mul	r24, r28
    11cc:	b0 01       	movw	r22, r0
    11ce:	8d 9f       	mul	r24, r29
    11d0:	70 0d       	add	r23, r0
    11d2:	11 24       	eor	r1, r1
    11d4:	6a 50       	subi	r22, 0x0A	; 10
    11d6:	7d 4f       	sbci	r23, 0xFD	; 253
    11d8:	8c ed       	ldi	r24, 0xDC	; 220
    11da:	91 e0       	ldi	r25, 0x01	; 1
    11dc:	0e 94 bc 18 	call	0x3178	; 0x3178 <strcpy_P>
write():
    11e0:	6c ed       	ldi	r22, 0xDC	; 220
    11e2:	71 e0       	ldi	r23, 0x01	; 1
    11e4:	8e ef       	ldi	r24, 0xFE	; 254
    11e6:	92 e0       	ldi	r25, 0x02	; 2
    11e8:	0e 94 98 07 	call	0xf30	; 0xf30 <Print::write(char const*) [clone .part.2]>
_Z14update_displayv():
D:\KULIAH SEMESTER 4\LAB PROYEKSI ELEKTRONIKA\smart-drawer\firmware\atmega16\JAM DIGITAL\sketch_mar27a/sketch_mar27a.ino:369
        lcd.print(buf);lcd.print(F(" "));
    11ec:	67 e6       	ldi	r22, 0x67	; 103
    11ee:	72 e0       	ldi	r23, 0x02	; 2
    11f0:	8e ef       	ldi	r24, 0xFE	; 254
    11f2:	92 e0       	ldi	r25, 0x02	; 2
    11f4:	0e 94 53 04 	call	0x8a6	; 0x8a6 <Print::print(__FlashStringHelper const*)>
D:\KULIAH SEMESTER 4\LAB PROYEKSI ELEKTRONIKA\smart-drawer\firmware\atmega16\JAM DIGITAL\sketch_mar27a/sketch_mar27a.ino:370
        tampil_angka_lcd(jadwal_hari_ini[s_idx][0]); lcd.print(F(":")); tampil_angka_lcd(jadwal_hari_ini[s_idx][1]);
    11f8:	cc 0f       	add	r28, r28
    11fa:	dd 1f       	adc	r29, r29
    11fc:	c8 59       	subi	r28, 0x98	; 152
    11fe:	df 4f       	sbci	r29, 0xFF	; 255
    1200:	88 81       	ld	r24, Y
    1202:	0e 94 0d 08 	call	0x101a	; 0x101a <tampil_angka_lcd(unsigned char)>
    1206:	65 e6       	ldi	r22, 0x65	; 101
    1208:	72 e0       	ldi	r23, 0x02	; 2
    120a:	8e ef       	ldi	r24, 0xFE	; 254
    120c:	92 e0       	ldi	r25, 0x02	; 2
    120e:	0e 94 53 04 	call	0x8a6	; 0x8a6 <Print::print(__FlashStringHelper const*)>
    1212:	89 81       	ldd	r24, Y+1	; 0x01
    1214:	b3 cf       	rjmp	.-154    	; 0x117c <update_display()+0x142>
D:\KULIAH SEMESTER 4\LAB PROYEKSI ELEKTRONIKA\smart-drawer\firmware\atmega16\JAM DIGITAL\sketch_mar27a/sketch_mar27a.ino:375
      }
      // =========================================================
    }
  } 
  else if (menu_aktif == 0) {
    1216:	81 11       	cpse	r24, r1
    1218:	34 c0       	rjmp	.+104    	; 0x1282 <update_display()+0x248>
D:\KULIAH SEMESTER 4\LAB PROYEKSI ELEKTRONIKA\smart-drawer\firmware\atmega16\JAM DIGITAL\sketch_mar27a/sketch_mar27a.ino:376
    lcd.setCursor(0, 0); lcd.print(F("MENU:           "));
    121a:	60 e0       	ldi	r22, 0x00	; 0
    121c:	0e 94 c2 06 	call	0xd84	; 0xd84 <LiquidCrystal_I2C::setCursor(unsigned char, unsigned char) [clone .constprop.47]>
    1220:	64 e5       	ldi	r22, 0x54	; 84
    1222:	72 e0       	ldi	r23, 0x02	; 2
    1224:	8e ef       	ldi	r24, 0xFE	; 254
    1226:	92 e0       	ldi	r25, 0x02	; 2
    1228:	0e 94 53 04 	call	0x8a6	; 0x8a6 <Print::print(__FlashStringHelper const*)>
D:\KULIAH SEMESTER 4\LAB PROYEKSI ELEKTRONIKA\smart-drawer\firmware\atmega16\JAM DIGITAL\sketch_mar27a/sketch_mar27a.ino:377
    lcd.setCursor(0, 1); lcd.print(F(">")); strcpy_P(buf, nama_menu[menu_pos - 1]);
    122c:	61 e0       	ldi	r22, 0x01	; 1
    122e:	80 e0       	ldi	r24, 0x00	; 0
    1230:	0e 94 c2 06 	call	0xd84	; 0xd84 <LiquidCrystal_I2C::setCursor(unsigned char, unsigned char) [clone .constprop.47]>
    1234:	62 e5       	ldi	r22, 0x52	; 82
    1236:	72 e0       	ldi	r23, 0x02	; 2
    1238:	8e ef       	ldi	r24, 0xFE	; 254
    123a:	92 e0       	ldi	r25, 0x02	; 2
    123c:	0e 94 53 04 	call	0x8a6	; 0x8a6 <Print::print(__FlashStringHelper const*)>
    1240:	60 91 ef 01 	lds	r22, 0x01EF	; 0x8001ef <menu_pos>
    1244:	61 50       	subi	r22, 0x01	; 1
    1246:	77 0b       	sbc	r23, r23
    1248:	94 e0       	ldi	r25, 0x04	; 4
    124a:	66 0f       	add	r22, r22
    124c:	77 1f       	adc	r23, r23
    124e:	9a 95       	dec	r25
    1250:	e1 f7       	brne	.-8      	; 0x124a <update_display()+0x210>
    1252:	6e 55       	subi	r22, 0x5E	; 94
    1254:	7e 4f       	sbci	r23, 0xFE	; 254
    1256:	8c ed       	ldi	r24, 0xDC	; 220
    1258:	91 e0       	ldi	r25, 0x01	; 1
    125a:	0e 94 bc 18 	call	0x3178	; 0x3178 <strcpy_P>
write():
    125e:	6c ed       	ldi	r22, 0xDC	; 220
    1260:	71 e0       	ldi	r23, 0x01	; 1
    1262:	8e ef       	ldi	r24, 0xFE	; 254
    1264:	92 e0       	ldi	r25, 0x02	; 2
    1266:	0e 94 98 07 	call	0xf30	; 0xf30 <Print::write(char const*) [clone .part.2]>
_Z14update_displayv():
D:\KULIAH SEMESTER 4\LAB PROYEKSI ELEKTRONIKA\smart-drawer\firmware\atmega16\JAM DIGITAL\sketch_mar27a/sketch_mar27a.ino:378
    lcd.print(buf); lcd.print(F("            "));
    126a:	65 e9       	ldi	r22, 0x95	; 149
    126c:	71 e0       	ldi	r23, 0x01	; 1
D:\KULIAH SEMESTER 4\LAB PROYEKSI ELEKTRONIKA\smart-drawer\firmware\atmega16\JAM DIGITAL\sketch_mar27a/sketch_mar27a.ino:392
    lcd.print(buf); }
    else if (menu_pos == 5) { lcd.print(F("THN: 20")); tampil_angka_lcd(edit_val); }
    else if (menu_pos == 1 || menu_pos == 6) { lcd.print(F("JAM: ")); tampil_angka_lcd(edit_val); }
    else if (menu_pos == 2 || menu_pos == 7) { lcd.print(F("MENIT: ")); tampil_angka_lcd(edit_val); }
    else { lcd.print(F("VAL: ")); tampil_angka_lcd(edit_val); }
    lcd.print(F("      "));
    126e:	8e ef       	ldi	r24, 0xFE	; 254
    1270:	92 e0       	ldi	r25, 0x02	; 2
D:\KULIAH SEMESTER 4\LAB PROYEKSI ELEKTRONIKA\smart-drawer\firmware\atmega16\JAM DIGITAL\sketch_mar27a/sketch_mar27a.ino:394
  }
}
    1272:	df 91       	pop	r29
    1274:	cf 91       	pop	r28
    1276:	ff 90       	pop	r15
    1278:	ef 90       	pop	r14
    127a:	df 90       	pop	r13
    127c:	cf 90       	pop	r12
D:\KULIAH SEMESTER 4\LAB PROYEKSI ELEKTRONIKA\smart-drawer\firmware\atmega16\JAM DIGITAL\sketch_mar27a/sketch_mar27a.ino:392
    lcd.print(buf); }
    else if (menu_pos == 5) { lcd.print(F("THN: 20")); tampil_angka_lcd(edit_val); }
    else if (menu_pos == 1 || menu_pos == 6) { lcd.print(F("JAM: ")); tampil_angka_lcd(edit_val); }
    else if (menu_pos == 2 || menu_pos == 7) { lcd.print(F("MENIT: ")); tampil_angka_lcd(edit_val); }
    else { lcd.print(F("VAL: ")); tampil_angka_lcd(edit_val); }
    lcd.print(F("      "));
    127e:	0c 94 53 04 	jmp	0x8a6	; 0x8a6 <Print::print(__FlashStringHelper const*)>
D:\KULIAH SEMESTER 4\LAB PROYEKSI ELEKTRONIKA\smart-drawer\firmware\atmega16\JAM DIGITAL\sketch_mar27a/sketch_mar27a.ino:381
    lcd.setCursor(0, 0); lcd.print(F("MENU:           "));
    lcd.setCursor(0, 1); lcd.print(F(">")); strcpy_P(buf, nama_menu[menu_pos - 1]);
    lcd.print(buf); lcd.print(F("            "));
  } 
  else {
    lcd.setCursor(0, 0); lcd.print(F("EDIT:")); lcd.print(nama_menu[menu_pos - 1]);
    1282:	60 e0       	ldi	r22, 0x00	; 0
    1284:	80 e0       	ldi	r24, 0x00	; 0
    1286:	0e 94 c2 06 	call	0xd84	; 0xd84 <LiquidCrystal_I2C::setCursor(unsigned char, unsigned char) [clone .constprop.47]>
    128a:	6f e8       	ldi	r22, 0x8F	; 143
    128c:	71 e0       	ldi	r23, 0x01	; 1
    128e:	8e ef       	ldi	r24, 0xFE	; 254
    1290:	92 e0       	ldi	r25, 0x02	; 2
    1292:	0e 94 53 04 	call	0x8a6	; 0x8a6 <Print::print(__FlashStringHelper const*)>
    1296:	60 91 ef 01 	lds	r22, 0x01EF	; 0x8001ef <menu_pos>
    129a:	61 50       	subi	r22, 0x01	; 1
    129c:	77 0b       	sbc	r23, r23
    129e:	84 e0       	ldi	r24, 0x04	; 4
    12a0:	66 0f       	add	r22, r22
    12a2:	77 1f       	adc	r23, r23
    12a4:	8a 95       	dec	r24
    12a6:	e1 f7       	brne	.-8      	; 0x12a0 <update_display()+0x266>
    12a8:	6e 55       	subi	r22, 0x5E	; 94
    12aa:	7e 4f       	sbci	r23, 0xFE	; 254
write():
    12ac:	8e ef       	ldi	r24, 0xFE	; 254
    12ae:	92 e0       	ldi	r25, 0x02	; 2
    12b0:	0e 94 98 07 	call	0xf30	; 0xf30 <Print::write(char const*) [clone .part.2]>
_Z14update_displayv():
D:\KULIAH SEMESTER 4\LAB PROYEKSI ELEKTRONIKA\smart-drawer\firmware\atmega16\JAM DIGITAL\sketch_mar27a/sketch_mar27a.ino:382
    lcd.setCursor(0, 1);
    12b4:	61 e0       	ldi	r22, 0x01	; 1
    12b6:	80 e0       	ldi	r24, 0x00	; 0
    12b8:	0e 94 c2 06 	call	0xd84	; 0xd84 <LiquidCrystal_I2C::setCursor(unsigned char, unsigned char) [clone .constprop.47]>
D:\KULIAH SEMESTER 4\LAB PROYEKSI ELEKTRONIKA\smart-drawer\firmware\atmega16\JAM DIGITAL\sketch_mar27a/sketch_mar27a.ino:383
    if (menu_pos == 10) { lcd.print(F("MODE: ")); strcpy_P(buf, nama_warna[edit_val]);
    12bc:	80 91 ef 01 	lds	r24, 0x01EF	; 0x8001ef <menu_pos>
    12c0:	8a 30       	cpi	r24, 0x0A	; 10
    12c2:	c9 f4       	brne	.+50     	; 0x12f6 <update_display()+0x2bc>
    12c4:	68 e8       	ldi	r22, 0x88	; 136
    12c6:	71 e0       	ldi	r23, 0x01	; 1
    12c8:	8e ef       	ldi	r24, 0xFE	; 254
    12ca:	92 e0       	ldi	r25, 0x02	; 2
    12cc:	0e 94 53 04 	call	0x8a6	; 0x8a6 <Print::print(__FlashStringHelper const*)>
    12d0:	60 91 ed 01 	lds	r22, 0x01ED	; 0x8001ed <edit_val>
    12d4:	90 e1       	ldi	r25, 0x10	; 16
    12d6:	69 02       	muls	r22, r25
    12d8:	b0 01       	movw	r22, r0
    12da:	11 24       	eor	r1, r1
    12dc:	68 53       	subi	r22, 0x38	; 56
    12de:	7f 4f       	sbci	r23, 0xFF	; 255
D:\KULIAH SEMESTER 4\LAB PROYEKSI ELEKTRONIKA\smart-drawer\firmware\atmega16\JAM DIGITAL\sketch_mar27a/sketch_mar27a.ino:386
    lcd.print(buf); }
    else if (menu_pos == 8) { if(edit_val) lcd.print(F("[ON]  ")); else lcd.print(F("[OFF] ")); }
    else if (menu_pos == 9) { lcd.print(F("[")); lcd.print((int)edit_val); lcd.print(F("] ")); strcpy_P(buf, nama_nada[edit_val]);
    12e0:	8c ed       	ldi	r24, 0xDC	; 220
    12e2:	91 e0       	ldi	r25, 0x01	; 1
    12e4:	0e 94 bc 18 	call	0x3178	; 0x3178 <strcpy_P>
write():
    12e8:	6c ed       	ldi	r22, 0xDC	; 220
    12ea:	71 e0       	ldi	r23, 0x01	; 1
    12ec:	8e ef       	ldi	r24, 0xFE	; 254
    12ee:	92 e0       	ldi	r25, 0x02	; 2
    12f0:	0e 94 98 07 	call	0xf30	; 0xf30 <Print::write(char const*) [clone .part.2]>
    12f4:	0e c0       	rjmp	.+28     	; 0x1312 <update_display()+0x2d8>
_Z14update_displayv():
D:\KULIAH SEMESTER 4\LAB PROYEKSI ELEKTRONIKA\smart-drawer\firmware\atmega16\JAM DIGITAL\sketch_mar27a/sketch_mar27a.ino:385
  else {
    lcd.setCursor(0, 0); lcd.print(F("EDIT:")); lcd.print(nama_menu[menu_pos - 1]);
    lcd.setCursor(0, 1);
    if (menu_pos == 10) { lcd.print(F("MODE: ")); strcpy_P(buf, nama_warna[edit_val]);
    lcd.print(buf); }
    else if (menu_pos == 8) { if(edit_val) lcd.print(F("[ON]  ")); else lcd.print(F("[OFF] ")); }
    12f6:	88 30       	cpi	r24, 0x08	; 8
    12f8:	79 f4       	brne	.+30     	; 0x1318 <update_display()+0x2de>
    12fa:	80 91 ed 01 	lds	r24, 0x01ED	; 0x8001ed <edit_val>
    12fe:	61 ec       	ldi	r22, 0xC1	; 193
    1300:	70 e0       	ldi	r23, 0x00	; 0
    1302:	81 11       	cpse	r24, r1
    1304:	02 c0       	rjmp	.+4      	; 0x130a <update_display()+0x2d0>
    1306:	6a eb       	ldi	r22, 0xBA	; 186
    1308:	70 e0       	ldi	r23, 0x00	; 0
    130a:	8e ef       	ldi	r24, 0xFE	; 254
    130c:	92 e0       	ldi	r25, 0x02	; 2
    130e:	0e 94 53 04 	call	0x8a6	; 0x8a6 <Print::print(__FlashStringHelper const*)>
D:\KULIAH SEMESTER 4\LAB PROYEKSI ELEKTRONIKA\smart-drawer\firmware\atmega16\JAM DIGITAL\sketch_mar27a/sketch_mar27a.ino:392
    lcd.print(buf); }
    else if (menu_pos == 5) { lcd.print(F("THN: 20")); tampil_angka_lcd(edit_val); }
    else if (menu_pos == 1 || menu_pos == 6) { lcd.print(F("JAM: ")); tampil_angka_lcd(edit_val); }
    else if (menu_pos == 2 || menu_pos == 7) { lcd.print(F("MENIT: ")); tampil_angka_lcd(edit_val); }
    else { lcd.print(F("VAL: ")); tampil_angka_lcd(edit_val); }
    lcd.print(F("      "));
    1312:	60 e6       	ldi	r22, 0x60	; 96
    1314:	70 e0       	ldi	r23, 0x00	; 0
    1316:	ab cf       	rjmp	.-170    	; 0x126e <update_display()+0x234>
D:\KULIAH SEMESTER 4\LAB PROYEKSI ELEKTRONIKA\smart-drawer\firmware\atmega16\JAM DIGITAL\sketch_mar27a/sketch_mar27a.ino:386
    lcd.setCursor(0, 0); lcd.print(F("EDIT:")); lcd.print(nama_menu[menu_pos - 1]);
    lcd.setCursor(0, 1);
    if (menu_pos == 10) { lcd.print(F("MODE: ")); strcpy_P(buf, nama_warna[edit_val]);
    lcd.print(buf); }
    else if (menu_pos == 8) { if(edit_val) lcd.print(F("[ON]  ")); else lcd.print(F("[OFF] ")); }
    else if (menu_pos == 9) { lcd.print(F("[")); lcd.print((int)edit_val); lcd.print(F("] ")); strcpy_P(buf, nama_nada[edit_val]);
    1318:	89 30       	cpi	r24, 0x09	; 9
    131a:	91 f5       	brne	.+100    	; 0x1380 <update_display()+0x346>
    131c:	68 eb       	ldi	r22, 0xB8	; 184
    131e:	70 e0       	ldi	r23, 0x00	; 0
    1320:	8e ef       	ldi	r24, 0xFE	; 254
    1322:	92 e0       	ldi	r25, 0x02	; 2
    1324:	0e 94 53 04 	call	0x8a6	; 0x8a6 <Print::print(__FlashStringHelper const*)>
    1328:	c0 90 ed 01 	lds	r12, 0x01ED	; 0x8001ed <edit_val>
print():
C:\Users\LENOVO\AppData\Local\Arduino15\packages\MightyCore\hardware\avr\3.1.0\cores\MCUdude_corefiles/Print.cpp:79
  return print((unsigned long) b, base);
}

size_t Print::print(int n, int base)
{
  return print((long) n, base);
    132c:	0c 2c       	mov	r0, r12
    132e:	00 0c       	add	r0, r0
    1330:	dd 08       	sbc	r13, r13
    1332:	ee 08       	sbc	r14, r14
    1334:	ff 08       	sbc	r15, r15
C:\Users\LENOVO\AppData\Local\Arduino15\packages\MightyCore\hardware\avr\3.1.0\cores\MCUdude_corefiles/Print.cpp:97
    if (n < 0) {
      int t = print('-');
      n = -n;
      return printNumber(n, 10) + t;
    }
    return printNumber(n, 10);
    1336:	2a e0       	ldi	r18, 0x0A	; 10
    1338:	b7 01       	movw	r22, r14
    133a:	a6 01       	movw	r20, r12
C:\Users\LENOVO\AppData\Local\Arduino15\packages\MightyCore\hardware\avr\3.1.0\cores\MCUdude_corefiles/Print.cpp:92
size_t Print::print(long n, int base)
{
  if (base == 0) {
    return write(n);
  } else if (base == 10) {
    if (n < 0) {
    133c:	f7 fe       	sbrs	r15, 7
    133e:	0d c0       	rjmp	.+26     	; 0x135a <update_display()+0x320>
C:\Users\LENOVO\AppData\Local\Arduino15\packages\MightyCore\hardware\avr\3.1.0\cores\MCUdude_corefiles/Print.cpp:93
      int t = print('-');
    1340:	6d e2       	ldi	r22, 0x2D	; 45
    1342:	8e ef       	ldi	r24, 0xFE	; 254
    1344:	92 e0       	ldi	r25, 0x02	; 2
    1346:	0e 94 4c 04 	call	0x898	; 0x898 <Print::print(char)>
C:\Users\LENOVO\AppData\Local\Arduino15\packages\MightyCore\hardware\avr\3.1.0\cores\MCUdude_corefiles/Print.cpp:94
      n = -n;
    134a:	44 27       	eor	r20, r20
    134c:	55 27       	eor	r21, r21
    134e:	ba 01       	movw	r22, r20
    1350:	4c 19       	sub	r20, r12
    1352:	5d 09       	sbc	r21, r13
    1354:	6e 09       	sbc	r22, r14
    1356:	7f 09       	sbc	r23, r15
C:\Users\LENOVO\AppData\Local\Arduino15\packages\MightyCore\hardware\avr\3.1.0\cores\MCUdude_corefiles/Print.cpp:95
      return printNumber(n, 10) + t;
    1358:	2a e0       	ldi	r18, 0x0A	; 10
C:\Users\LENOVO\AppData\Local\Arduino15\packages\MightyCore\hardware\avr\3.1.0\cores\MCUdude_corefiles/Print.cpp:97
    }
    return printNumber(n, 10);
    135a:	8e ef       	ldi	r24, 0xFE	; 254
    135c:	92 e0       	ldi	r25, 0x02	; 2
    135e:	0e 94 a7 07 	call	0xf4e	; 0xf4e <Print::printNumber(unsigned long, unsigned char)>
_Z14update_displayv():
D:\KULIAH SEMESTER 4\LAB PROYEKSI ELEKTRONIKA\smart-drawer\firmware\atmega16\JAM DIGITAL\sketch_mar27a/sketch_mar27a.ino:386
    1362:	65 eb       	ldi	r22, 0xB5	; 181
    1364:	70 e0       	ldi	r23, 0x00	; 0
    1366:	8e ef       	ldi	r24, 0xFE	; 254
    1368:	92 e0       	ldi	r25, 0x02	; 2
    136a:	0e 94 53 04 	call	0x8a6	; 0x8a6 <Print::print(__FlashStringHelper const*)>
    136e:	60 91 ed 01 	lds	r22, 0x01ED	; 0x8001ed <edit_val>
    1372:	8a e0       	ldi	r24, 0x0A	; 10
    1374:	68 02       	muls	r22, r24
    1376:	b0 01       	movw	r22, r0
    1378:	11 24       	eor	r1, r1
    137a:	6d 57       	subi	r22, 0x7D	; 125
    137c:	7f 4f       	sbci	r23, 0xFF	; 255
    137e:	b0 cf       	rjmp	.-160    	; 0x12e0 <update_display()+0x2a6>
D:\KULIAH SEMESTER 4\LAB PROYEKSI ELEKTRONIKA\smart-drawer\firmware\atmega16\JAM DIGITAL\sketch_mar27a/sketch_mar27a.ino:388
    lcd.print(buf); }
    else if (menu_pos == 5) { lcd.print(F("THN: 20")); tampil_angka_lcd(edit_val); }
    1380:	6b e7       	ldi	r22, 0x7B	; 123
    1382:	70 e0       	ldi	r23, 0x00	; 0
    1384:	85 30       	cpi	r24, 0x05	; 5
    1386:	31 f0       	breq	.+12     	; 0x1394 <update_display()+0x35a>
D:\KULIAH SEMESTER 4\LAB PROYEKSI ELEKTRONIKA\smart-drawer\firmware\atmega16\JAM DIGITAL\sketch_mar27a/sketch_mar27a.ino:389
    else if (menu_pos == 1 || menu_pos == 6) { lcd.print(F("JAM: ")); tampil_angka_lcd(edit_val); }
    1388:	81 30       	cpi	r24, 0x01	; 1
    138a:	11 f0       	breq	.+4      	; 0x1390 <update_display()+0x356>
    138c:	86 30       	cpi	r24, 0x06	; 6
    138e:	59 f4       	brne	.+22     	; 0x13a6 <update_display()+0x36c>
    1390:	65 e7       	ldi	r22, 0x75	; 117
    1392:	70 e0       	ldi	r23, 0x00	; 0
D:\KULIAH SEMESTER 4\LAB PROYEKSI ELEKTRONIKA\smart-drawer\firmware\atmega16\JAM DIGITAL\sketch_mar27a/sketch_mar27a.ino:391
    else if (menu_pos == 2 || menu_pos == 7) { lcd.print(F("MENIT: ")); tampil_angka_lcd(edit_val); }
    else { lcd.print(F("VAL: ")); tampil_angka_lcd(edit_val); }
    1394:	8e ef       	ldi	r24, 0xFE	; 254
    1396:	92 e0       	ldi	r25, 0x02	; 2
    1398:	0e 94 53 04 	call	0x8a6	; 0x8a6 <Print::print(__FlashStringHelper const*)>
    139c:	80 91 ed 01 	lds	r24, 0x01ED	; 0x8001ed <edit_val>
    13a0:	0e 94 0d 08 	call	0x101a	; 0x101a <tampil_angka_lcd(unsigned char)>
    13a4:	b6 cf       	rjmp	.-148    	; 0x1312 <update_display()+0x2d8>
D:\KULIAH SEMESTER 4\LAB PROYEKSI ELEKTRONIKA\smart-drawer\firmware\atmega16\JAM DIGITAL\sketch_mar27a/sketch_mar27a.ino:390
    else if (menu_pos == 8) { if(edit_val) lcd.print(F("[ON]  ")); else lcd.print(F("[OFF] ")); }
    else if (menu_pos == 9) { lcd.print(F("[")); lcd.print((int)edit_val); lcd.print(F("] ")); strcpy_P(buf, nama_nada[edit_val]);
    lcd.print(buf); }
    else if (menu_pos == 5) { lcd.print(F("THN: 20")); tampil_angka_lcd(edit_val); }
    else if (menu_pos == 1 || menu_pos == 6) { lcd.print(F("JAM: ")); tampil_angka_lcd(edit_val); }
    else if (menu_pos == 2 || menu_pos == 7) { lcd.print(F("MENIT: ")); tampil_angka_lcd(edit_val); }
    13a6:	82 30       	cpi	r24, 0x02	; 2
    13a8:	21 f0       	breq	.+8      	; 0x13b2 <update_display()+0x378>
D:\KULIAH SEMESTER 4\LAB PROYEKSI ELEKTRONIKA\smart-drawer\firmware\atmega16\JAM DIGITAL\sketch_mar27a/sketch_mar27a.ino:391
    else { lcd.print(F("VAL: ")); tampil_angka_lcd(edit_val); }
    13aa:	67 e6       	ldi	r22, 0x67	; 103
    13ac:	70 e0       	ldi	r23, 0x00	; 0
D:\KULIAH SEMESTER 4\LAB PROYEKSI ELEKTRONIKA\smart-drawer\firmware\atmega16\JAM DIGITAL\sketch_mar27a/sketch_mar27a.ino:390
    else if (menu_pos == 8) { if(edit_val) lcd.print(F("[ON]  ")); else lcd.print(F("[OFF] ")); }
    else if (menu_pos == 9) { lcd.print(F("[")); lcd.print((int)edit_val); lcd.print(F("] ")); strcpy_P(buf, nama_nada[edit_val]);
    lcd.print(buf); }
    else if (menu_pos == 5) { lcd.print(F("THN: 20")); tampil_angka_lcd(edit_val); }
    else if (menu_pos == 1 || menu_pos == 6) { lcd.print(F("JAM: ")); tampil_angka_lcd(edit_val); }
    else if (menu_pos == 2 || menu_pos == 7) { lcd.print(F("MENIT: ")); tampil_angka_lcd(edit_val); }
    13ae:	87 30       	cpi	r24, 0x07	; 7
    13b0:	89 f7       	brne	.-30     	; 0x1394 <update_display()+0x35a>
    13b2:	6d e6       	ldi	r22, 0x6D	; 109
    13b4:	70 e0       	ldi	r23, 0x00	; 0
    13b6:	ee cf       	rjmp	.-36     	; 0x1394 <update_display()+0x35a>
D:\KULIAH SEMESTER 4\LAB PROYEKSI ELEKTRONIKA\smart-drawer\firmware\atmega16\JAM DIGITAL\sketch_mar27a/sketch_mar27a.ino:394
    else { lcd.print(F("VAL: ")); tampil_angka_lcd(edit_val); }
    lcd.print(F("      "));
  }
}
    13b8:	df 91       	pop	r29
    13ba:	cf 91       	pop	r28
    13bc:	ff 90       	pop	r15
    13be:	ef 90       	pop	r14
    13c0:	df 90       	pop	r13
    13c2:	cf 90       	pop	r12
    13c4:	08 95       	ret

000013c6 <EEPROMClass::write(int, unsigned char) [clone .isra.9]>:
_ZN11EEPROMClass5writeEih.isra.9():
C:\Users\LENOVO\AppData\Local\Arduino15\packages\MightyCore\hardware\avr\3.1.0\libraries\EEPROM\src/EEPROM.h:47
    uint8_t operator*() const            { return eeprom_read_byte( (uint8_t*) index ); }
    operator uint8_t() const             { return **this; }
    
    //Assignment/write members.
    EERef &operator=( const EERef &ref ) { return *this = *ref; }
    EERef &operator=( uint8_t in )       { return eeprom_write_byte( (uint8_t*) index, in ), *this;  }
    13c6:	0c 94 d7 18 	jmp	0x31ae	; 0x31ae <eeprom_write_byte>

000013ca <EEPROMClass::read(int) [clone .isra.8]>:
_ZN11EEPROMClass4readEi.isra.8():
C:\Users\LENOVO\AppData\Local\Arduino15\packages\MightyCore\hardware\avr\3.1.0\libraries\EEPROM\src/EEPROM.h:42

    EERef( const int index )
        : index( index )                 {}
    
    //Access/read members.
    uint8_t operator*() const            { return eeprom_read_byte( (uint8_t*) index ); }
    13ca:	0c 94 cf 18 	jmp	0x319e	; 0x319e <eeprom_read_byte>

000013ce <__vector_9>:
__vector_9():
C:\Users\LENOVO\AppData\Local\Arduino15\packages\MightyCore\hardware\avr\3.1.0\cores\MCUdude_corefiles/wiring.c:159
#if defined(__AVR_ATtiny24__) || defined(__AVR_ATtiny44__) || defined(__AVR_ATtiny84__)
ISR(TIM0_OVF_vect)
#else
ISR(TIMER0_OVF_vect)
#endif
{
    13ce:	1f 92       	push	r1
    13d0:	0f 92       	push	r0
    13d2:	0f b6       	in	r0, 0x3f	; 63
    13d4:	0f 92       	push	r0
    13d6:	11 24       	eor	r1, r1
    13d8:	2f 93       	push	r18
    13da:	3f 93       	push	r19
    13dc:	8f 93       	push	r24
    13de:	9f 93       	push	r25
    13e0:	af 93       	push	r26
    13e2:	bf 93       	push	r27
C:\Users\LENOVO\AppData\Local\Arduino15\packages\MightyCore\hardware\avr\3.1.0\cores\MCUdude_corefiles/wiring.c:167
  static unsigned char timer0_exact = 0;
#endif

  // copy these to local variables so they can be stored in registers
  // (volatile variables must be read from memory on every access, so this saves time)
  unsigned long m = timer0_millis;
    13e4:	80 91 02 02 	lds	r24, 0x0202	; 0x800202 <timer0_millis>
    13e8:	90 91 03 02 	lds	r25, 0x0203	; 0x800203 <timer0_millis+0x1>
    13ec:	a0 91 04 02 	lds	r26, 0x0204	; 0x800204 <timer0_millis+0x2>
    13f0:	b0 91 05 02 	lds	r27, 0x0205	; 0x800205 <timer0_millis+0x3>
C:\Users\LENOVO\AppData\Local\Arduino15\packages\MightyCore\hardware\avr\3.1.0\cores\MCUdude_corefiles/wiring.c:168
  unsigned char f = timer0_fract;
    13f4:	30 91 01 02 	lds	r19, 0x0201	; 0x800201 <timer0_fract>
C:\Users\LENOVO\AppData\Local\Arduino15\packages\MightyCore\hardware\avr\3.1.0\cores\MCUdude_corefiles/wiring.c:170

  f += FRACT_INC FRACT_INC_PLUS;
    13f8:	26 e0       	ldi	r18, 0x06	; 6
    13fa:	23 0f       	add	r18, r19
C:\Users\LENOVO\AppData\Local\Arduino15\packages\MightyCore\hardware\avr\3.1.0\cores\MCUdude_corefiles/wiring.c:200
    ++f;
  }
#endif
#endif // CORRECT_EXACT_MILLIS

  if (f >= FRACT_MAX) {
    13fc:	2d 37       	cpi	r18, 0x7D	; 125
    13fe:	68 f1       	brcs	.+90     	; 0x145a <__vector_9+0x8c>
C:\Users\LENOVO\AppData\Local\Arduino15\packages\MightyCore\hardware\avr\3.1.0\cores\MCUdude_corefiles/wiring.c:201
    f -= FRACT_MAX;
    1400:	29 e8       	ldi	r18, 0x89	; 137
    1402:	23 0f       	add	r18, r19
C:\Users\LENOVO\AppData\Local\Arduino15\packages\MightyCore\hardware\avr\3.1.0\cores\MCUdude_corefiles/wiring.c:202
    m += MILLIS_INC + 1;
    1404:	03 96       	adiw	r24, 0x03	; 3
    1406:	a1 1d       	adc	r26, r1
    1408:	b1 1d       	adc	r27, r1
C:\Users\LENOVO\AppData\Local\Arduino15\packages\MightyCore\hardware\avr\3.1.0\cores\MCUdude_corefiles/wiring.c:208
  }
  else {
    m += MILLIS_INC;
  }

  timer0_fract = f;
    140a:	20 93 01 02 	sts	0x0201, r18	; 0x800201 <timer0_fract>
C:\Users\LENOVO\AppData\Local\Arduino15\packages\MightyCore\hardware\avr\3.1.0\cores\MCUdude_corefiles/wiring.c:209
  timer0_millis = m;
    140e:	80 93 02 02 	sts	0x0202, r24	; 0x800202 <timer0_millis>
    1412:	90 93 03 02 	sts	0x0203, r25	; 0x800203 <timer0_millis+0x1>
    1416:	a0 93 04 02 	sts	0x0204, r26	; 0x800204 <timer0_millis+0x2>
    141a:	b0 93 05 02 	sts	0x0205, r27	; 0x800205 <timer0_millis+0x3>
C:\Users\LENOVO\AppData\Local\Arduino15\packages\MightyCore\hardware\avr\3.1.0\cores\MCUdude_corefiles/wiring.c:211
#ifndef CORRECT_EXACT_MICROS
  timer0_overflow_count++;
    141e:	80 91 06 02 	lds	r24, 0x0206	; 0x800206 <timer0_overflow_count>
    1422:	90 91 07 02 	lds	r25, 0x0207	; 0x800207 <timer0_overflow_count+0x1>
    1426:	a0 91 08 02 	lds	r26, 0x0208	; 0x800208 <timer0_overflow_count+0x2>
    142a:	b0 91 09 02 	lds	r27, 0x0209	; 0x800209 <timer0_overflow_count+0x3>
    142e:	01 96       	adiw	r24, 0x01	; 1
    1430:	a1 1d       	adc	r26, r1
    1432:	b1 1d       	adc	r27, r1
    1434:	80 93 06 02 	sts	0x0206, r24	; 0x800206 <timer0_overflow_count>
    1438:	90 93 07 02 	sts	0x0207, r25	; 0x800207 <timer0_overflow_count+0x1>
    143c:	a0 93 08 02 	sts	0x0208, r26	; 0x800208 <timer0_overflow_count+0x2>
    1440:	b0 93 09 02 	sts	0x0209, r27	; 0x800209 <timer0_overflow_count+0x3>
C:\Users\LENOVO\AppData\Local\Arduino15\packages\MightyCore\hardware\avr\3.1.0\cores\MCUdude_corefiles/wiring.c:213
#endif
}
    1444:	bf 91       	pop	r27
    1446:	af 91       	pop	r26
    1448:	9f 91       	pop	r25
    144a:	8f 91       	pop	r24
    144c:	3f 91       	pop	r19
    144e:	2f 91       	pop	r18
    1450:	0f 90       	pop	r0
    1452:	0f be       	out	0x3f, r0	; 63
    1454:	0f 90       	pop	r0
    1456:	1f 90       	pop	r1
    1458:	18 95       	reti
C:\Users\LENOVO\AppData\Local\Arduino15\packages\MightyCore\hardware\avr\3.1.0\cores\MCUdude_corefiles/wiring.c:205
  if (f >= FRACT_MAX) {
    f -= FRACT_MAX;
    m += MILLIS_INC + 1;
  }
  else {
    m += MILLIS_INC;
    145a:	02 96       	adiw	r24, 0x02	; 2
    145c:	a1 1d       	adc	r26, r1
    145e:	b1 1d       	adc	r27, r1
    1460:	d4 cf       	rjmp	.-88     	; 0x140a <__vector_9+0x3c>

00001462 <__vector_12>:
__vector_12():
C:\Users\LENOVO\AppData\Local\Arduino15\packages\MightyCore\hardware\avr\3.1.0\cores\MCUdude_corefiles/HardwareSerial0.cpp:63
#elif defined(USART0_UDRE_vect)
ISR(USART0_UDRE_vect)
#else
  #error "Don't know what the Data Register Empty vector is called for Serial"
#endif
{
    1462:	1f 92       	push	r1
    1464:	0f 92       	push	r0
    1466:	0f b6       	in	r0, 0x3f	; 63
    1468:	0f 92       	push	r0
    146a:	11 24       	eor	r1, r1
    146c:	2f 93       	push	r18
    146e:	3f 93       	push	r19
    1470:	4f 93       	push	r20
    1472:	5f 93       	push	r21
    1474:	6f 93       	push	r22
    1476:	7f 93       	push	r23
    1478:	8f 93       	push	r24
    147a:	9f 93       	push	r25
    147c:	af 93       	push	r26
    147e:	bf 93       	push	r27
    1480:	ef 93       	push	r30
    1482:	ff 93       	push	r31
C:\Users\LENOVO\AppData\Local\Arduino15\packages\MightyCore\hardware\avr\3.1.0\cores\MCUdude_corefiles/HardwareSerial0.cpp:64
  Serial._tx_udr_empty_irq();
    1484:	8f e3       	ldi	r24, 0x3F	; 63
    1486:	92 e0       	ldi	r25, 0x02	; 2
    1488:	0e 94 f5 04 	call	0x9ea	; 0x9ea <HardwareSerial::_tx_udr_empty_irq()>
C:\Users\LENOVO\AppData\Local\Arduino15\packages\MightyCore\hardware\avr\3.1.0\cores\MCUdude_corefiles/HardwareSerial0.cpp:65
}
    148c:	ff 91       	pop	r31
    148e:	ef 91       	pop	r30
    1490:	bf 91       	pop	r27
    1492:	af 91       	pop	r26
    1494:	9f 91       	pop	r25
    1496:	8f 91       	pop	r24
    1498:	7f 91       	pop	r23
    149a:	6f 91       	pop	r22
    149c:	5f 91       	pop	r21
    149e:	4f 91       	pop	r20
    14a0:	3f 91       	pop	r19
    14a2:	2f 91       	pop	r18
    14a4:	0f 90       	pop	r0
    14a6:	0f be       	out	0x3f, r0	; 63
    14a8:	0f 90       	pop	r0
    14aa:	1f 90       	pop	r1
    14ac:	18 95       	reti

000014ae <__vector_11>:
__vector_11():
C:\Users\LENOVO\AppData\Local\Arduino15\packages\MightyCore\hardware\avr\3.1.0\cores\MCUdude_corefiles/HardwareSerial0.cpp:50
#elif defined(USART_RX_vect)
  ISR(USART_RX_vect)
#else
  #error "Don't know what the Data Received vector is called for Serial"
#endif
  {
    14ae:	1f 92       	push	r1
    14b0:	0f 92       	push	r0
    14b2:	0f b6       	in	r0, 0x3f	; 63
    14b4:	0f 92       	push	r0
    14b6:	11 24       	eor	r1, r1
    14b8:	2f 93       	push	r18
    14ba:	8f 93       	push	r24
    14bc:	9f 93       	push	r25
    14be:	ef 93       	push	r30
    14c0:	ff 93       	push	r31
_rx_complete_irq():
C:\Users\LENOVO\AppData\Local\Arduino15\packages\MightyCore\hardware\avr\3.1.0\cores\MCUdude_corefiles/HardwareSerial_private.h:100

// Actual interrupt handlers //////////////////////////////////////////////////////////////

void HardwareSerial::_rx_complete_irq(void)
{
  if (bit_is_clear(*_ucsra, UPE0)) {
    14c2:	e0 91 4f 02 	lds	r30, 0x024F	; 0x80024f <Serial+0x10>
    14c6:	f0 91 50 02 	lds	r31, 0x0250	; 0x800250 <Serial+0x11>
    14ca:	80 81       	ld	r24, Z
    14cc:	e0 91 55 02 	lds	r30, 0x0255	; 0x800255 <Serial+0x16>
    14d0:	f0 91 56 02 	lds	r31, 0x0256	; 0x800256 <Serial+0x17>
    14d4:	82 fd       	sbrc	r24, 2
    14d6:	1b c0       	rjmp	.+54     	; 0x150e <__vector_11+0x60>
C:\Users\LENOVO\AppData\Local\Arduino15\packages\MightyCore\hardware\avr\3.1.0\cores\MCUdude_corefiles/HardwareSerial_private.h:103
    // No Parity error, read byte and store it in the buffer if there is
    // room
    unsigned char c = *_udr;
    14d8:	90 81       	ld	r25, Z
C:\Users\LENOVO\AppData\Local\Arduino15\packages\MightyCore\hardware\avr\3.1.0\cores\MCUdude_corefiles/HardwareSerial_private.h:104
    rx_buffer_index_t i = (unsigned int)(_rx_buffer_head + 1) % SERIAL_RX_BUFFER_SIZE;
    14da:	80 91 58 02 	lds	r24, 0x0258	; 0x800258 <Serial+0x19>
    14de:	8f 5f       	subi	r24, 0xFF	; 255
    14e0:	8f 73       	andi	r24, 0x3F	; 63
C:\Users\LENOVO\AppData\Local\Arduino15\packages\MightyCore\hardware\avr\3.1.0\cores\MCUdude_corefiles/HardwareSerial_private.h:110

    // if we should be storing the received character into the location
    // just before the tail (meaning that the head would advance to the
    // current location of the tail), we're about to overflow the buffer
    // and so we don't write the character or advance the head.
    if (i != _rx_buffer_tail) {
    14e2:	20 91 59 02 	lds	r18, 0x0259	; 0x800259 <Serial+0x1a>
    14e6:	82 17       	cp	r24, r18
    14e8:	41 f0       	breq	.+16     	; 0x14fa <__vector_11+0x4c>
C:\Users\LENOVO\AppData\Local\Arduino15\packages\MightyCore\hardware\avr\3.1.0\cores\MCUdude_corefiles/HardwareSerial_private.h:111
      _rx_buffer[_rx_buffer_head] = c;
    14ea:	e0 91 58 02 	lds	r30, 0x0258	; 0x800258 <Serial+0x19>
    14ee:	f0 e0       	ldi	r31, 0x00	; 0
    14f0:	e1 5c       	subi	r30, 0xC1	; 193
    14f2:	fd 4f       	sbci	r31, 0xFD	; 253
    14f4:	95 8f       	std	Z+29, r25	; 0x1d
C:\Users\LENOVO\AppData\Local\Arduino15\packages\MightyCore\hardware\avr\3.1.0\cores\MCUdude_corefiles/HardwareSerial_private.h:112
      _rx_buffer_head = i;
    14f6:	80 93 58 02 	sts	0x0258, r24	; 0x800258 <Serial+0x19>
__vector_11():
C:\Users\LENOVO\AppData\Local\Arduino15\packages\MightyCore\hardware\avr\3.1.0\cores\MCUdude_corefiles/HardwareSerial0.cpp:52
    Serial._rx_complete_irq();
  }
    14fa:	ff 91       	pop	r31
    14fc:	ef 91       	pop	r30
    14fe:	9f 91       	pop	r25
    1500:	8f 91       	pop	r24
    1502:	2f 91       	pop	r18
    1504:	0f 90       	pop	r0
    1506:	0f be       	out	0x3f, r0	; 63
    1508:	0f 90       	pop	r0
    150a:	1f 90       	pop	r1
    150c:	18 95       	reti
_rx_complete_irq():
C:\Users\LENOVO\AppData\Local\Arduino15\packages\MightyCore\hardware\avr\3.1.0\cores\MCUdude_corefiles/HardwareSerial_private.h:116
    }
  } else {
    // Parity error, read byte but discard it
    *_udr;
    150e:	80 81       	ld	r24, Z
    1510:	f4 cf       	rjmp	.-24     	; 0x14fa <__vector_11+0x4c>

00001512 <__vector_17>:
__vector_17():
C:\Users\LENOVO\AppData\Local\Arduino15\packages\MightyCore\hardware\avr\3.1.0\libraries\Wire\src\utility/twi.c:534
  }
  return(flag);
}

ISR(TWI_vect)
{
    1512:	1f 92       	push	r1
    1514:	0f 92       	push	r0
    1516:	0f b6       	in	r0, 0x3f	; 63
    1518:	0f 92       	push	r0
    151a:	11 24       	eor	r1, r1
    151c:	2f 93       	push	r18
    151e:	3f 93       	push	r19
    1520:	4f 93       	push	r20
    1522:	5f 93       	push	r21
    1524:	6f 93       	push	r22
    1526:	7f 93       	push	r23
    1528:	8f 93       	push	r24
    152a:	9f 93       	push	r25
    152c:	af 93       	push	r26
    152e:	bf 93       	push	r27
    1530:	ef 93       	push	r30
    1532:	ff 93       	push	r31
C:\Users\LENOVO\AppData\Local\Arduino15\packages\MightyCore\hardware\avr\3.1.0\libraries\Wire\src\utility/twi.c:535
  switch(TW_STATUS){
    1534:	81 b1       	in	r24, 0x01	; 1
    1536:	88 7f       	andi	r24, 0xF8	; 248
    1538:	80 36       	cpi	r24, 0x60	; 96
    153a:	09 f4       	brne	.+2      	; 0x153e <__vector_17+0x2c>
    153c:	4a c0       	rjmp	.+148    	; 0x15d2 <__vector_17+0xc0>
    153e:	f0 f5       	brcc	.+124    	; 0x15bc <__vector_17+0xaa>
    1540:	88 32       	cpi	r24, 0x28	; 40
    1542:	09 f4       	brne	.+2      	; 0x1546 <__vector_17+0x34>
    1544:	a3 c0       	rjmp	.+326    	; 0x168c <__vector_17+0x17a>
    1546:	18 f5       	brcc	.+70     	; 0x158e <__vector_17+0x7c>
    1548:	80 31       	cpi	r24, 0x10	; 16
    154a:	09 f4       	brne	.+2      	; 0x154e <__vector_17+0x3c>
    154c:	99 c0       	rjmp	.+306    	; 0x1680 <__vector_17+0x16e>
    154e:	b8 f4       	brcc	.+46     	; 0x157e <__vector_17+0x6c>
    1550:	88 23       	and	r24, r24
    1552:	09 f4       	brne	.+2      	; 0x1556 <__vector_17+0x44>
    1554:	fd c0       	rjmp	.+506    	; 0x1750 <__vector_17+0x23e>
    1556:	88 30       	cpi	r24, 0x08	; 8
    1558:	09 f4       	brne	.+2      	; 0x155c <__vector_17+0x4a>
    155a:	92 c0       	rjmp	.+292    	; 0x1680 <__vector_17+0x16e>
C:\Users\LENOVO\AppData\Local\Arduino15\packages\MightyCore\hardware\avr\3.1.0\libraries\Wire\src\utility/twi.c:696
    case TW_BUS_ERROR: // bus error, illegal stop/start
      twi_error = TW_BUS_ERROR;
      twi_stop();
      break;
  }
}
    155c:	ff 91       	pop	r31
    155e:	ef 91       	pop	r30
    1560:	bf 91       	pop	r27
    1562:	af 91       	pop	r26
    1564:	9f 91       	pop	r25
    1566:	8f 91       	pop	r24
    1568:	7f 91       	pop	r23
    156a:	6f 91       	pop	r22
    156c:	5f 91       	pop	r21
    156e:	4f 91       	pop	r20
    1570:	3f 91       	pop	r19
    1572:	2f 91       	pop	r18
    1574:	0f 90       	pop	r0
    1576:	0f be       	out	0x3f, r0	; 63
    1578:	0f 90       	pop	r0
    157a:	1f 90       	pop	r1
    157c:	18 95       	reti
C:\Users\LENOVO\AppData\Local\Arduino15\packages\MightyCore\hardware\avr\3.1.0\libraries\Wire\src\utility/twi.c:535
  return(flag);
}

ISR(TWI_vect)
{
  switch(TW_STATUS){
    157e:	88 31       	cpi	r24, 0x18	; 24
    1580:	09 f4       	brne	.+2      	; 0x1584 <__vector_17+0x72>
    1582:	84 c0       	rjmp	.+264    	; 0x168c <__vector_17+0x17a>
    1584:	80 32       	cpi	r24, 0x20	; 32
    1586:	51 f7       	brne	.-44     	; 0x155c <__vector_17+0x4a>
C:\Users\LENOVO\AppData\Local\Arduino15\packages\MightyCore\hardware\avr\3.1.0\libraries\Wire\src\utility/twi.c:570
    case TW_MT_SLA_NACK:  // address sent, nack received
      twi_error = TW_MT_SLA_NACK;
      twi_stop();
      break;
    case TW_MT_DATA_NACK: // data sent, nack received
      twi_error = TW_MT_DATA_NACK;
    1588:	80 93 18 02 	sts	0x0218, r24	; 0x800218 <twi_error>
    158c:	14 c0       	rjmp	.+40     	; 0x15b6 <__vector_17+0xa4>
C:\Users\LENOVO\AppData\Local\Arduino15\packages\MightyCore\hardware\avr\3.1.0\libraries\Wire\src\utility/twi.c:535
  return(flag);
}

ISR(TWI_vect)
{
  switch(TW_STATUS){
    158e:	80 34       	cpi	r24, 0x40	; 64
    1590:	09 f4       	brne	.+2      	; 0x1594 <__vector_17+0x82>
    1592:	a0 c0       	rjmp	.+320    	; 0x16d4 <__vector_17+0x1c2>
    1594:	40 f4       	brcc	.+16     	; 0x15a6 <__vector_17+0x94>
    1596:	80 33       	cpi	r24, 0x30	; 48
    1598:	b9 f3       	breq	.-18     	; 0x1588 <__vector_17+0x76>
    159a:	88 33       	cpi	r24, 0x38	; 56
    159c:	f9 f6       	brne	.-66     	; 0x155c <__vector_17+0x4a>
C:\Users\LENOVO\AppData\Local\Arduino15\packages\MightyCore\hardware\avr\3.1.0\libraries\Wire\src\utility/twi.c:574
    case TW_MT_DATA_NACK: // data sent, nack received
      twi_error = TW_MT_DATA_NACK;
      twi_stop();
      break;
    case TW_MT_ARB_LOST: // lost bus arbitration
      twi_error = TW_MT_ARB_LOST;
    159e:	80 93 18 02 	sts	0x0218, r24	; 0x800218 <twi_error>
twi_reply():
C:\Users\LENOVO\AppData\Local\Arduino15\packages\MightyCore\hardware\avr\3.1.0\libraries\Wire\src\utility/twi.c:421
 */
void twi_reply(uint8_t ack)
{
  // transmit master read ready signal, with or without ack
  if(ack){
    TWCR = _BV(TWEN) | _BV(TWIE) | _BV(TWINT) | _BV(TWEA);
    15a2:	85 ec       	ldi	r24, 0xC5	; 197
    15a4:	b6 c0       	rjmp	.+364    	; 0x1712 <__vector_17+0x200>
__vector_17():
C:\Users\LENOVO\AppData\Local\Arduino15\packages\MightyCore\hardware\avr\3.1.0\libraries\Wire\src\utility/twi.c:535
  return(flag);
}

ISR(TWI_vect)
{
  switch(TW_STATUS){
    15a6:	80 35       	cpi	r24, 0x50	; 80
    15a8:	09 f4       	brne	.+2      	; 0x15ac <__vector_17+0x9a>
    15aa:	85 c0       	rjmp	.+266    	; 0x16b6 <__vector_17+0x1a4>
    15ac:	88 35       	cpi	r24, 0x58	; 88
    15ae:	09 f4       	brne	.+2      	; 0x15b2 <__vector_17+0xa0>
    15b0:	99 c0       	rjmp	.+306    	; 0x16e4 <__vector_17+0x1d2>
    15b2:	88 34       	cpi	r24, 0x48	; 72
    15b4:	99 f6       	brne	.-90     	; 0x155c <__vector_17+0x4a>
C:\Users\LENOVO\AppData\Local\Arduino15\packages\MightyCore\hardware\avr\3.1.0\libraries\Wire\src\utility/twi.c:693
    // All
    case TW_NO_INFO:   // no state information
      break;
    case TW_BUS_ERROR: // bus error, illegal stop/start
      twi_error = TW_BUS_ERROR;
      twi_stop();
    15b6:	0e 94 c6 05 	call	0xb8c	; 0xb8c <twi_stop>
    15ba:	d0 cf       	rjmp	.-96     	; 0x155c <__vector_17+0x4a>
C:\Users\LENOVO\AppData\Local\Arduino15\packages\MightyCore\hardware\avr\3.1.0\libraries\Wire\src\utility/twi.c:535
  return(flag);
}

ISR(TWI_vect)
{
  switch(TW_STATUS){
    15bc:	88 39       	cpi	r24, 0x98	; 152
    15be:	09 f4       	brne	.+2      	; 0x15c2 <__vector_17+0xb0>
    15c0:	8f c0       	rjmp	.+286    	; 0x16e0 <__vector_17+0x1ce>
    15c2:	30 f5       	brcc	.+76     	; 0x1610 <__vector_17+0xfe>
    15c4:	88 37       	cpi	r24, 0x78	; 120
    15c6:	29 f0       	breq	.+10     	; 0x15d2 <__vector_17+0xc0>
    15c8:	50 f4       	brcc	.+20     	; 0x15de <__vector_17+0xcc>
    15ca:	88 36       	cpi	r24, 0x68	; 104
    15cc:	11 f0       	breq	.+4      	; 0x15d2 <__vector_17+0xc0>
    15ce:	80 37       	cpi	r24, 0x70	; 112
    15d0:	29 f6       	brne	.-118    	; 0x155c <__vector_17+0x4a>
C:\Users\LENOVO\AppData\Local\Arduino15\packages\MightyCore\hardware\avr\3.1.0\libraries\Wire\src\utility/twi.c:616
    case TW_SR_SLA_ACK:   // addressed, returned ack
    case TW_SR_GCALL_ACK: // addressed generally, returned ack
    case TW_SR_ARB_LOST_SLA_ACK:   // lost arbitration, returned ack
    case TW_SR_ARB_LOST_GCALL_ACK: // lost arbitration, returned ack
      // enter slave receiver mode
      twi_state = TWI_SRX;
    15d2:	83 e0       	ldi	r24, 0x03	; 3
    15d4:	80 93 1a 02 	sts	0x021A, r24	; 0x80021a <twi_state>
C:\Users\LENOVO\AppData\Local\Arduino15\packages\MightyCore\hardware\avr\3.1.0\libraries\Wire\src\utility/twi.c:618
      // indicate that rx buffer can be overwritten and ack
      twi_rxBufferIndex = 0;
    15d8:	10 92 b9 01 	sts	0x01B9, r1	; 0x8001b9 <twi_rxBufferIndex>
    15dc:	54 c0       	rjmp	.+168    	; 0x1686 <__vector_17+0x174>
C:\Users\LENOVO\AppData\Local\Arduino15\packages\MightyCore\hardware\avr\3.1.0\libraries\Wire\src\utility/twi.c:535
  return(flag);
}

ISR(TWI_vect)
{
  switch(TW_STATUS){
    15de:	88 38       	cpi	r24, 0x88	; 136
    15e0:	09 f4       	brne	.+2      	; 0x15e4 <__vector_17+0xd2>
    15e2:	7e c0       	rjmp	.+252    	; 0x16e0 <__vector_17+0x1ce>
    15e4:	80 39       	cpi	r24, 0x90	; 144
    15e6:	19 f0       	breq	.+6      	; 0x15ee <__vector_17+0xdc>
    15e8:	80 38       	cpi	r24, 0x80	; 128
    15ea:	09 f0       	breq	.+2      	; 0x15ee <__vector_17+0xdc>
    15ec:	b7 cf       	rjmp	.-146    	; 0x155c <__vector_17+0x4a>
C:\Users\LENOVO\AppData\Local\Arduino15\packages\MightyCore\hardware\avr\3.1.0\libraries\Wire\src\utility/twi.c:624
      twi_reply(1);
      break;
    case TW_SR_DATA_ACK:       // data received, returned ack
    case TW_SR_GCALL_DATA_ACK: // data received generally, returned ack
      // if there is still room in the rx buffer
      if(twi_rxBufferIndex < TWI_BUFFER_SIZE){
    15ee:	80 91 b9 01 	lds	r24, 0x01B9	; 0x8001b9 <twi_rxBufferIndex>
    15f2:	80 32       	cpi	r24, 0x20	; 32
    15f4:	08 f0       	brcs	.+2      	; 0x15f8 <__vector_17+0xe6>
    15f6:	74 c0       	rjmp	.+232    	; 0x16e0 <__vector_17+0x1ce>
C:\Users\LENOVO\AppData\Local\Arduino15\packages\MightyCore\hardware\avr\3.1.0\libraries\Wire\src\utility/twi.c:626
        // put byte in buffer and ack
        twi_rxBuffer[twi_rxBufferIndex++] = TWDR;
    15f8:	e0 91 b9 01 	lds	r30, 0x01B9	; 0x8001b9 <twi_rxBufferIndex>
    15fc:	81 e0       	ldi	r24, 0x01	; 1
    15fe:	8e 0f       	add	r24, r30
    1600:	80 93 b9 01 	sts	0x01B9, r24	; 0x8001b9 <twi_rxBufferIndex>
    1604:	83 b1       	in	r24, 0x03	; 3
    1606:	f0 e0       	ldi	r31, 0x00	; 0
    1608:	e7 56       	subi	r30, 0x67	; 103
    160a:	fe 4f       	sbci	r31, 0xFE	; 254
    160c:	80 83       	st	Z, r24
    160e:	3b c0       	rjmp	.+118    	; 0x1686 <__vector_17+0x174>
C:\Users\LENOVO\AppData\Local\Arduino15\packages\MightyCore\hardware\avr\3.1.0\libraries\Wire\src\utility/twi.c:535
  return(flag);
}

ISR(TWI_vect)
{
  switch(TW_STATUS){
    1610:	80 3b       	cpi	r24, 0xB0	; 176
    1612:	39 f0       	breq	.+14     	; 0x1622 <__vector_17+0x110>
    1614:	e0 f4       	brcc	.+56     	; 0x164e <__vector_17+0x13c>
    1616:	80 3a       	cpi	r24, 0xA0	; 160
    1618:	09 f4       	brne	.+2      	; 0x161c <__vector_17+0x10a>
    161a:	7f c0       	rjmp	.+254    	; 0x171a <__vector_17+0x208>
    161c:	88 3a       	cpi	r24, 0xA8	; 168
    161e:	09 f0       	breq	.+2      	; 0x1622 <__vector_17+0x110>
    1620:	9d cf       	rjmp	.-198    	; 0x155c <__vector_17+0x4a>
C:\Users\LENOVO\AppData\Local\Arduino15\packages\MightyCore\hardware\avr\3.1.0\libraries\Wire\src\utility/twi.c:655

    // Slave Transmitter
    case TW_ST_SLA_ACK:          // addressed, returned ack
    case TW_ST_ARB_LOST_SLA_ACK: // arbitration lost, returned ack
      // enter slave transmitter mode
      twi_state = TWI_STX;
    1622:	84 e0       	ldi	r24, 0x04	; 4
    1624:	80 93 1a 02 	sts	0x021A, r24	; 0x80021a <twi_state>
C:\Users\LENOVO\AppData\Local\Arduino15\packages\MightyCore\hardware\avr\3.1.0\libraries\Wire\src\utility/twi.c:657
      // ready the tx buffer index for iteration
      twi_txBufferIndex = 0;
    1628:	10 92 98 01 	sts	0x0198, r1	; 0x800198 <twi_txBufferIndex>
C:\Users\LENOVO\AppData\Local\Arduino15\packages\MightyCore\hardware\avr\3.1.0\libraries\Wire\src\utility/twi.c:659
      // set tx buffer length to be zero, to verify if user changes it
      twi_txBufferLength = 0;
    162c:	10 92 97 01 	sts	0x0197, r1	; 0x800197 <twi_txBufferLength>
C:\Users\LENOVO\AppData\Local\Arduino15\packages\MightyCore\hardware\avr\3.1.0\libraries\Wire\src\utility/twi.c:662
      // request for txBuffer to be filled and length to be set
      // note: user must call twi_transmit(bytes, length) to do this
      twi_onSlaveTransmit();
    1630:	e0 91 0c 02 	lds	r30, 0x020C	; 0x80020c <twi_onSlaveTransmit>
    1634:	f0 91 0d 02 	lds	r31, 0x020D	; 0x80020d <twi_onSlaveTransmit+0x1>
    1638:	09 95       	icall
C:\Users\LENOVO\AppData\Local\Arduino15\packages\MightyCore\hardware\avr\3.1.0\libraries\Wire\src\utility/twi.c:664
      // if they didn't change buffer & length, initialize it
      if(0 == twi_txBufferLength){
    163a:	80 91 97 01 	lds	r24, 0x0197	; 0x800197 <twi_txBufferLength>
    163e:	81 11       	cpse	r24, r1
    1640:	0f c0       	rjmp	.+30     	; 0x1660 <__vector_17+0x14e>
C:\Users\LENOVO\AppData\Local\Arduino15\packages\MightyCore\hardware\avr\3.1.0\libraries\Wire\src\utility/twi.c:665
        twi_txBufferLength = 1;
    1642:	81 e0       	ldi	r24, 0x01	; 1
    1644:	80 93 97 01 	sts	0x0197, r24	; 0x800197 <twi_txBufferLength>
C:\Users\LENOVO\AppData\Local\Arduino15\packages\MightyCore\hardware\avr\3.1.0\libraries\Wire\src\utility/twi.c:666
        twi_txBuffer[0] = 0x00;
    1648:	10 92 77 01 	sts	0x0177, r1	; 0x800177 <twi_txBuffer>
    164c:	09 c0       	rjmp	.+18     	; 0x1660 <__vector_17+0x14e>
C:\Users\LENOVO\AppData\Local\Arduino15\packages\MightyCore\hardware\avr\3.1.0\libraries\Wire\src\utility/twi.c:535
  return(flag);
}

ISR(TWI_vect)
{
  switch(TW_STATUS){
    164e:	80 3c       	cpi	r24, 0xC0	; 192
    1650:	09 f4       	brne	.+2      	; 0x1654 <__vector_17+0x142>
    1652:	a7 cf       	rjmp	.-178    	; 0x15a2 <__vector_17+0x90>
    1654:	88 3c       	cpi	r24, 0xC8	; 200
    1656:	09 f4       	brne	.+2      	; 0x165a <__vector_17+0x148>
    1658:	a4 cf       	rjmp	.-184    	; 0x15a2 <__vector_17+0x90>
    165a:	88 3b       	cpi	r24, 0xB8	; 184
    165c:	09 f0       	breq	.+2      	; 0x1660 <__vector_17+0x14e>
    165e:	7e cf       	rjmp	.-260    	; 0x155c <__vector_17+0x4a>
C:\Users\LENOVO\AppData\Local\Arduino15\packages\MightyCore\hardware\avr\3.1.0\libraries\Wire\src\utility/twi.c:672
      }
      // transmit first byte from buffer, fall
      /* fall through */
    case TW_ST_DATA_ACK: // byte sent, ack returned
      // copy data to output register
      TWDR = twi_txBuffer[twi_txBufferIndex++];
    1660:	e0 91 98 01 	lds	r30, 0x0198	; 0x800198 <twi_txBufferIndex>
    1664:	81 e0       	ldi	r24, 0x01	; 1
    1666:	8e 0f       	add	r24, r30
    1668:	80 93 98 01 	sts	0x0198, r24	; 0x800198 <twi_txBufferIndex>
    166c:	f0 e0       	ldi	r31, 0x00	; 0
    166e:	e9 58       	subi	r30, 0x89	; 137
    1670:	fe 4f       	sbci	r31, 0xFE	; 254
    1672:	80 81       	ld	r24, Z
    1674:	83 b9       	out	0x03, r24	; 3
C:\Users\LENOVO\AppData\Local\Arduino15\packages\MightyCore\hardware\avr\3.1.0\libraries\Wire\src\utility/twi.c:674
      // if there is more to send, ack, otherwise nack
      if(twi_txBufferIndex < twi_txBufferLength){
    1676:	90 91 98 01 	lds	r25, 0x0198	; 0x800198 <twi_txBufferIndex>
    167a:	80 91 97 01 	lds	r24, 0x0197	; 0x800197 <twi_txBufferLength>
    167e:	2e c0       	rjmp	.+92     	; 0x16dc <__vector_17+0x1ca>
C:\Users\LENOVO\AppData\Local\Arduino15\packages\MightyCore\hardware\avr\3.1.0\libraries\Wire\src\utility/twi.c:540
  switch(TW_STATUS){
    // All Master
    case TW_START:     // sent start condition
    case TW_REP_START: // sent repeated start condition
      // copy device address and r/w bit to output register and ack
      TWDR = twi_slarw;
    1680:	80 91 13 02 	lds	r24, 0x0213	; 0x800213 <twi_slarw>
C:\Users\LENOVO\AppData\Local\Arduino15\packages\MightyCore\hardware\avr\3.1.0\libraries\Wire\src\utility/twi.c:550
    case TW_MT_SLA_ACK:  // slave receiver acked address
    case TW_MT_DATA_ACK: // slave receiver acked data
      // if there is data to send, send it, otherwise stop
      if(twi_masterBufferIndex < twi_masterBufferLength){
        // copy data to output register and ack
        TWDR = twi_masterBuffer[twi_masterBufferIndex++];
    1684:	83 b9       	out	0x03, r24	; 3
twi_reply():
C:\Users\LENOVO\AppData\Local\Arduino15\packages\MightyCore\hardware\avr\3.1.0\libraries\Wire\src\utility/twi.c:421
 */
void twi_reply(uint8_t ack)
{
  // transmit master read ready signal, with or without ack
  if(ack){
    TWCR = _BV(TWEN) | _BV(TWIE) | _BV(TWINT) | _BV(TWEA);
    1686:	85 ec       	ldi	r24, 0xC5	; 197
C:\Users\LENOVO\AppData\Local\Arduino15\packages\MightyCore\hardware\avr\3.1.0\libraries\Wire\src\utility/twi.c:423
  }else{
    TWCR = _BV(TWEN) | _BV(TWIE) | _BV(TWINT);
    1688:	86 bf       	out	0x36, r24	; 54
    168a:	68 cf       	rjmp	.-304    	; 0x155c <__vector_17+0x4a>
__vector_17():
C:\Users\LENOVO\AppData\Local\Arduino15\packages\MightyCore\hardware\avr\3.1.0\libraries\Wire\src\utility/twi.c:548

    // Master Transmitter
    case TW_MT_SLA_ACK:  // slave receiver acked address
    case TW_MT_DATA_ACK: // slave receiver acked data
      // if there is data to send, send it, otherwise stop
      if(twi_masterBufferIndex < twi_masterBufferLength){
    168c:	90 91 15 02 	lds	r25, 0x0215	; 0x800215 <twi_masterBufferIndex>
    1690:	80 91 14 02 	lds	r24, 0x0214	; 0x800214 <twi_masterBufferLength>
    1694:	98 17       	cp	r25, r24
    1696:	a8 f5       	brcc	.+106    	; 0x1702 <__vector_17+0x1f0>
C:\Users\LENOVO\AppData\Local\Arduino15\packages\MightyCore\hardware\avr\3.1.0\libraries\Wire\src\utility/twi.c:550
        // copy data to output register and ack
        TWDR = twi_masterBuffer[twi_masterBufferIndex++];
    1698:	80 91 16 02 	lds	r24, 0x0216	; 0x800216 <twi_masterBuffer>
    169c:	90 91 17 02 	lds	r25, 0x0217	; 0x800217 <twi_masterBuffer+0x1>
    16a0:	e0 91 15 02 	lds	r30, 0x0215	; 0x800215 <twi_masterBufferIndex>
    16a4:	21 e0       	ldi	r18, 0x01	; 1
    16a6:	2e 0f       	add	r18, r30
    16a8:	20 93 15 02 	sts	0x0215, r18	; 0x800215 <twi_masterBufferIndex>
    16ac:	e8 0f       	add	r30, r24
    16ae:	f9 2f       	mov	r31, r25
    16b0:	f1 1d       	adc	r31, r1
    16b2:	80 81       	ld	r24, Z
    16b4:	e7 cf       	rjmp	.-50     	; 0x1684 <__vector_17+0x172>
C:\Users\LENOVO\AppData\Local\Arduino15\packages\MightyCore\hardware\avr\3.1.0\libraries\Wire\src\utility/twi.c:581
      break;

    // Master Receiver
    case TW_MR_DATA_ACK: // data received, ack sent
      // put byte into buffer
      twi_masterBuffer[twi_masterBufferIndex++] = TWDR;
    16b6:	20 91 16 02 	lds	r18, 0x0216	; 0x800216 <twi_masterBuffer>
    16ba:	30 91 17 02 	lds	r19, 0x0217	; 0x800217 <twi_masterBuffer+0x1>
    16be:	e0 91 15 02 	lds	r30, 0x0215	; 0x800215 <twi_masterBufferIndex>
    16c2:	81 e0       	ldi	r24, 0x01	; 1
    16c4:	8e 0f       	add	r24, r30
    16c6:	80 93 15 02 	sts	0x0215, r24	; 0x800215 <twi_masterBufferIndex>
    16ca:	83 b1       	in	r24, 0x03	; 3
    16cc:	e2 0f       	add	r30, r18
    16ce:	f3 2f       	mov	r31, r19
    16d0:	f1 1d       	adc	r31, r1
    16d2:	80 83       	st	Z, r24
C:\Users\LENOVO\AppData\Local\Arduino15\packages\MightyCore\hardware\avr\3.1.0\libraries\Wire\src\utility/twi.c:585
      /* fall through */
    case TW_MR_SLA_ACK:  // address sent, ack received
      // ack if more bytes are expected, otherwise nack
      if(twi_masterBufferIndex < twi_masterBufferLength){
    16d4:	90 91 15 02 	lds	r25, 0x0215	; 0x800215 <twi_masterBufferIndex>
    16d8:	80 91 14 02 	lds	r24, 0x0214	; 0x800214 <twi_masterBufferLength>
C:\Users\LENOVO\AppData\Local\Arduino15\packages\MightyCore\hardware\avr\3.1.0\libraries\Wire\src\utility/twi.c:674
      /* fall through */
    case TW_ST_DATA_ACK: // byte sent, ack returned
      // copy data to output register
      TWDR = twi_txBuffer[twi_txBufferIndex++];
      // if there is more to send, ack, otherwise nack
      if(twi_txBufferIndex < twi_txBufferLength){
    16dc:	98 17       	cp	r25, r24
    16de:	98 f2       	brcs	.-90     	; 0x1686 <__vector_17+0x174>
twi_reply():
C:\Users\LENOVO\AppData\Local\Arduino15\packages\MightyCore\hardware\avr\3.1.0\libraries\Wire\src\utility/twi.c:423
{
  // transmit master read ready signal, with or without ack
  if(ack){
    TWCR = _BV(TWEN) | _BV(TWIE) | _BV(TWINT) | _BV(TWEA);
  }else{
    TWCR = _BV(TWEN) | _BV(TWIE) | _BV(TWINT);
    16e0:	85 e8       	ldi	r24, 0x85	; 133
    16e2:	d2 cf       	rjmp	.-92     	; 0x1688 <__vector_17+0x176>
__vector_17():
C:\Users\LENOVO\AppData\Local\Arduino15\packages\MightyCore\hardware\avr\3.1.0\libraries\Wire\src\utility/twi.c:593
        twi_reply(0);
      }
      break;
    case TW_MR_DATA_NACK: // data received, nack sent
      // put final byte into buffer
      twi_masterBuffer[twi_masterBufferIndex++] = TWDR;
    16e4:	20 91 16 02 	lds	r18, 0x0216	; 0x800216 <twi_masterBuffer>
    16e8:	30 91 17 02 	lds	r19, 0x0217	; 0x800217 <twi_masterBuffer+0x1>
    16ec:	e0 91 15 02 	lds	r30, 0x0215	; 0x800215 <twi_masterBufferIndex>
    16f0:	81 e0       	ldi	r24, 0x01	; 1
    16f2:	8e 0f       	add	r24, r30
    16f4:	80 93 15 02 	sts	0x0215, r24	; 0x800215 <twi_masterBufferIndex>
    16f8:	83 b1       	in	r24, 0x03	; 3
    16fa:	e2 0f       	add	r30, r18
    16fc:	f3 2f       	mov	r31, r19
    16fe:	f1 1d       	adc	r31, r1
    1700:	80 83       	st	Z, r24
C:\Users\LENOVO\AppData\Local\Arduino15\packages\MightyCore\hardware\avr\3.1.0\libraries\Wire\src\utility/twi.c:594
  if (twi_sendStop)
    1702:	80 91 19 02 	lds	r24, 0x0219	; 0x800219 <twi_sendStop>
    1706:	81 11       	cpse	r24, r1
    1708:	56 cf       	rjmp	.-340    	; 0x15b6 <__vector_17+0xa4>
C:\Users\LENOVO\AppData\Local\Arduino15\packages\MightyCore\hardware\avr\3.1.0\libraries\Wire\src\utility/twi.c:597
          twi_stop();
  else {
    twi_inRepStart = true;  // we're going to send the START
    170a:	81 e0       	ldi	r24, 0x01	; 1
    170c:	80 93 12 02 	sts	0x0212, r24	; 0x800212 <twi_inRepStart>
C:\Users\LENOVO\AppData\Local\Arduino15\packages\MightyCore\hardware\avr\3.1.0\libraries\Wire\src\utility/twi.c:601
    // don't enable the interrupt. We'll generate the start, but we
    // avoid handling the interrupt until we're in the next transaction,
    // at the point where we would normally issue the start.
    TWCR = _BV(TWINT) | _BV(TWSTA)| _BV(TWEN) ;
    1710:	84 ea       	ldi	r24, 0xA4	; 164
twi_reply():
C:\Users\LENOVO\AppData\Local\Arduino15\packages\MightyCore\hardware\avr\3.1.0\libraries\Wire\src\utility/twi.c:421
 */
void twi_reply(uint8_t ack)
{
  // transmit master read ready signal, with or without ack
  if(ack){
    TWCR = _BV(TWEN) | _BV(TWIE) | _BV(TWINT) | _BV(TWEA);
    1712:	86 bf       	out	0x36, r24	; 54
__vector_17():
C:\Users\LENOVO\AppData\Local\Arduino15\packages\MightyCore\hardware\avr\3.1.0\libraries\Wire\src\utility/twi.c:685
    case TW_ST_DATA_NACK: // received nack, we are done
    case TW_ST_LAST_DATA: // received ack, but we are done already!
      // ack future responses
      twi_reply(1);
      // leave slave receiver state
      twi_state = TWI_READY;
    1714:	10 92 1a 02 	sts	0x021A, r1	; 0x80021a <twi_state>
    1718:	21 cf       	rjmp	.-446    	; 0x155c <__vector_17+0x4a>
twi_releaseBus():
C:\Users\LENOVO\AppData\Local\Arduino15\packages\MightyCore\hardware\avr\3.1.0\libraries\Wire\src\utility/twi.c:474
 * Output   none
 */
void twi_releaseBus(void)
{
  // release bus
  TWCR = _BV(TWEN) | _BV(TWIE) | _BV(TWEA) | _BV(TWINT);
    171a:	85 ec       	ldi	r24, 0xC5	; 197
    171c:	86 bf       	out	0x36, r24	; 54
C:\Users\LENOVO\AppData\Local\Arduino15\packages\MightyCore\hardware\avr\3.1.0\libraries\Wire\src\utility/twi.c:477

  // update twi state
  twi_state = TWI_READY;
    171e:	10 92 1a 02 	sts	0x021A, r1	; 0x80021a <twi_state>
__vector_17():
C:\Users\LENOVO\AppData\Local\Arduino15\packages\MightyCore\hardware\avr\3.1.0\libraries\Wire\src\utility/twi.c:637
      break;
    case TW_SR_STOP: // stop or repeated start condition received
      // ack future responses and leave slave receiver state
      twi_releaseBus();
      // put a null char after data if there's room
      if(twi_rxBufferIndex < TWI_BUFFER_SIZE){
    1722:	80 91 b9 01 	lds	r24, 0x01B9	; 0x8001b9 <twi_rxBufferIndex>
    1726:	80 32       	cpi	r24, 0x20	; 32
    1728:	30 f4       	brcc	.+12     	; 0x1736 <__vector_17+0x224>
C:\Users\LENOVO\AppData\Local\Arduino15\packages\MightyCore\hardware\avr\3.1.0\libraries\Wire\src\utility/twi.c:638
        twi_rxBuffer[twi_rxBufferIndex] = '\0';
    172a:	e0 91 b9 01 	lds	r30, 0x01B9	; 0x8001b9 <twi_rxBufferIndex>
    172e:	f0 e0       	ldi	r31, 0x00	; 0
    1730:	e7 56       	subi	r30, 0x67	; 103
    1732:	fe 4f       	sbci	r31, 0xFE	; 254
    1734:	10 82       	st	Z, r1
C:\Users\LENOVO\AppData\Local\Arduino15\packages\MightyCore\hardware\avr\3.1.0\libraries\Wire\src\utility/twi.c:641
      }
      // callback to user defined callback
      twi_onSlaveReceive(twi_rxBuffer, twi_rxBufferIndex);
    1736:	60 91 b9 01 	lds	r22, 0x01B9	; 0x8001b9 <twi_rxBufferIndex>
    173a:	70 e0       	ldi	r23, 0x00	; 0
    173c:	e0 91 0a 02 	lds	r30, 0x020A	; 0x80020a <twi_onSlaveReceive>
    1740:	f0 91 0b 02 	lds	r31, 0x020B	; 0x80020b <twi_onSlaveReceive+0x1>
    1744:	89 e9       	ldi	r24, 0x99	; 153
    1746:	91 e0       	ldi	r25, 0x01	; 1
    1748:	09 95       	icall
C:\Users\LENOVO\AppData\Local\Arduino15\packages\MightyCore\hardware\avr\3.1.0\libraries\Wire\src\utility/twi.c:643
      // since we submit rx buffer to "wire" library, we can reset it
      twi_rxBufferIndex = 0;
    174a:	10 92 b9 01 	sts	0x01B9, r1	; 0x8001b9 <twi_rxBufferIndex>
    174e:	06 cf       	rjmp	.-500    	; 0x155c <__vector_17+0x4a>
C:\Users\LENOVO\AppData\Local\Arduino15\packages\MightyCore\hardware\avr\3.1.0\libraries\Wire\src\utility/twi.c:692

    // All
    case TW_NO_INFO:   // no state information
      break;
    case TW_BUS_ERROR: // bus error, illegal stop/start
      twi_error = TW_BUS_ERROR;
    1750:	10 92 18 02 	sts	0x0218, r1	; 0x800218 <twi_error>
    1754:	30 cf       	rjmp	.-416    	; 0x15b6 <__vector_17+0xa4>

00001756 <global constructors keyed to 65535_0_sketch_mar27a.ino.cpp.o.3377>:
_GLOBAL__I_65535_0_sketch_mar27a.ino.cpp.o.3377():
    1756:	10 92 42 02 	sts	0x0242, r1	; 0x800242 <Serial+0x3>
    175a:	10 92 41 02 	sts	0x0241, r1	; 0x800241 <Serial+0x2>
    175e:	88 ee       	ldi	r24, 0xE8	; 232
    1760:	93 e0       	ldi	r25, 0x03	; 3
    1762:	a0 e0       	ldi	r26, 0x00	; 0
    1764:	b0 e0       	ldi	r27, 0x00	; 0
    1766:	80 93 43 02 	sts	0x0243, r24	; 0x800243 <Serial+0x4>
    176a:	90 93 44 02 	sts	0x0244, r25	; 0x800244 <Serial+0x5>
    176e:	a0 93 45 02 	sts	0x0245, r26	; 0x800245 <Serial+0x6>
    1772:	b0 93 46 02 	sts	0x0246, r27	; 0x800246 <Serial+0x7>
    1776:	2c e9       	ldi	r18, 0x9C	; 156
    1778:	30 e0       	ldi	r19, 0x00	; 0
    177a:	30 93 40 02 	sts	0x0240, r19	; 0x800240 <Serial+0x1>
    177e:	20 93 3f 02 	sts	0x023F, r18	; 0x80023f <Serial>
    1782:	20 e4       	ldi	r18, 0x40	; 64
    1784:	30 e0       	ldi	r19, 0x00	; 0
    1786:	30 93 4c 02 	sts	0x024C, r19	; 0x80024c <Serial+0xd>
    178a:	20 93 4b 02 	sts	0x024B, r18	; 0x80024b <Serial+0xc>
    178e:	49 e2       	ldi	r20, 0x29	; 41
    1790:	50 e0       	ldi	r21, 0x00	; 0
    1792:	50 93 4e 02 	sts	0x024E, r21	; 0x80024e <Serial+0xf>
    1796:	40 93 4d 02 	sts	0x024D, r20	; 0x80024d <Serial+0xe>
    179a:	4b e2       	ldi	r20, 0x2B	; 43
    179c:	50 e0       	ldi	r21, 0x00	; 0
    179e:	50 93 50 02 	sts	0x0250, r21	; 0x800250 <Serial+0x11>
    17a2:	40 93 4f 02 	sts	0x024F, r20	; 0x80024f <Serial+0x10>
    17a6:	4a e2       	ldi	r20, 0x2A	; 42
    17a8:	50 e0       	ldi	r21, 0x00	; 0
    17aa:	50 93 52 02 	sts	0x0252, r21	; 0x800252 <Serial+0x13>
    17ae:	40 93 51 02 	sts	0x0251, r20	; 0x800251 <Serial+0x12>
    17b2:	30 93 54 02 	sts	0x0254, r19	; 0x800254 <Serial+0x15>
    17b6:	20 93 53 02 	sts	0x0253, r18	; 0x800253 <Serial+0x14>
    17ba:	2c e2       	ldi	r18, 0x2C	; 44
    17bc:	30 e0       	ldi	r19, 0x00	; 0
    17be:	30 93 56 02 	sts	0x0256, r19	; 0x800256 <Serial+0x17>
    17c2:	20 93 55 02 	sts	0x0255, r18	; 0x800255 <Serial+0x16>
    17c6:	10 92 58 02 	sts	0x0258, r1	; 0x800258 <Serial+0x19>
    17ca:	10 92 59 02 	sts	0x0259, r1	; 0x800259 <Serial+0x1a>
    17ce:	10 92 5a 02 	sts	0x025A, r1	; 0x80025a <Serial+0x1b>
    17d2:	10 92 5b 02 	sts	0x025B, r1	; 0x80025b <Serial+0x1c>
    17d6:	10 92 df 02 	sts	0x02DF, r1	; 0x8002df <Wire+0x3>
    17da:	10 92 de 02 	sts	0x02DE, r1	; 0x8002de <Wire+0x2>
    17de:	80 93 e0 02 	sts	0x02E0, r24	; 0x8002e0 <Wire+0x4>
    17e2:	90 93 e1 02 	sts	0x02E1, r25	; 0x8002e1 <Wire+0x5>
    17e6:	a0 93 e2 02 	sts	0x02E2, r26	; 0x8002e2 <Wire+0x6>
    17ea:	b0 93 e3 02 	sts	0x02E3, r27	; 0x8002e3 <Wire+0x7>
    17ee:	8e ea       	ldi	r24, 0xAE	; 174
    17f0:	90 e0       	ldi	r25, 0x00	; 0
    17f2:	90 93 dd 02 	sts	0x02DD, r25	; 0x8002dd <Wire+0x1>
    17f6:	80 93 dc 02 	sts	0x02DC, r24	; 0x8002dc <Wire>
    17fa:	10 92 01 03 	sts	0x0301, r1	; 0x800301 <lcd+0x3>
    17fe:	10 92 00 03 	sts	0x0300, r1	; 0x800300 <lcd+0x2>
    1802:	80 ec       	ldi	r24, 0xC0	; 192
    1804:	90 e0       	ldi	r25, 0x00	; 0
    1806:	90 93 ff 02 	sts	0x02FF, r25	; 0x8002ff <lcd+0x1>
    180a:	80 93 fe 02 	sts	0x02FE, r24	; 0x8002fe <lcd>
    180e:	87 e2       	ldi	r24, 0x27	; 39
    1810:	80 93 02 03 	sts	0x0302, r24	; 0x800302 <lcd+0x4>
    1814:	80 e1       	ldi	r24, 0x10	; 16
    1816:	80 93 07 03 	sts	0x0307, r24	; 0x800307 <lcd+0x9>
    181a:	92 e0       	ldi	r25, 0x02	; 2
    181c:	90 93 08 03 	sts	0x0308, r25	; 0x800308 <lcd+0xa>
    1820:	10 92 09 03 	sts	0x0309, r1	; 0x800309 <lcd+0xb>
    1824:	10 92 e9 02 	sts	0x02E9, r1	; 0x8002e9 <strip+0x1>
    1828:	10 92 f0 02 	sts	0x02F0, r1	; 0x8002f0 <strip+0x8>
    182c:	10 92 f7 02 	sts	0x02F7, r1	; 0x8002f7 <strip+0xf>
    1830:	10 92 f8 02 	sts	0x02F8, r1	; 0x8002f8 <strip+0x10>
    1834:	10 92 f9 02 	sts	0x02F9, r1	; 0x8002f9 <strip+0x11>
    1838:	10 92 fa 02 	sts	0x02FA, r1	; 0x8002fa <strip+0x12>
    183c:	81 e0       	ldi	r24, 0x01	; 1
    183e:	80 93 f6 02 	sts	0x02F6, r24	; 0x8002f6 <strip+0xe>
    1842:	80 93 f3 02 	sts	0x02F3, r24	; 0x8002f3 <strip+0xb>
    1846:	10 92 f4 02 	sts	0x02F4, r1	; 0x8002f4 <strip+0xc>
    184a:	90 93 f5 02 	sts	0x02F5, r25	; 0x8002f5 <strip+0xd>
    184e:	80 93 e8 02 	sts	0x02E8, r24	; 0x8002e8 <strip>
    1852:	8b e1       	ldi	r24, 0x1B	; 27
    1854:	90 e0       	ldi	r25, 0x00	; 0
    1856:	90 93 ed 02 	sts	0x02ED, r25	; 0x8002ed <strip+0x5>
    185a:	80 93 ec 02 	sts	0x02EC, r24	; 0x8002ec <strip+0x4>
    185e:	0e 94 96 19 	call	0x332c	; 0x332c <malloc>
    1862:	90 93 f2 02 	sts	0x02F2, r25	; 0x8002f2 <strip+0xa>
    1866:	80 93 f1 02 	sts	0x02F1, r24	; 0x8002f1 <strip+0x9>
    186a:	00 97       	sbiw	r24, 0x00	; 0
    186c:	89 f1       	breq	.+98     	; 0x18d0 <global constructors keyed to 65535_0_sketch_mar27a.ino.cpp.o.3377+0x17a>
    186e:	2b e1       	ldi	r18, 0x1B	; 27
    1870:	fc 01       	movw	r30, r24
    1872:	11 92       	st	Z+, r1
    1874:	2a 95       	dec	r18
    1876:	e9 f7       	brne	.-6      	; 0x1872 <global constructors keyed to 65535_0_sketch_mar27a.ino.cpp.o.3377+0x11c>
    1878:	89 e0       	ldi	r24, 0x09	; 9
    187a:	90 e0       	ldi	r25, 0x00	; 0
    187c:	90 93 eb 02 	sts	0x02EB, r25	; 0x8002eb <strip+0x3>
    1880:	80 93 ea 02 	sts	0x02EA, r24	; 0x8002ea <strip+0x2>
    1884:	84 e0       	ldi	r24, 0x04	; 4
    1886:	90 e0       	ldi	r25, 0x00	; 0
    1888:	90 93 ef 02 	sts	0x02EF, r25	; 0x8002ef <strip+0x7>
    188c:	80 93 ee 02 	sts	0x02EE, r24	; 0x8002ee <strip+0x6>
    1890:	80 91 e9 02 	lds	r24, 0x02E9	; 0x8002e9 <strip+0x1>
    1894:	88 23       	and	r24, r24
    1896:	41 f0       	breq	.+16     	; 0x18a8 <global constructors keyed to 65535_0_sketch_mar27a.ino.cpp.o.3377+0x152>
    1898:	61 e0       	ldi	r22, 0x01	; 1
    189a:	84 e0       	ldi	r24, 0x04	; 4
    189c:	0e 94 ad 03 	call	0x75a	; 0x75a <pinMode>
    18a0:	60 e0       	ldi	r22, 0x00	; 0
    18a2:	84 e0       	ldi	r24, 0x04	; 4
    18a4:	0e 94 55 03 	call	0x6aa	; 0x6aa <digitalWrite>
    18a8:	e1 ed       	ldi	r30, 0xD1	; 209
    18aa:	f3 e0       	ldi	r31, 0x03	; 3
    18ac:	e4 91       	lpm	r30, Z
    18ae:	f0 e0       	ldi	r31, 0x00	; 0
    18b0:	ee 0f       	add	r30, r30
    18b2:	ff 1f       	adc	r31, r31
    18b4:	ed 53       	subi	r30, 0x3D	; 61
    18b6:	fc 4f       	sbci	r31, 0xFC	; 252
    18b8:	85 91       	lpm	r24, Z+
    18ba:	94 91       	lpm	r25, Z
    18bc:	90 93 fc 02 	sts	0x02FC, r25	; 0x8002fc <strip+0x14>
    18c0:	80 93 fb 02 	sts	0x02FB, r24	; 0x8002fb <strip+0x13>
    18c4:	e7 ea       	ldi	r30, 0xA7	; 167
    18c6:	f3 e0       	ldi	r31, 0x03	; 3
    18c8:	e4 91       	lpm	r30, Z
    18ca:	e0 93 fd 02 	sts	0x02FD, r30	; 0x8002fd <strip+0x15>
    18ce:	08 95       	ret
    18d0:	10 92 ed 02 	sts	0x02ED, r1	; 0x8002ed <strip+0x5>
    18d4:	10 92 ec 02 	sts	0x02EC, r1	; 0x8002ec <strip+0x4>
    18d8:	10 92 eb 02 	sts	0x02EB, r1	; 0x8002eb <strip+0x3>
    18dc:	10 92 ea 02 	sts	0x02EA, r1	; 0x8002ea <strip+0x2>
    18e0:	d1 cf       	rjmp	.-94     	; 0x1884 <global constructors keyed to 65535_0_sketch_mar27a.ino.cpp.o.3377+0x12e>

000018e2 <main>:
main():
C:\Users\LENOVO\AppData\Local\Arduino15\packages\MightyCore\hardware\avr\3.1.0\cores\MCUdude_corefiles/main.cpp:34

//void setupUSB() __attribute__((weak));
//void setupUSB() { }

int main(void)
{
    18e2:	cf 93       	push	r28
    18e4:	df 93       	push	r29
    18e6:	cd b7       	in	r28, 0x3d	; 61
    18e8:	de b7       	in	r29, 0x3e	; 62
    18ea:	cf 54       	subi	r28, 0x4F	; 79
    18ec:	d1 09       	sbc	r29, r1
    18ee:	0f b6       	in	r0, 0x3f	; 63
    18f0:	f8 94       	cli
    18f2:	de bf       	out	0x3e, r29	; 62
    18f4:	0f be       	out	0x3f, r0	; 63
    18f6:	cd bf       	out	0x3d, r28	; 61
init():
C:\Users\LENOVO\AppData\Local\Arduino15\packages\MightyCore\hardware\avr\3.1.0\cores\MCUdude_corefiles/wiring.c:945

void init()
{
  // this needs to be called before setup() or some functions won't
  // work there
  sei();
    18f8:	78 94       	sei
C:\Users\LENOVO\AppData\Local\Arduino15\packages\MightyCore\hardware\avr\3.1.0\cores\MCUdude_corefiles/wiring.c:966
#if defined(__AVR_ATmega64__) || defined(__AVR_ATmega128__)
  // CPU specific: different values for the ATmega64/128
  TCCR0 |= _BV(WGM01) | _BV(WGM00) | _BV(CS02);
#elif defined(TCCR0) && defined(CS01) && defined(CS00)
  // This combination is for the ATmega8535, ATmega8, ATmega16, ATmega32, ATmega8515, ATmega162
  TCCR0 |= _BV(CS01) | _BV(CS00);
    18fa:	83 b7       	in	r24, 0x33	; 51
    18fc:	83 60       	ori	r24, 0x03	; 3
    18fe:	83 bf       	out	0x33, r24	; 51
C:\Users\LENOVO\AppData\Local\Arduino15\packages\MightyCore\hardware\avr\3.1.0\cores\MCUdude_corefiles/wiring.c:968
  #if defined(WGM00) && defined(WGM01) // The ATmega8 doesn't have WGM00 and WGM01
    TCCR0 |= _BV(WGM01) | _BV(WGM00);
    1900:	83 b7       	in	r24, 0x33	; 51
    1902:	88 64       	ori	r24, 0x48	; 72
    1904:	83 bf       	out	0x33, r24	; 51
C:\Users\LENOVO\AppData\Local\Arduino15\packages\MightyCore\hardware\avr\3.1.0\cores\MCUdude_corefiles/wiring.c:982
  #error Timer 0 prescale factor 64 not set correctly
#endif

// Enable timer 0 overflow interrupt
#if defined(TIMSK) && defined(TOIE0)
  TIMSK |= _BV(TOIE0);
    1906:	89 b7       	in	r24, 0x39	; 57
    1908:	81 60       	ori	r24, 0x01	; 1
    190a:	89 bf       	out	0x39, r24	; 57
C:\Users\LENOVO\AppData\Local\Arduino15\packages\MightyCore\hardware\avr\3.1.0\cores\MCUdude_corefiles/wiring.c:995
// this is better for motors as it ensures an even waveform
// note, however, that fast pwm mode can achieve a frequency of up
// 8 MHz (with a 16 MHz clock) at 50% duty cycle

#if defined(TCCR1B) && defined(CS11) && defined(CS10)
  TCCR1B = _BV(CS11); // Set timer 1 prescale factor to 64
    190c:	92 e0       	ldi	r25, 0x02	; 2
    190e:	9e bd       	out	0x2e, r25	; 46
C:\Users\LENOVO\AppData\Local\Arduino15\packages\MightyCore\hardware\avr\3.1.0\cores\MCUdude_corefiles/wiring.c:997
#if F_CPU >= 8000000L
  TCCR1B |= _BV(CS10);
    1910:	8e b5       	in	r24, 0x2e	; 46
    1912:	81 60       	ori	r24, 0x01	; 1
    1914:	8e bd       	out	0x2e, r24	; 46
C:\Users\LENOVO\AppData\Local\Arduino15\packages\MightyCore\hardware\avr\3.1.0\cores\MCUdude_corefiles/wiring.c:1006
#if F_CPU >= 8000000L
  TCCR1 |= _BV(CS10);
#endif
#endif
#if defined(TCCR1A) && defined(WGM10)
  TCCR1A |= _BV(WGM10); // Put timer 1 in 8-bit phase correct pwm mode
    1916:	8f b5       	in	r24, 0x2f	; 47
    1918:	81 60       	ori	r24, 0x01	; 1
    191a:	8f bd       	out	0x2f, r24	; 47
C:\Users\LENOVO\AppData\Local\Arduino15\packages\MightyCore\hardware\avr\3.1.0\cores\MCUdude_corefiles/wiring.c:1011
#endif

// Set timer 2 prescale factor to 64
#if defined(TCCR2) && defined(CS22)
  TCCR2 |= _BV(CS22);
    191c:	85 b5       	in	r24, 0x25	; 37
    191e:	84 60       	ori	r24, 0x04	; 4
    1920:	85 bd       	out	0x25, r24	; 37
C:\Users\LENOVO\AppData\Local\Arduino15\packages\MightyCore\hardware\avr\3.1.0\cores\MCUdude_corefiles/wiring.c:1020
  TCCR2A |= _BV(CS22);
#endif

// Configure timer 2 for phase correct pwm (8-bit)
#if defined(TCCR2) && defined(WGM20)
  TCCR2 |= _BV(WGM20);
    1922:	85 b5       	in	r24, 0x25	; 37
    1924:	80 64       	ori	r24, 0x40	; 64
    1926:	85 bd       	out	0x25, r24	; 37
C:\Users\LENOVO\AppData\Local\Arduino15\packages\MightyCore\hardware\avr\3.1.0\cores\MCUdude_corefiles/wiring.c:1052
#if defined(ADCSRA)
  // set a2d prescaler so we are inside the desired 50-200 KHz range.
  #if F_CPU >= 16000000 // 16 MHz / 128 = 125 KHz
    ADCSRA = _BV(ADPS2) | _BV(ADPS1) | _BV(ADPS0) | _BV(ADEN);
  #elif F_CPU >= 8000000 // 8 MHz / 64 = 125 KHz
    ADCSRA = _BV(ADPS2) | _BV(ADPS1) | _BV(ADEN);
    1928:	86 e8       	ldi	r24, 0x86	; 134
    192a:	86 b9       	out	0x06, r24	; 6
C:\Users\LENOVO\AppData\Local\Arduino15\packages\MightyCore\hardware\avr\3.1.0\cores\MCUdude_corefiles/wiring.c:1068

  // The bootloader connects pins 0 and 1 to the USART; disconnect them
  // here so they can be used as normal digital i/o; they will be
  // reconnected in Serial.begin()
#if defined(UCSRB)
  UCSRB = 0;
    192c:	1a b8       	out	0x0a, r1	; 10
begin():
C:\Users\LENOVO\AppData\Local\Arduino15\packages\MightyCore\hardware\avr\3.1.0\cores\MCUdude_corefiles/HardwareSerial.cpp:121

void HardwareSerial::begin(unsigned long baud, byte config)
{
  // Try u2x mode first
  uint16_t baud_setting = (F_CPU / 4 / baud - 1) / 2;
  *_ucsra = 1 << U2X0;
    192e:	e0 91 4f 02 	lds	r30, 0x024F	; 0x80024f <Serial+0x10>
    1932:	f0 91 50 02 	lds	r31, 0x0250	; 0x800250 <Serial+0x11>
    1936:	90 83       	st	Z, r25
C:\Users\LENOVO\AppData\Local\Arduino15\packages\MightyCore\hardware\avr\3.1.0\cores\MCUdude_corefiles/HardwareSerial.cpp:135
    *_ucsra = 0;
    baud_setting = (F_CPU / 8 / baud - 1) / 2;
  }

  // assign the baud_setting, a.k.a. ubrr (USART Baud Rate Register)
  *_ubrrh = baud_setting >> 8;
    1938:	e0 91 4b 02 	lds	r30, 0x024B	; 0x80024b <Serial+0xc>
    193c:	f0 91 4c 02 	lds	r31, 0x024C	; 0x80024c <Serial+0xd>
    1940:	10 82       	st	Z, r1
C:\Users\LENOVO\AppData\Local\Arduino15\packages\MightyCore\hardware\avr\3.1.0\cores\MCUdude_corefiles/HardwareSerial.cpp:136
  *_ubrrl = baud_setting;
    1942:	e0 91 4d 02 	lds	r30, 0x024D	; 0x80024d <Serial+0xe>
    1946:	f0 91 4e 02 	lds	r31, 0x024E	; 0x80024e <Serial+0xf>
    194a:	97 e6       	ldi	r25, 0x67	; 103
    194c:	90 83       	st	Z, r25
C:\Users\LENOVO\AppData\Local\Arduino15\packages\MightyCore\hardware\avr\3.1.0\cores\MCUdude_corefiles/HardwareSerial.cpp:138

  _written = false;
    194e:	10 92 57 02 	sts	0x0257, r1	; 0x800257 <Serial+0x18>
C:\Users\LENOVO\AppData\Local\Arduino15\packages\MightyCore\hardware\avr\3.1.0\cores\MCUdude_corefiles/HardwareSerial.cpp:146
#if defined(__AVR_ATmega8__) || defined(__AVR_ATmega8515__) || defined(__AVR_ATmega162__) \
|| defined(__AVR_ATmega8535__) || defined(__AVR_ATmega16__)|| defined(__AVR_ATmega32__)   \
|| defined(__AVR_ATmega162__)
  config |= 0x80; // select UCSRC register (shared with UBRRH)
#endif
  *_ucsrc = config;
    1952:	e0 91 53 02 	lds	r30, 0x0253	; 0x800253 <Serial+0x14>
    1956:	f0 91 54 02 	lds	r31, 0x0254	; 0x800254 <Serial+0x15>
    195a:	80 83       	st	Z, r24
C:\Users\LENOVO\AppData\Local\Arduino15\packages\MightyCore\hardware\avr\3.1.0\cores\MCUdude_corefiles/HardwareSerial.cpp:148
  
  *_ucsrb |= _BV(RXEN0) | _BV(TXEN0) | _BV(RXCIE0);
    195c:	e0 91 51 02 	lds	r30, 0x0251	; 0x800251 <Serial+0x12>
    1960:	f0 91 52 02 	lds	r31, 0x0252	; 0x800252 <Serial+0x13>
    1964:	80 81       	ld	r24, Z
    1966:	88 69       	ori	r24, 0x98	; 152
    1968:	80 83       	st	Z, r24
C:\Users\LENOVO\AppData\Local\Arduino15\packages\MightyCore\hardware\avr\3.1.0\cores\MCUdude_corefiles/HardwareSerial.cpp:149
  *_ucsrb &= ~_BV(UDRIE0);
    196a:	e0 91 51 02 	lds	r30, 0x0251	; 0x800251 <Serial+0x12>
    196e:	f0 91 52 02 	lds	r31, 0x0252	; 0x800252 <Serial+0x13>
    1972:	80 81       	ld	r24, Z
    1974:	8f 7d       	andi	r24, 0xDF	; 223
    1976:	80 83       	st	Z, r24
setTimeout():
C:\Users\LENOVO\AppData\Local\Arduino15\packages\MightyCore\hardware\avr\3.1.0\cores\MCUdude_corefiles/Stream.cpp:89
// Public Methods
//////////////////////////////////////////////////////////////

void Stream::setTimeout(unsigned long timeout)  // sets the maximum number of milliseconds to wait
{
  _timeout = timeout;
    1978:	8a e0       	ldi	r24, 0x0A	; 10
    197a:	90 e0       	ldi	r25, 0x00	; 0
    197c:	a0 e0       	ldi	r26, 0x00	; 0
    197e:	b0 e0       	ldi	r27, 0x00	; 0
    1980:	80 93 43 02 	sts	0x0243, r24	; 0x800243 <Serial+0x4>
    1984:	90 93 44 02 	sts	0x0244, r25	; 0x800244 <Serial+0x5>
    1988:	a0 93 45 02 	sts	0x0245, r26	; 0x800245 <Serial+0x6>
    198c:	b0 93 46 02 	sts	0x0246, r27	; 0x800246 <Serial+0x7>
setup():
D:\KULIAH SEMESTER 4\LAB PROYEKSI ELEKTRONIKA\smart-drawer\firmware\atmega16\JAM DIGITAL\sketch_mar27a/sketch_mar27a.ino:79
void setup() {
  
  Serial.begin(9600);
  Serial.setTimeout(10);

  pinMode(BTN_SET, INPUT_PULLUP);
    1990:	62 e0       	ldi	r22, 0x02	; 2
    1992:	80 e0       	ldi	r24, 0x00	; 0
    1994:	0e 94 ad 03 	call	0x75a	; 0x75a <pinMode>
D:\KULIAH SEMESTER 4\LAB PROYEKSI ELEKTRONIKA\smart-drawer\firmware\atmega16\JAM DIGITAL\sketch_mar27a/sketch_mar27a.ino:80
  pinMode(BTN_UP, INPUT_PULLUP);
    1998:	62 e0       	ldi	r22, 0x02	; 2
    199a:	81 e0       	ldi	r24, 0x01	; 1
    199c:	0e 94 ad 03 	call	0x75a	; 0x75a <pinMode>
D:\KULIAH SEMESTER 4\LAB PROYEKSI ELEKTRONIKA\smart-drawer\firmware\atmega16\JAM DIGITAL\sketch_mar27a/sketch_mar27a.ino:81
  pinMode(BTN_DOWN, INPUT_PULLUP);
    19a0:	62 e0       	ldi	r22, 0x02	; 2
    19a2:	82 e0       	ldi	r24, 0x02	; 2
    19a4:	0e 94 ad 03 	call	0x75a	; 0x75a <pinMode>
D:\KULIAH SEMESTER 4\LAB PROYEKSI ELEKTRONIKA\smart-drawer\firmware\atmega16\JAM DIGITAL\sketch_mar27a/sketch_mar27a.ino:82
  pinMode(BUZZER, OUTPUT);
    19a8:	61 e0       	ldi	r22, 0x01	; 1
    19aa:	8e e0       	ldi	r24, 0x0E	; 14
    19ac:	0e 94 ad 03 	call	0x75a	; 0x75a <pinMode>
D:\KULIAH SEMESTER 4\LAB PROYEKSI ELEKTRONIKA\smart-drawer\firmware\atmega16\JAM DIGITAL\sketch_mar27a/sketch_mar27a.ino:83
  Wire.begin(); rtc.begin(); lcd.init(); lcd.backlight(); strip.begin();strip.setBrightness(255);
    19b0:	0e 94 83 03 	call	0x706	; 0x706 <TwoWire::begin() [clone .constprop.13]>
begin():
c:\Users\LENOVO\Documents\Arduino\libraries\RTClib\src/RTC_DS1307.cpp:15
    @param  wireInstance pointer to the I2C bus
    @return True if Wire can find DS1307 or false otherwise.
*/
/**************************************************************************/
bool RTC_DS1307::begin(TwoWire *wireInstance) {
  if (i2c_dev)
    19b4:	80 91 10 02 	lds	r24, 0x0210	; 0x800210 <rtc>
    19b8:	90 91 11 02 	lds	r25, 0x0211	; 0x800211 <rtc+0x1>
    19bc:	00 97       	sbiw	r24, 0x00	; 0
    19be:	11 f0       	breq	.+4      	; 0x19c4 <main+0xe2>
operator delete():
C:\Users\LENOVO\AppData\Local\Arduino15\packages\MightyCore\hardware\avr\3.1.0\cores\MCUdude_corefiles/new.cpp:88
void * operator new[](std::size_t size, void *place) noexcept {
  return operator new(size, place);
}

[[gnu::weak]] void operator delete(void * ptr) noexcept {
  free(ptr);
    19c0:	0e 94 32 1a 	call	0x3464	; 0x3464 <free>
new_helper():
C:\Users\LENOVO\AppData\Local\Arduino15\packages\MightyCore\hardware\avr\3.1.0\cores\MCUdude_corefiles/new.cpp:44
static void * new_helper(std::size_t size) {
  // Even zero-sized allocations should return a unique pointer, but
  // malloc does not guarantee this
  if (size == 0)
    size = 1;
  return malloc(size);
    19c4:	86 e0       	ldi	r24, 0x06	; 6
    19c6:	90 e0       	ldi	r25, 0x00	; 0
    19c8:	0e 94 96 19 	call	0x332c	; 0x332c <malloc>
    19cc:	8c 01       	movw	r16, r24
__base_ctor ():
c:\Users\LENOVO\Documents\Arduino\libraries\Adafruit_BusIO/Adafruit_I2CDevice.cpp:11
 *    @brief  Create an I2C device at a given address
 *    @param  addr The 7-bit I2C address for the device
 *    @param  theWire The I2C bus to use, defaults to &Wire
 */
Adafruit_I2CDevice::Adafruit_I2CDevice(uint8_t addr, TwoWire *theWire) {
  _addr = addr;
    19ce:	88 e6       	ldi	r24, 0x68	; 104
    19d0:	d8 01       	movw	r26, r16
    19d2:	8c 93       	st	X, r24
c:\Users\LENOVO\Documents\Arduino\libraries\Adafruit_BusIO/Adafruit_I2CDevice.cpp:12
  _wire = theWire;
    19d4:	8c ed       	ldi	r24, 0xDC	; 220
    19d6:	92 e0       	ldi	r25, 0x02	; 2
    19d8:	12 96       	adiw	r26, 0x02	; 2
    19da:	9c 93       	st	X, r25
    19dc:	8e 93       	st	-X, r24
    19de:	11 97       	sbiw	r26, 0x01	; 1
c:\Users\LENOVO\Documents\Arduino\libraries\Adafruit_BusIO/Adafruit_I2CDevice.cpp:13
  _begun = false;
    19e0:	13 96       	adiw	r26, 0x03	; 3
    19e2:	1c 92       	st	X, r1
    19e4:	13 97       	sbiw	r26, 0x03	; 3
c:\Users\LENOVO\Documents\Arduino\libraries\Adafruit_BusIO/Adafruit_I2CDevice.cpp:19
#ifdef ARDUINO_ARCH_SAMD
  _maxBufferSize = 250; // as defined in Wire.h's RingBuffer
#elif defined(ESP32)
  _maxBufferSize = I2C_BUFFER_LENGTH;
#else
  _maxBufferSize = 32;
    19e6:	80 e2       	ldi	r24, 0x20	; 32
    19e8:	90 e0       	ldi	r25, 0x00	; 0
    19ea:	15 96       	adiw	r26, 0x05	; 5
    19ec:	9c 93       	st	X, r25
    19ee:	8e 93       	st	-X, r24
    19f0:	14 97       	sbiw	r26, 0x04	; 4
begin():
c:\Users\LENOVO\Documents\Arduino\libraries\RTClib\src/RTC_DS1307.cpp:17
    delete i2c_dev;
  i2c_dev = new Adafruit_I2CDevice(DS1307_ADDRESS, wireInstance);
    19f2:	10 93 11 02 	sts	0x0211, r17	; 0x800211 <rtc+0x1>
    19f6:	00 93 10 02 	sts	0x0210, r16	; 0x800210 <rtc>
c:\Users\LENOVO\Documents\Arduino\libraries\Adafruit_BusIO/Adafruit_I2CDevice.cpp:31
 * with a scan. 99% of sensors/devices don't mind, but once in a while they
 * don't respond well to a scan!
 *    @return True if I2C initialized and a device with the addr found
 */
bool Adafruit_I2CDevice::begin(bool addr_detect) {
  _wire->begin();
    19fa:	0e 94 83 03 	call	0x706	; 0x706 <TwoWire::begin() [clone .constprop.13]>
c:\Users\LENOVO\Documents\Arduino\libraries\Adafruit_BusIO/Adafruit_I2CDevice.cpp:32
  _begun = true;
    19fe:	81 e0       	ldi	r24, 0x01	; 1
    1a00:	f8 01       	movw	r30, r16
    1a02:	83 83       	std	Z+3, r24	; 0x03
c:\Users\LENOVO\Documents\Arduino\libraries\Adafruit_BusIO/Adafruit_I2CDevice.cpp:35

  if (addr_detect) {
    return detected();
    1a04:	c8 01       	movw	r24, r16
    1a06:	0e 94 a1 05 	call	0xb42	; 0xb42 <Adafruit_I2CDevice::detected()>
init_priv():
c:\Users\LENOVO\Documents\Arduino\libraries\LiquidCrystal_I2C/LiquidCrystal_I2C.cpp:61
	init_priv();
}

void LiquidCrystal_I2C::init_priv()
{
	Wire.begin();
    1a0a:	0e 94 83 03 	call	0x706	; 0x706 <TwoWire::begin() [clone .constprop.13]>
c:\Users\LENOVO\Documents\Arduino\libraries\LiquidCrystal_I2C/LiquidCrystal_I2C.cpp:62
	_displayfunction = LCD_4BITMODE | LCD_1LINE | LCD_5x8DOTS;
    1a0e:	10 92 03 03 	sts	0x0303, r1	; 0x800303 <lcd+0x5>
c:\Users\LENOVO\Documents\Arduino\libraries\LiquidCrystal_I2C/LiquidCrystal_I2C.cpp:63
	begin(_cols, _rows);  
    1a12:	80 91 08 03 	lds	r24, 0x0308	; 0x800308 <lcd+0xa>
begin():
c:\Users\LENOVO\Documents\Arduino\libraries\LiquidCrystal_I2C/LiquidCrystal_I2C.cpp:67
}

void LiquidCrystal_I2C::begin(uint8_t cols, uint8_t lines, uint8_t dotsize) {
	if (lines > 1) {
    1a16:	82 30       	cpi	r24, 0x02	; 2
    1a18:	18 f0       	brcs	.+6      	; 0x1a20 <main+0x13e>
c:\Users\LENOVO\Documents\Arduino\libraries\LiquidCrystal_I2C/LiquidCrystal_I2C.cpp:68
		_displayfunction |= LCD_2LINE;
    1a1a:	98 e0       	ldi	r25, 0x08	; 8
    1a1c:	90 93 03 03 	sts	0x0303, r25	; 0x800303 <lcd+0x5>
c:\Users\LENOVO\Documents\Arduino\libraries\LiquidCrystal_I2C/LiquidCrystal_I2C.cpp:70
	}
	_numlines = lines;
    1a20:	80 93 06 03 	sts	0x0306, r24	; 0x800306 <lcd+0x8>
c:\Users\LENOVO\Documents\Arduino\libraries\LiquidCrystal_I2C/LiquidCrystal_I2C.cpp:80
	}

	// SEE PAGE 45/46 FOR INITIALIZATION SPECIFICATION!
	// according to datasheet, we need at least 40ms after power rises above 2.7V
	// before sending commands. Arduino can turn on way befer 4.5V so we'll wait 50
	delay(50); 
    1a24:	62 e3       	ldi	r22, 0x32	; 50
    1a26:	70 e0       	ldi	r23, 0x00	; 0
    1a28:	80 e0       	ldi	r24, 0x00	; 0
    1a2a:	90 e0       	ldi	r25, 0x00	; 0
    1a2c:	0e 94 1a 04 	call	0x834	; 0x834 <delay>
c:\Users\LENOVO\Documents\Arduino\libraries\LiquidCrystal_I2C/LiquidCrystal_I2C.cpp:83
  
	// Now we pull both RS and R/W low to begin commands
	expanderWrite(_backlightval);	// reset expanderand turn backlight off (Bit 8 =1)
    1a30:	60 91 09 03 	lds	r22, 0x0309	; 0x800309 <lcd+0xb>
    1a34:	8e ef       	ldi	r24, 0xFE	; 254
    1a36:	92 e0       	ldi	r25, 0x02	; 2
    1a38:	0e 94 7b 06 	call	0xcf6	; 0xcf6 <LiquidCrystal_I2C::expanderWrite(unsigned char)>
c:\Users\LENOVO\Documents\Arduino\libraries\LiquidCrystal_I2C/LiquidCrystal_I2C.cpp:84
	delay(1000);
    1a3c:	68 ee       	ldi	r22, 0xE8	; 232
    1a3e:	73 e0       	ldi	r23, 0x03	; 3
    1a40:	80 e0       	ldi	r24, 0x00	; 0
    1a42:	90 e0       	ldi	r25, 0x00	; 0
    1a44:	0e 94 1a 04 	call	0x834	; 0x834 <delay>
c:\Users\LENOVO\Documents\Arduino\libraries\LiquidCrystal_I2C/LiquidCrystal_I2C.cpp:91
  	//put the LCD into 4 bit mode
	// this is according to the hitachi HD44780 datasheet
	// figure 24, pg 46
	
	  // we start in 8bit mode, try to set 4 bit mode
   write4bits(0x03 << 4);
    1a48:	60 e3       	ldi	r22, 0x30	; 48
    1a4a:	8e ef       	ldi	r24, 0xFE	; 254
    1a4c:	92 e0       	ldi	r25, 0x02	; 2
    1a4e:	0e 94 8f 06 	call	0xd1e	; 0xd1e <LiquidCrystal_I2C::write4bits(unsigned char)>
c:\Users\LENOVO\Documents\Arduino\libraries\LiquidCrystal_I2C/LiquidCrystal_I2C.cpp:92
   delayMicroseconds(4500); // wait min 4.1ms
    1a52:	84 e9       	ldi	r24, 0x94	; 148
    1a54:	91 e1       	ldi	r25, 0x11	; 17
    1a56:	0e 94 e9 03 	call	0x7d2	; 0x7d2 <delayMicroseconds>
c:\Users\LENOVO\Documents\Arduino\libraries\LiquidCrystal_I2C/LiquidCrystal_I2C.cpp:95
   
   // second try
   write4bits(0x03 << 4);
    1a5a:	60 e3       	ldi	r22, 0x30	; 48
    1a5c:	8e ef       	ldi	r24, 0xFE	; 254
    1a5e:	92 e0       	ldi	r25, 0x02	; 2
    1a60:	0e 94 8f 06 	call	0xd1e	; 0xd1e <LiquidCrystal_I2C::write4bits(unsigned char)>
c:\Users\LENOVO\Documents\Arduino\libraries\LiquidCrystal_I2C/LiquidCrystal_I2C.cpp:96
   delayMicroseconds(4500); // wait min 4.1ms
    1a64:	84 e9       	ldi	r24, 0x94	; 148
    1a66:	91 e1       	ldi	r25, 0x11	; 17
    1a68:	0e 94 e9 03 	call	0x7d2	; 0x7d2 <delayMicroseconds>
c:\Users\LENOVO\Documents\Arduino\libraries\LiquidCrystal_I2C/LiquidCrystal_I2C.cpp:99
   
   // third go!
   write4bits(0x03 << 4); 
    1a6c:	60 e3       	ldi	r22, 0x30	; 48
    1a6e:	8e ef       	ldi	r24, 0xFE	; 254
    1a70:	92 e0       	ldi	r25, 0x02	; 2
    1a72:	0e 94 8f 06 	call	0xd1e	; 0xd1e <LiquidCrystal_I2C::write4bits(unsigned char)>
c:\Users\LENOVO\Documents\Arduino\libraries\LiquidCrystal_I2C/LiquidCrystal_I2C.cpp:100
   delayMicroseconds(150);
    1a76:	86 e9       	ldi	r24, 0x96	; 150
    1a78:	90 e0       	ldi	r25, 0x00	; 0
    1a7a:	0e 94 e9 03 	call	0x7d2	; 0x7d2 <delayMicroseconds>
c:\Users\LENOVO\Documents\Arduino\libraries\LiquidCrystal_I2C/LiquidCrystal_I2C.cpp:103
   
   // finally, set to 4-bit interface
   write4bits(0x02 << 4); 
    1a7e:	60 e2       	ldi	r22, 0x20	; 32
    1a80:	8e ef       	ldi	r24, 0xFE	; 254
    1a82:	92 e0       	ldi	r25, 0x02	; 2
    1a84:	0e 94 8f 06 	call	0xd1e	; 0xd1e <LiquidCrystal_I2C::write4bits(unsigned char)>
c:\Users\LENOVO\Documents\Arduino\libraries\LiquidCrystal_I2C/LiquidCrystal_I2C.cpp:107


	// set # lines, font size, etc.
	command(LCD_FUNCTIONSET | _displayfunction);  
    1a88:	60 91 03 03 	lds	r22, 0x0303	; 0x800303 <lcd+0x5>
    1a8c:	60 62       	ori	r22, 0x20	; 32
command():
c:\Users\LENOVO\Documents\Arduino\libraries\LiquidCrystal_I2C/LiquidCrystal_I2C.cpp:233


/*********** mid level commands, for sending data/cmds */

inline void LiquidCrystal_I2C::command(uint8_t value) {
	send(value, 0);
    1a8e:	40 e0       	ldi	r20, 0x00	; 0
    1a90:	8e ef       	ldi	r24, 0xFE	; 254
    1a92:	92 e0       	ldi	r25, 0x02	; 2
    1a94:	0e 94 ab 06 	call	0xd56	; 0xd56 <LiquidCrystal_I2C::send(unsigned char, unsigned char)>
begin():
c:\Users\LENOVO\Documents\Arduino\libraries\LiquidCrystal_I2C/LiquidCrystal_I2C.cpp:110

	// set # lines, font size, etc.
	command(LCD_FUNCTIONSET | _displayfunction);  
	
	// turn the display on with no cursor or blinking default
	_displaycontrol = LCD_DISPLAYON | LCD_CURSOROFF | LCD_BLINKOFF;
    1a98:	84 e0       	ldi	r24, 0x04	; 4
    1a9a:	80 93 04 03 	sts	0x0304, r24	; 0x800304 <lcd+0x6>
command():
c:\Users\LENOVO\Documents\Arduino\libraries\LiquidCrystal_I2C/LiquidCrystal_I2C.cpp:233


/*********** mid level commands, for sending data/cmds */

inline void LiquidCrystal_I2C::command(uint8_t value) {
	send(value, 0);
    1a9e:	40 e0       	ldi	r20, 0x00	; 0
    1aa0:	6c e0       	ldi	r22, 0x0C	; 12
    1aa2:	8e ef       	ldi	r24, 0xFE	; 254
    1aa4:	92 e0       	ldi	r25, 0x02	; 2
    1aa6:	0e 94 ab 06 	call	0xd56	; 0xd56 <LiquidCrystal_I2C::send(unsigned char, unsigned char)>
begin():
c:\Users\LENOVO\Documents\Arduino\libraries\LiquidCrystal_I2C/LiquidCrystal_I2C.cpp:114
	// turn the display on with no cursor or blinking default
	_displaycontrol = LCD_DISPLAYON | LCD_CURSOROFF | LCD_BLINKOFF;
	display();
	
	// clear it off
	clear();
    1aaa:	0e 94 f5 06 	call	0xdea	; 0xdea <LiquidCrystal_I2C::clear() [clone .constprop.46]>
c:\Users\LENOVO\Documents\Arduino\libraries\LiquidCrystal_I2C/LiquidCrystal_I2C.cpp:117
	
	// Initialize to default text direction (for roman languages)
	_displaymode = LCD_ENTRYLEFT | LCD_ENTRYSHIFTDECREMENT;
    1aae:	82 e0       	ldi	r24, 0x02	; 2
    1ab0:	80 93 05 03 	sts	0x0305, r24	; 0x800305 <lcd+0x7>
command():
c:\Users\LENOVO\Documents\Arduino\libraries\LiquidCrystal_I2C/LiquidCrystal_I2C.cpp:233


/*********** mid level commands, for sending data/cmds */

inline void LiquidCrystal_I2C::command(uint8_t value) {
	send(value, 0);
    1ab4:	40 e0       	ldi	r20, 0x00	; 0
    1ab6:	66 e0       	ldi	r22, 0x06	; 6
    1ab8:	8e ef       	ldi	r24, 0xFE	; 254
    1aba:	92 e0       	ldi	r25, 0x02	; 2
    1abc:	0e 94 ab 06 	call	0xd56	; 0xd56 <LiquidCrystal_I2C::send(unsigned char, unsigned char)>
    1ac0:	40 e0       	ldi	r20, 0x00	; 0
    1ac2:	62 e0       	ldi	r22, 0x02	; 2
    1ac4:	8e ef       	ldi	r24, 0xFE	; 254
    1ac6:	92 e0       	ldi	r25, 0x02	; 2
    1ac8:	0e 94 ab 06 	call	0xd56	; 0xd56 <LiquidCrystal_I2C::send(unsigned char, unsigned char)>
home():
c:\Users\LENOVO\Documents\Arduino\libraries\LiquidCrystal_I2C/LiquidCrystal_I2C.cpp:134
	delayMicroseconds(2000);  // this command takes a long time!
}

void LiquidCrystal_I2C::home(){
	command(LCD_RETURNHOME);  // set cursor position to zero
	delayMicroseconds(2000);  // this command takes a long time!
    1acc:	80 ed       	ldi	r24, 0xD0	; 208
    1ace:	97 e0       	ldi	r25, 0x07	; 7
    1ad0:	0e 94 e9 03 	call	0x7d2	; 0x7d2 <delayMicroseconds>
backlight():
c:\Users\LENOVO\Documents\Arduino\libraries\LiquidCrystal_I2C/LiquidCrystal_I2C.cpp:224
	_backlightval=LCD_NOBACKLIGHT;
	expanderWrite(0);
}

void LiquidCrystal_I2C::backlight(void) {
	_backlightval=LCD_BACKLIGHT;
    1ad4:	88 e0       	ldi	r24, 0x08	; 8
    1ad6:	80 93 09 03 	sts	0x0309, r24	; 0x800309 <lcd+0xb>
c:\Users\LENOVO\Documents\Arduino\libraries\LiquidCrystal_I2C/LiquidCrystal_I2C.cpp:225
	expanderWrite(0);
    1ada:	60 e0       	ldi	r22, 0x00	; 0
    1adc:	8e ef       	ldi	r24, 0xFE	; 254
    1ade:	92 e0       	ldi	r25, 0x02	; 2
    1ae0:	0e 94 7b 06 	call	0xcf6	; 0xcf6 <LiquidCrystal_I2C::expanderWrite(unsigned char)>
begin():
c:\Users\LENOVO\Documents\Arduino\libraries\Adafruit_NeoPixel/Adafruit_NeoPixel.cpp:145
/*!
  @brief   Configure NeoPixel pin for output.
  @returns False if we weren't able to claim resources required
*/
bool Adafruit_NeoPixel::begin(void) {
  if (pin >= 0) {
    1ae4:	80 91 ee 02 	lds	r24, 0x02EE	; 0x8002ee <strip+0x6>
    1ae8:	90 91 ef 02 	lds	r25, 0x02EF	; 0x8002ef <strip+0x7>
    1aec:	97 fd       	sbrc	r25, 7
    1aee:	33 c0       	rjmp	.+102    	; 0x1b56 <main+0x274>
c:\Users\LENOVO\Documents\Arduino\libraries\Adafruit_NeoPixel/Adafruit_NeoPixel.cpp:146
    pinMode(pin, OUTPUT);
    1af0:	61 e0       	ldi	r22, 0x01	; 1
    1af2:	0e 94 ad 03 	call	0x75a	; 0x75a <pinMode>
c:\Users\LENOVO\Documents\Arduino\libraries\Adafruit_NeoPixel/Adafruit_NeoPixel.cpp:147
    digitalWrite(pin, LOW);
    1af6:	60 e0       	ldi	r22, 0x00	; 0
    1af8:	80 91 ee 02 	lds	r24, 0x02EE	; 0x8002ee <strip+0x6>
    1afc:	0e 94 55 03 	call	0x6aa	; 0x6aa <digitalWrite>
c:\Users\LENOVO\Documents\Arduino\libraries\Adafruit_NeoPixel/Adafruit_NeoPixel.cpp:163
    return false;
  }
  
#endif

  begun = true;
    1b00:	81 e0       	ldi	r24, 0x01	; 1
    1b02:	80 93 e9 02 	sts	0x02E9, r24	; 0x8002e9 <strip+0x1>
setBrightness():
c:\Users\LENOVO\Documents\Arduino\libraries\Adafruit_NeoPixel/Adafruit_NeoPixel.cpp:3671
  // 8x8-bit multiply and taking the MSB. 'brightness' is a uint8_t,
  // adding 1 here may (intentionally) roll over...so 0 = max brightness
  // (color values are interpreted literally; no scaling), 1 = min
  // brightness (off), 255 = just below max brightness.
  uint8_t newBrightness = b + 1;
  if (newBrightness != brightness) { // Compare against prior value
    1b06:	20 91 f0 02 	lds	r18, 0x02F0	; 0x8002f0 <strip+0x8>
    1b0a:	22 23       	and	r18, r18
    1b0c:	61 f1       	breq	.+88     	; 0x1b66 <main+0x284>
c:\Users\LENOVO\Documents\Arduino\libraries\Adafruit_NeoPixel/Adafruit_NeoPixel.cpp:3682
    // and scale it (subsequent graphics commands also work at this
    // brightness level). If there's a significant step up in brightness,
    // the limited number of steps (quantization) in the old data will be
    // quite visible in the re-scaled version. For a non-destructive
    // change, you'll need to re-render the full strip data. C'est la vie.
    uint8_t c, *ptr = pixels,
    1b0e:	00 91 f1 02 	lds	r16, 0x02F1	; 0x8002f1 <strip+0x9>
    1b12:	10 91 f2 02 	lds	r17, 0x02F2	; 0x8002f2 <strip+0xa>
c:\Users\LENOVO\Documents\Arduino\libraries\Adafruit_NeoPixel/Adafruit_NeoPixel.cpp:3683
               oldBrightness = brightness - 1; // De-wrap old brightness value
    1b16:	21 50       	subi	r18, 0x01	; 1
c:\Users\LENOVO\Documents\Arduino\libraries\Adafruit_NeoPixel/Adafruit_NeoPixel.cpp:3685
    uint16_t scale;
    if (oldBrightness == 0)
    1b18:	09 f1       	breq	.+66     	; 0x1b5c <main+0x27a>
c:\Users\LENOVO\Documents\Arduino\libraries\Adafruit_NeoPixel/Adafruit_NeoPixel.cpp:3688
      scale = 0; // Avoid /0
    else if (b == 255)
      scale = 65535 / oldBrightness;
    1b1a:	30 e0       	ldi	r19, 0x00	; 0
    1b1c:	50 e0       	ldi	r21, 0x00	; 0
    1b1e:	40 e0       	ldi	r20, 0x00	; 0
    1b20:	6f ef       	ldi	r22, 0xFF	; 255
    1b22:	7f ef       	ldi	r23, 0xFF	; 255
    1b24:	80 e0       	ldi	r24, 0x00	; 0
    1b26:	90 e0       	ldi	r25, 0x00	; 0
    1b28:	0e 94 71 19 	call	0x32e2	; 0x32e2 <__divmodsi4>
main():
c:\Users\LENOVO\Documents\Arduino\libraries\Adafruit_NeoPixel/Adafruit_NeoPixel.cpp:3682
    // and scale it (subsequent graphics commands also work at this
    // brightness level). If there's a significant step up in brightness,
    // the limited number of steps (quantization) in the old data will be
    // quite visible in the re-scaled version. For a non-destructive
    // change, you'll need to re-render the full strip data. C'est la vie.
    uint8_t c, *ptr = pixels,
    1b2c:	f8 01       	movw	r30, r16
setBrightness():
c:\Users\LENOVO\Documents\Arduino\libraries\Adafruit_NeoPixel/Adafruit_NeoPixel.cpp:3691
      scale = 0; // Avoid /0
    else if (b == 255)
      scale = 65535 / oldBrightness;
    else
      scale = (((uint16_t)newBrightness << 8) - 1) / oldBrightness;
    for (uint16_t i = 0; i < numBytes; i++) {
    1b2e:	40 91 ec 02 	lds	r20, 0x02EC	; 0x8002ec <strip+0x4>
    1b32:	50 91 ed 02 	lds	r21, 0x02ED	; 0x8002ed <strip+0x5>
    1b36:	cf 01       	movw	r24, r30
    1b38:	80 1b       	sub	r24, r16
    1b3a:	91 0b       	sbc	r25, r17
    1b3c:	84 17       	cp	r24, r20
    1b3e:	95 07       	cpc	r25, r21
    1b40:	80 f4       	brcc	.+32     	; 0x1b62 <main+0x280>
c:\Users\LENOVO\Documents\Arduino\libraries\Adafruit_NeoPixel/Adafruit_NeoPixel.cpp:3693
      c = *ptr;
      *ptr++ = (c * scale) >> 8;
    1b42:	df 01       	movw	r26, r30
    1b44:	4d 91       	ld	r20, X+
    1b46:	42 9f       	mul	r20, r18
    1b48:	c0 01       	movw	r24, r0
    1b4a:	43 9f       	mul	r20, r19
    1b4c:	90 0d       	add	r25, r0
    1b4e:	11 24       	eor	r1, r1
    1b50:	90 83       	st	Z, r25
main():
    1b52:	fd 01       	movw	r30, r26
    1b54:	ec cf       	rjmp	.-40     	; 0x1b2e <main+0x24c>
begin():
c:\Users\LENOVO\Documents\Arduino\libraries\Adafruit_NeoPixel/Adafruit_NeoPixel.cpp:149
bool Adafruit_NeoPixel::begin(void) {
  if (pin >= 0) {
    pinMode(pin, OUTPUT);
    digitalWrite(pin, LOW);
  } else {
    begun = false;
    1b56:	10 92 e9 02 	sts	0x02E9, r1	; 0x8002e9 <strip+0x1>
    1b5a:	d5 cf       	rjmp	.-86     	; 0x1b06 <main+0x224>
main():
c:\Users\LENOVO\Documents\Arduino\libraries\Adafruit_NeoPixel/Adafruit_NeoPixel.cpp:3686
    // change, you'll need to re-render the full strip data. C'est la vie.
    uint8_t c, *ptr = pixels,
               oldBrightness = brightness - 1; // De-wrap old brightness value
    uint16_t scale;
    if (oldBrightness == 0)
      scale = 0; // Avoid /0
    1b5c:	30 e0       	ldi	r19, 0x00	; 0
    1b5e:	20 e0       	ldi	r18, 0x00	; 0
    1b60:	e5 cf       	rjmp	.-54     	; 0x1b2c <main+0x24a>
setBrightness():
c:\Users\LENOVO\Documents\Arduino\libraries\Adafruit_NeoPixel/Adafruit_NeoPixel.cpp:3695
      scale = (((uint16_t)newBrightness << 8) - 1) / oldBrightness;
    for (uint16_t i = 0; i < numBytes; i++) {
      c = *ptr;
      *ptr++ = (c * scale) >> 8;
    }
    brightness = newBrightness;
    1b62:	10 92 f0 02 	sts	0x02F0, r1	; 0x8002f0 <strip+0x8>
setup():
D:\KULIAH SEMESTER 4\LAB PROYEKSI ELEKTRONIKA\smart-drawer\firmware\atmega16\JAM DIGITAL\sketch_mar27a/sketch_mar27a.ino:85

  mode_lampu = EEPROM.read(10); alm_h = EEPROM.read(11); 
    1b66:	8a e0       	ldi	r24, 0x0A	; 10
    1b68:	90 e0       	ldi	r25, 0x00	; 0
    1b6a:	0e 94 e5 09 	call	0x13ca	; 0x13ca <EEPROMClass::read(int) [clone .isra.8]>
    1b6e:	18 2f       	mov	r17, r24
    1b70:	80 93 f6 01 	sts	0x01F6, r24	; 0x8001f6 <mode_lampu>
    1b74:	8b e0       	ldi	r24, 0x0B	; 11
    1b76:	90 e0       	ldi	r25, 0x00	; 0
    1b78:	0e 94 e5 09 	call	0x13ca	; 0x13ca <EEPROMClass::read(int) [clone .isra.8]>
    1b7c:	e8 2e       	mov	r14, r24
    1b7e:	80 93 f8 01 	sts	0x01F8, r24	; 0x8001f8 <alm_h>
D:\KULIAH SEMESTER 4\LAB PROYEKSI ELEKTRONIKA\smart-drawer\firmware\atmega16\JAM DIGITAL\sketch_mar27a/sketch_mar27a.ino:86
  alm_m = EEPROM.read(12); alm_on = EEPROM.read(13); nada_alarm = EEPROM.read(14);
    1b82:	8c e0       	ldi	r24, 0x0C	; 12
    1b84:	90 e0       	ldi	r25, 0x00	; 0
    1b86:	0e 94 e5 09 	call	0x13ca	; 0x13ca <EEPROMClass::read(int) [clone .isra.8]>
    1b8a:	f8 2e       	mov	r15, r24
    1b8c:	80 93 f7 01 	sts	0x01F7, r24	; 0x8001f7 <alm_m>
    1b90:	8d e0       	ldi	r24, 0x0D	; 13
    1b92:	90 e0       	ldi	r25, 0x00	; 0
    1b94:	0e 94 e5 09 	call	0x13ca	; 0x13ca <EEPROMClass::read(int) [clone .isra.8]>
    1b98:	08 2f       	mov	r16, r24
    1b9a:	80 93 f4 01 	sts	0x01F4, r24	; 0x8001f4 <alm_on>
    1b9e:	8e e0       	ldi	r24, 0x0E	; 14
    1ba0:	90 e0       	ldi	r25, 0x00	; 0
    1ba2:	0e 94 e5 09 	call	0x13ca	; 0x13ca <EEPROMClass::read(int) [clone .isra.8]>
    1ba6:	80 93 f5 01 	sts	0x01F5, r24	; 0x8001f5 <nada_alarm>
D:\KULIAH SEMESTER 4\LAB PROYEKSI ELEKTRONIKA\smart-drawer\firmware\atmega16\JAM DIGITAL\sketch_mar27a/sketch_mar27a.ino:88
  
  if (alm_h > 23) alm_h=6; if (alm_m > 59) alm_m=0; if (alm_on > 1) alm_on=1;
    1baa:	f7 e1       	ldi	r31, 0x17	; 23
    1bac:	fe 15       	cp	r31, r14
    1bae:	18 f4       	brcc	.+6      	; 0x1bb6 <main+0x2d4>
    1bb0:	96 e0       	ldi	r25, 0x06	; 6
    1bb2:	90 93 f8 01 	sts	0x01F8, r25	; 0x8001f8 <alm_h>
    1bb6:	2b e3       	ldi	r18, 0x3B	; 59
    1bb8:	2f 15       	cp	r18, r15
    1bba:	10 f4       	brcc	.+4      	; 0x1bc0 <main+0x2de>
    1bbc:	10 92 f7 01 	sts	0x01F7, r1	; 0x8001f7 <alm_m>
    1bc0:	02 30       	cpi	r16, 0x02	; 2
    1bc2:	18 f0       	brcs	.+6      	; 0x1bca <main+0x2e8>
    1bc4:	91 e0       	ldi	r25, 0x01	; 1
    1bc6:	90 93 f4 01 	sts	0x01F4, r25	; 0x8001f4 <alm_on>
D:\KULIAH SEMESTER 4\LAB PROYEKSI ELEKTRONIKA\smart-drawer\firmware\atmega16\JAM DIGITAL\sketch_mar27a/sketch_mar27a.ino:89
  if (nada_alarm < 1 || nada_alarm > 5) nada_alarm=1;
    1bca:	81 50       	subi	r24, 0x01	; 1
    1bcc:	85 30       	cpi	r24, 0x05	; 5
    1bce:	18 f0       	brcs	.+6      	; 0x1bd6 <main+0x2f4>
    1bd0:	81 e0       	ldi	r24, 0x01	; 1
    1bd2:	80 93 f5 01 	sts	0x01F5, r24	; 0x8001f5 <nada_alarm>
D:\KULIAH SEMESTER 4\LAB PROYEKSI ELEKTRONIKA\smart-drawer\firmware\atmega16\JAM DIGITAL\sketch_mar27a/sketch_mar27a.ino:90
  if (mode_lampu > 11) mode_lampu=0;
    1bd6:	1c 30       	cpi	r17, 0x0C	; 12
    1bd8:	10 f0       	brcs	.+4      	; 0x1bde <main+0x2fc>
    1bda:	10 92 f6 01 	sts	0x01F6, r1	; 0x8001f6 <mode_lampu>
loading_animation():
D:\KULIAH SEMESTER 4\LAB PROYEKSI ELEKTRONIKA\smart-drawer\firmware\atmega16\JAM DIGITAL\sketch_mar27a/sketch_mar27a.ino:415
  EEPROM.write(14, nada_alarm);
  lcd.clear(); lcd.setCursor(4, 0); lcd.print(F("SAVED!")); delay(800);
}

void loading_animation() {
  lcd.clear(); lcd.setCursor(0, 0); lcd.print(F("SMARTCLOCK......"));
    1bde:	0e 94 f5 06 	call	0xdea	; 0xdea <LiquidCrystal_I2C::clear() [clone .constprop.46]>
    1be2:	60 e0       	ldi	r22, 0x00	; 0
    1be4:	80 e0       	ldi	r24, 0x00	; 0
    1be6:	0e 94 c2 06 	call	0xd84	; 0xd84 <LiquidCrystal_I2C::setCursor(unsigned char, unsigned char) [clone .constprop.47]>
    1bea:	65 ee       	ldi	r22, 0xE5	; 229
    1bec:	72 e0       	ldi	r23, 0x02	; 2
    1bee:	8e ef       	ldi	r24, 0xFE	; 254
    1bf0:	92 e0       	ldi	r25, 0x02	; 2
    1bf2:	0e 94 53 04 	call	0x8a6	; 0x8a6 <Print::print(__FlashStringHelper const*)>
D:\KULIAH SEMESTER 4\LAB PROYEKSI ELEKTRONIKA\smart-drawer\firmware\atmega16\JAM DIGITAL\sketch_mar27a/sketch_mar27a.ino:416
  lcd.setCursor(0, 1); for (int i = 0; i < 16; i++) { lcd.write(255); delay(200); }
    1bf6:	61 e0       	ldi	r22, 0x01	; 1
    1bf8:	80 e0       	ldi	r24, 0x00	; 0
    1bfa:	0e 94 c2 06 	call	0xd84	; 0xd84 <LiquidCrystal_I2C::setCursor(unsigned char, unsigned char) [clone .constprop.47]>
    1bfe:	00 e1       	ldi	r16, 0x10	; 16
    1c00:	10 e0       	ldi	r17, 0x00	; 0
    1c02:	6f ef       	ldi	r22, 0xFF	; 255
    1c04:	8e ef       	ldi	r24, 0xFE	; 254
    1c06:	92 e0       	ldi	r25, 0x02	; 2
    1c08:	0e 94 ff 06 	call	0xdfe	; 0xdfe <LiquidCrystal_I2C::write(unsigned char)>
    1c0c:	68 ec       	ldi	r22, 0xC8	; 200
    1c0e:	70 e0       	ldi	r23, 0x00	; 0
    1c10:	80 e0       	ldi	r24, 0x00	; 0
    1c12:	90 e0       	ldi	r25, 0x00	; 0
    1c14:	0e 94 1a 04 	call	0x834	; 0x834 <delay>
    1c18:	01 50       	subi	r16, 0x01	; 1
    1c1a:	11 09       	sbc	r17, r1
    1c1c:	91 f7       	brne	.-28     	; 0x1c02 <main+0x320>
D:\KULIAH SEMESTER 4\LAB PROYEKSI ELEKTRONIKA\smart-drawer\firmware\atmega16\JAM DIGITAL\sketch_mar27a/sketch_mar27a.ino:417
  lcd.clear(); lcd.setCursor(0, 0); lcd.print(F("GFALFAAN"));
    1c1e:	0e 94 f5 06 	call	0xdea	; 0xdea <LiquidCrystal_I2C::clear() [clone .constprop.46]>
    1c22:	60 e0       	ldi	r22, 0x00	; 0
    1c24:	80 e0       	ldi	r24, 0x00	; 0
    1c26:	0e 94 c2 06 	call	0xd84	; 0xd84 <LiquidCrystal_I2C::setCursor(unsigned char, unsigned char) [clone .constprop.47]>
    1c2a:	6c ed       	ldi	r22, 0xDC	; 220
    1c2c:	72 e0       	ldi	r23, 0x02	; 2
    1c2e:	8e ef       	ldi	r24, 0xFE	; 254
    1c30:	92 e0       	ldi	r25, 0x02	; 2
    1c32:	0e 94 53 04 	call	0x8a6	; 0x8a6 <Print::print(__FlashStringHelper const*)>
D:\KULIAH SEMESTER 4\LAB PROYEKSI ELEKTRONIKA\smart-drawer\firmware\atmega16\JAM DIGITAL\sketch_mar27a/sketch_mar27a.ino:418
  lcd.setCursor(4, 1); lcd.print(F("JAM DIGITAL"));
    1c36:	61 e0       	ldi	r22, 0x01	; 1
    1c38:	84 e0       	ldi	r24, 0x04	; 4
    1c3a:	0e 94 c2 06 	call	0xd84	; 0xd84 <LiquidCrystal_I2C::setCursor(unsigned char, unsigned char) [clone .constprop.47]>
    1c3e:	60 ed       	ldi	r22, 0xD0	; 208
    1c40:	72 e0       	ldi	r23, 0x02	; 2
    1c42:	8e ef       	ldi	r24, 0xFE	; 254
    1c44:	92 e0       	ldi	r25, 0x02	; 2
    1c46:	0e 94 53 04 	call	0x8a6	; 0x8a6 <Print::print(__FlashStringHelper const*)>
D:\KULIAH SEMESTER 4\LAB PROYEKSI ELEKTRONIKA\smart-drawer\firmware\atmega16\JAM DIGITAL\sketch_mar27a/sketch_mar27a.ino:419
  digitalWrite(BUZZER, HIGH); delay(300); digitalWrite(BUZZER, LOW);
    1c4a:	61 e0       	ldi	r22, 0x01	; 1
    1c4c:	8e e0       	ldi	r24, 0x0E	; 14
    1c4e:	0e 94 55 03 	call	0x6aa	; 0x6aa <digitalWrite>
    1c52:	6c e2       	ldi	r22, 0x2C	; 44
    1c54:	71 e0       	ldi	r23, 0x01	; 1
    1c56:	80 e0       	ldi	r24, 0x00	; 0
    1c58:	90 e0       	ldi	r25, 0x00	; 0
    1c5a:	0e 94 1a 04 	call	0x834	; 0x834 <delay>
    1c5e:	60 e0       	ldi	r22, 0x00	; 0
    1c60:	8e e0       	ldi	r24, 0x0E	; 14
    1c62:	0e 94 55 03 	call	0x6aa	; 0x6aa <digitalWrite>
D:\KULIAH SEMESTER 4\LAB PROYEKSI ELEKTRONIKA\smart-drawer\firmware\atmega16\JAM DIGITAL\sketch_mar27a/sketch_mar27a.ino:420
  delay(1500); lcd.clear();
    1c66:	6c ed       	ldi	r22, 0xDC	; 220
    1c68:	75 e0       	ldi	r23, 0x05	; 5
    1c6a:	80 e0       	ldi	r24, 0x00	; 0
    1c6c:	90 e0       	ldi	r25, 0x00	; 0
    1c6e:	0e 94 1a 04 	call	0x834	; 0x834 <delay>
    1c72:	0e 94 f5 06 	call	0xdea	; 0xdea <LiquidCrystal_I2C::clear() [clone .constprop.46]>
loop():
D:\KULIAH SEMESTER 4\LAB PROYEKSI ELEKTRONIKA\smart-drawer\firmware\atmega16\JAM DIGITAL\sketch_mar27a/sketch_mar27a.ino:171
    
    // ===== PERUBAHAN: TERIMA JADWAL SHOLAT DARI ESP32 =====
    else if (strncmp(cmd, "JADWAL:", 7) == 0) {
      int s_h, s_m, d_h, d_m, a_h, a_m, m_h, m_m, i_h, i_m;
      // Parsing string "JADWAL:04:24,11:40,15:00,17:35,18:46"
      if (sscanf(cmd, "JADWAL:%d:%d,%d:%d,%d:%d,%d:%d,%d:%d", 
    1c76:	3e 01       	movw	r6, r28
    1c78:	31 e4       	ldi	r19, 0x41	; 65
    1c7a:	63 0e       	add	r6, r19
    1c7c:	71 1c       	adc	r7, r1
read():
c:\Users\LENOVO\Documents\Arduino\libraries\Adafruit_BusIO/Adafruit_I2CDevice.cpp:187
 */
bool Adafruit_I2CDevice::read(uint8_t *buffer, size_t len, bool stop) {
  size_t pos = 0;
  while (pos < len) {
    size_t read_len =
        ((len - pos) > maxBufferSize()) ? maxBufferSize() : (len - pos);
    1c7e:	07 e0       	ldi	r16, 0x07	; 7
    1c80:	a0 2e       	mov	r10, r16
    1c82:	b1 2c       	mov	r11, r1
now():
c:\Users\LENOVO\Documents\Arduino\libraries\RTClib\src/RTC_DS1307.cpp:57
    @return DateTime object containing the current date and time
*/
/**************************************************************************/
DateTime RTC_DS1307::now() {
  uint8_t buffer[7];
  buffer[0] = 0;
    1c84:	19 82       	std	Y+1, r1	; 0x01
c:\Users\LENOVO\Documents\Arduino\libraries\RTClib\src/RTC_DS1307.cpp:58
  i2c_dev->write_then_read(buffer, 1, buffer, 7);
    1c86:	c0 90 10 02 	lds	r12, 0x0210	; 0x800210 <rtc>
    1c8a:	d0 90 11 02 	lds	r13, 0x0211	; 0x800211 <rtc+0x1>
write():
c:\Users\LENOVO\Documents\Arduino\libraries\Adafruit_BusIO/Adafruit_I2CDevice.cpp:105
 *    @return True if write was successful, otherwise false.
 */
bool Adafruit_I2CDevice::write(const uint8_t *buffer, size_t len, bool stop,
                               const uint8_t *prefix_buffer,
                               size_t prefix_len) {
  if ((len + prefix_len) > maxBufferSize()) {
    1c8e:	d6 01       	movw	r26, r12
    1c90:	14 96       	adiw	r26, 0x04	; 4
    1c92:	8d 91       	ld	r24, X+
    1c94:	9c 91       	ld	r25, X
    1c96:	15 97       	sbiw	r26, 0x05	; 5
    1c98:	89 2b       	or	r24, r25
    1c9a:	09 f4       	brne	.+2      	; 0x1c9e <main+0x3bc>
    1c9c:	96 c0       	rjmp	.+300    	; 0x1dca <main+0x4e8>
c:\Users\LENOVO\Documents\Arduino\libraries\Adafruit_BusIO/Adafruit_I2CDevice.cpp:115
    DEBUG_SERIAL.println(F("\tI2CDevice could not write such a large buffer"));
#endif
    return false;
  }

  _wire->beginTransmission(_addr);
    1c9e:	8c 91       	ld	r24, X
beginTransmission():
C:\Users\LENOVO\AppData\Local\Arduino15\packages\MightyCore\hardware\avr\3.1.0\libraries\Wire\src/Wire.cpp:196
}

void TwoWire::beginTransmission(uint8_t address)
{
  // indicate that we are transmitting
  transmitting = 1;
    1ca0:	91 e0       	ldi	r25, 0x01	; 1
    1ca2:	90 93 1b 02 	sts	0x021B, r25	; 0x80021b <TwoWire::transmitting>
C:\Users\LENOVO\AppData\Local\Arduino15\packages\MightyCore\hardware\avr\3.1.0\libraries\Wire\src/Wire.cpp:198
  // set address of targeted slave
  txAddress = address;
    1ca6:	80 93 3d 02 	sts	0x023D, r24	; 0x80023d <TwoWire::txAddress>
C:\Users\LENOVO\AppData\Local\Arduino15\packages\MightyCore\hardware\avr\3.1.0\libraries\Wire\src/Wire.cpp:200
  // reset tx buffer iterator vars
  txBufferIndex = 0;
    1caa:	10 92 1c 02 	sts	0x021C, r1	; 0x80021c <TwoWire::txBufferIndex>
C:\Users\LENOVO\AppData\Local\Arduino15\packages\MightyCore\hardware\avr\3.1.0\libraries\Wire\src/Wire.cpp:201
  txBufferLength = 0;
    1cae:	10 92 3e 02 	sts	0x023E, r1	; 0x80023e <TwoWire::txBufferLength>
write():
    1cb2:	20 e0       	ldi	r18, 0x00	; 0
    1cb4:	41 e0       	ldi	r20, 0x01	; 1
    1cb6:	50 e0       	ldi	r21, 0x00	; 0
    1cb8:	be 01       	movw	r22, r28
    1cba:	6f 5f       	subi	r22, 0xFF	; 255
    1cbc:	7f 4f       	sbci	r23, 0xFF	; 255
    1cbe:	c6 01       	movw	r24, r12
    1cc0:	0e 94 83 05 	call	0xb06	; 0xb06 <Adafruit_I2CDevice::write(unsigned char const*, unsigned int, bool, unsigned char const*, unsigned int) [clone .part.1]>
write_then_read():
c:\Users\LENOVO\Documents\Arduino\libraries\Adafruit_BusIO/Adafruit_I2CDevice.cpp:250
 *    @return True if write & read was successful, otherwise false.
 */
bool Adafruit_I2CDevice::write_then_read(const uint8_t *write_buffer,
                                         size_t write_len, uint8_t *read_buffer,
                                         size_t read_len, bool stop) {
  if (!write(write_buffer, write_len, stop)) {
    1cc4:	88 23       	and	r24, r24
    1cc6:	09 f4       	brne	.+2      	; 0x1cca <main+0x3e8>
    1cc8:	80 c0       	rjmp	.+256    	; 0x1dca <main+0x4e8>
main():
c:\Users\LENOVO\Documents\Arduino\libraries\Adafruit_BusIO/Adafruit_I2CDevice.cpp:184
 *    @param  len Number of bytes from buffer to read.
 *    @param  stop Whether to send an I2C STOP signal on read
 *    @return True if read was successful, otherwise false.
 */
bool Adafruit_I2CDevice::read(uint8_t *buffer, size_t len, bool stop) {
  size_t pos = 0;
    1cca:	f1 2c       	mov	r15, r1
    1ccc:	e1 2c       	mov	r14, r1
twi_readFrom():
C:\Users\LENOVO\AppData\Local\Arduino15\packages\MightyCore\hardware\avr\3.1.0\libraries\Wire\src\utility/twi.c:187
  twi_sendStop = sendStop;
  // reset error state (0xFF.. no error occurred)
  twi_error = 0xFF;

  // initialize buffer iteration vars
  twi_masterBuffer = data;
    1cce:	1a eb       	ldi	r17, 0xBA	; 186
    1cd0:	21 2e       	mov	r2, r17
    1cd2:	11 e0       	ldi	r17, 0x01	; 1
    1cd4:	31 2e       	mov	r3, r17
C:\Users\LENOVO\AppData\Local\Arduino15\packages\MightyCore\hardware\avr\3.1.0\libraries\Wire\src\utility/twi.c:177
        twi_handleTimeout(twi_do_reset_on_timeout);
        return 0;
      }
    }
  #else
    while(TWI_READY != twi_state){
    1cd6:	80 91 1a 02 	lds	r24, 0x021A	; 0x80021a <twi_state>
    1cda:	81 11       	cpse	r24, r1
    1cdc:	fc cf       	rjmp	.-8      	; 0x1cd6 <main+0x3f4>
    1cde:	f6 01       	movw	r30, r12
    1ce0:	84 81       	ldd	r24, Z+4	; 0x04
    1ce2:	95 81       	ldd	r25, Z+5	; 0x05
    1ce4:	85 01       	movw	r16, r10
    1ce6:	0e 19       	sub	r16, r14
    1ce8:	1f 09       	sbc	r17, r15
    1cea:	80 17       	cp	r24, r16
    1cec:	91 07       	cpc	r25, r17
    1cee:	08 f4       	brcc	.+2      	; 0x1cf2 <main+0x410>
    1cf0:	8c 01       	movw	r16, r24
_read():
c:\Users\LENOVO\Documents\Arduino\libraries\Adafruit_BusIO/Adafruit_I2CDevice.cpp:202
#if defined(TinyWireM_h)
  size_t recv = _wire->requestFrom((uint8_t)_addr, (uint8_t)len);
#elif defined(ARDUINO_ARCH_MEGAAVR)
  size_t recv = _wire->requestFrom(_addr, len, stop);
#else
  size_t recv = _wire->requestFrom((uint8_t)_addr, (uint8_t)len, (uint8_t)stop);
    1cf2:	d6 01       	movw	r26, r12
    1cf4:	9c 91       	ld	r25, X
    1cf6:	80 2f       	mov	r24, r16
twi_readFrom():
C:\Users\LENOVO\AppData\Local\Arduino15\packages\MightyCore\hardware\avr\3.1.0\libraries\Wire\src\utility/twi.c:181
      continue;
    }
  #endif
  twi_state = TWI_MRX;
    1cf8:	b1 e0       	ldi	r27, 0x01	; 1
    1cfa:	b0 93 1a 02 	sts	0x021A, r27	; 0x80021a <twi_state>
read():
c:\Users\LENOVO\Documents\Arduino\libraries\Adafruit_BusIO/Adafruit_I2CDevice.cpp:188
bool Adafruit_I2CDevice::read(uint8_t *buffer, size_t len, bool stop) {
  size_t pos = 0;
  while (pos < len) {
    size_t read_len =
        ((len - pos) > maxBufferSize()) ? maxBufferSize() : (len - pos);
    bool read_stop = (pos < (len - read_len)) ? false : stop;
    1cfe:	41 e0       	ldi	r20, 0x01	; 1
    1d00:	95 01       	movw	r18, r10
    1d02:	20 1b       	sub	r18, r16
    1d04:	31 0b       	sbc	r19, r17
    1d06:	e2 16       	cp	r14, r18
    1d08:	f3 06       	cpc	r15, r19
    1d0a:	08 f4       	brcc	.+2      	; 0x1d0e <main+0x42c>
    1d0c:	40 e0       	ldi	r20, 0x00	; 0
twi_readFrom():
C:\Users\LENOVO\AppData\Local\Arduino15\packages\MightyCore\hardware\avr\3.1.0\libraries\Wire\src\utility/twi.c:182
  twi_sendStop = sendStop;
    1d0e:	40 93 19 02 	sts	0x0219, r20	; 0x800219 <twi_sendStop>
C:\Users\LENOVO\AppData\Local\Arduino15\packages\MightyCore\hardware\avr\3.1.0\libraries\Wire\src\utility/twi.c:184
  // reset error state (0xFF.. no error occurred)
  twi_error = 0xFF;
    1d12:	ef ef       	ldi	r30, 0xFF	; 255
    1d14:	e0 93 18 02 	sts	0x0218, r30	; 0x800218 <twi_error>
C:\Users\LENOVO\AppData\Local\Arduino15\packages\MightyCore\hardware\avr\3.1.0\libraries\Wire\src\utility/twi.c:187

  // initialize buffer iteration vars
  twi_masterBuffer = data;
    1d18:	30 92 17 02 	sts	0x0217, r3	; 0x800217 <twi_masterBuffer+0x1>
    1d1c:	20 92 16 02 	sts	0x0216, r2	; 0x800216 <twi_masterBuffer>
C:\Users\LENOVO\AppData\Local\Arduino15\packages\MightyCore\hardware\avr\3.1.0\libraries\Wire\src\utility/twi.c:188
  twi_masterBufferIndex = 0;
    1d20:	10 92 15 02 	sts	0x0215, r1	; 0x800215 <twi_masterBufferIndex>
C:\Users\LENOVO\AppData\Local\Arduino15\packages\MightyCore\hardware\avr\3.1.0\libraries\Wire\src\utility/twi.c:189
  twi_masterBufferLength = length-1;  // This is not intuitive, read on...
    1d24:	2f ef       	ldi	r18, 0xFF	; 255
    1d26:	28 0f       	add	r18, r24
    1d28:	20 93 14 02 	sts	0x0214, r18	; 0x800214 <twi_masterBufferLength>
C:\Users\LENOVO\AppData\Local\Arduino15\packages\MightyCore\hardware\avr\3.1.0\libraries\Wire\src\utility/twi.c:197
  // Therefore we must actually set NACK when the _next_ to last byte is
  // received, causing that NACK to be sent in response to receiving the last
  // expected byte of data.

  // build sla+w, slave device address + w bit
  twi_slarw = TW_READ;
    1d2c:	f1 e0       	ldi	r31, 0x01	; 1
    1d2e:	f0 93 13 02 	sts	0x0213, r31	; 0x800213 <twi_slarw>
C:\Users\LENOVO\AppData\Local\Arduino15\packages\MightyCore\hardware\avr\3.1.0\libraries\Wire\src\utility/twi.c:198
  twi_slarw |= address << 1;
    1d32:	20 91 13 02 	lds	r18, 0x0213	; 0x800213 <twi_slarw>
    1d36:	99 0f       	add	r25, r25
    1d38:	92 2b       	or	r25, r18
    1d3a:	90 93 13 02 	sts	0x0213, r25	; 0x800213 <twi_slarw>
C:\Users\LENOVO\AppData\Local\Arduino15\packages\MightyCore\hardware\avr\3.1.0\libraries\Wire\src\utility/twi.c:200

  if (true == twi_inRepStart) {
    1d3e:	90 91 12 02 	lds	r25, 0x0212	; 0x800212 <twi_inRepStart>
    1d42:	91 30       	cpi	r25, 0x01	; 1
    1d44:	c1 f5       	brne	.+112    	; 0x1db6 <main+0x4d4>
C:\Users\LENOVO\AppData\Local\Arduino15\packages\MightyCore\hardware\avr\3.1.0\libraries\Wire\src\utility/twi.c:207
    // (@@@ we hope), and the TWI statemachine is just waiting for the address byte.
    // We need to remove ourselves from the repeated start state before we enable interrupts,
    // since the ISR is ASYNC, and we could get confused if we hit the ISR before cleaning
    // up. Also, don't enable the START interrupt. There may be one pending from the
    // repeated start that we sent ourselves, and that would really confuse things.
    twi_inRepStart = false; // Remember, we're dealing with an ASYNC ISR
    1d46:	10 92 12 02 	sts	0x0212, r1	; 0x800212 <twi_inRepStart>
C:\Users\LENOVO\AppData\Local\Arduino15\packages\MightyCore\hardware\avr\3.1.0\libraries\Wire\src\utility/twi.c:219
          return 0;
        }
      } while(TWCR & _BV(TWWC));
    #else
      do {
        TWDR = twi_slarw;
    1d4a:	90 91 13 02 	lds	r25, 0x0213	; 0x800213 <twi_slarw>
    1d4e:	93 b9       	out	0x03, r25	; 3
C:\Users\LENOVO\AppData\Local\Arduino15\packages\MightyCore\hardware\avr\3.1.0\libraries\Wire\src\utility/twi.c:220
      } while(TWCR & _BV(TWWC));
    1d50:	06 b6       	in	r0, 0x36	; 54
    1d52:	03 fc       	sbrc	r0, 3
    1d54:	fa cf       	rjmp	.-12     	; 0x1d4a <main+0x468>
C:\Users\LENOVO\AppData\Local\Arduino15\packages\MightyCore\hardware\avr\3.1.0\libraries\Wire\src\utility/twi.c:222
    #endif
    TWCR = _BV(TWINT) | _BV(TWEA) | _BV(TWEN) | _BV(TWIE);  // enable INTs, but not START
    1d56:	25 ec       	ldi	r18, 0xC5	; 197
    1d58:	26 bf       	out	0x36, r18	; 54
C:\Users\LENOVO\AppData\Local\Arduino15\packages\MightyCore\hardware\avr\3.1.0\libraries\Wire\src\utility/twi.c:238
        twi_handleTimeout(twi_do_reset_on_timeout);
        return 0;
      }
    }
  #else
    while(TWI_MRX == twi_state){
    1d5a:	90 91 1a 02 	lds	r25, 0x021A	; 0x80021a <twi_state>
    1d5e:	91 30       	cpi	r25, 0x01	; 1
    1d60:	e1 f3       	breq	.-8      	; 0x1d5a <main+0x478>
C:\Users\LENOVO\AppData\Local\Arduino15\packages\MightyCore\hardware\avr\3.1.0\libraries\Wire\src\utility/twi.c:243
      continue;
    }
  #endif

  if (twi_masterBufferIndex < length)
    1d62:	90 91 15 02 	lds	r25, 0x0215	; 0x800215 <twi_masterBufferIndex>
    1d66:	98 17       	cp	r25, r24
    1d68:	10 f4       	brcc	.+4      	; 0x1d6e <main+0x48c>
C:\Users\LENOVO\AppData\Local\Arduino15\packages\MightyCore\hardware\avr\3.1.0\libraries\Wire\src\utility/twi.c:244
    length = twi_masterBufferIndex;
    1d6a:	80 91 15 02 	lds	r24, 0x0215	; 0x800215 <twi_masterBufferIndex>
requestFrom():
C:\Users\LENOVO\AppData\Local\Arduino15\packages\MightyCore\hardware\avr\3.1.0\libraries\Wire\src/Wire.cpp:120
    quantity = TWI_BUFFER_SIZE;
  }
  // perform blocking read into buffer
  uint8_t read = twi_readFrom(address, rxBuffer, quantity, sendStop);
  // set rx buffer iterator vars
  rxBufferIndex = 0;
    1d6e:	10 92 0f 02 	sts	0x020F, r1	; 0x80020f <TwoWire::rxBufferIndex>
C:\Users\LENOVO\AppData\Local\Arduino15\packages\MightyCore\hardware\avr\3.1.0\libraries\Wire\src/Wire.cpp:121
  rxBufferLength = read;
    1d72:	80 93 0e 02 	sts	0x020E, r24	; 0x80020e <TwoWire::rxBufferLength>
_read():
c:\Users\LENOVO\Documents\Arduino\libraries\Adafruit_BusIO/Adafruit_I2CDevice.cpp:205
  size_t recv = _wire->requestFrom(_addr, len, stop);
#else
  size_t recv = _wire->requestFrom((uint8_t)_addr, (uint8_t)len, (uint8_t)stop);
#endif

  if (recv != len) {
    1d76:	80 17       	cp	r24, r16
    1d78:	11 06       	cpc	r1, r17
    1d7a:	39 f5       	brne	.+78     	; 0x1dca <main+0x4e8>
    1d7c:	88 24       	eor	r8, r8
    1d7e:	83 94       	inc	r8
    1d80:	91 2c       	mov	r9, r1
    1d82:	8c 0e       	add	r8, r28
    1d84:	9d 1e       	adc	r9, r29
    1d86:	8e 0c       	add	r8, r14
    1d88:	9f 1c       	adc	r9, r15
c:\Users\LENOVO\Documents\Arduino\libraries\Adafruit_BusIO/Adafruit_I2CDevice.cpp:214
    DEBUG_SERIAL.println(recv);
#endif
    return false;
  }

  for (uint16_t i = 0; i < len; i++) {
    1d8a:	24 01       	movw	r4, r8
    1d8c:	c4 01       	movw	r24, r8
    1d8e:	84 19       	sub	r24, r4
    1d90:	95 09       	sbc	r25, r5
    1d92:	80 17       	cp	r24, r16
    1d94:	91 07       	cpc	r25, r17
    1d96:	90 f4       	brcc	.+36     	; 0x1dbc <main+0x4da>
c:\Users\LENOVO\Documents\Arduino\libraries\Adafruit_BusIO/Adafruit_I2CDevice.cpp:215
    buffer[i] = _wire->read();
    1d98:	d6 01       	movw	r26, r12
    1d9a:	11 96       	adiw	r26, 0x01	; 1
    1d9c:	8d 91       	ld	r24, X+
    1d9e:	9c 91       	ld	r25, X
    1da0:	dc 01       	movw	r26, r24
    1da2:	ed 91       	ld	r30, X+
    1da4:	fc 91       	ld	r31, X
    1da6:	02 84       	ldd	r0, Z+10	; 0x0a
    1da8:	f3 85       	ldd	r31, Z+11	; 0x0b
    1daa:	e0 2d       	mov	r30, r0
    1dac:	09 95       	icall
    1dae:	f4 01       	movw	r30, r8
    1db0:	81 93       	st	Z+, r24
    1db2:	4f 01       	movw	r8, r30
    1db4:	eb cf       	rjmp	.-42     	; 0x1d8c <main+0x4aa>
twi_readFrom():
C:\Users\LENOVO\AppData\Local\Arduino15\packages\MightyCore\hardware\avr\3.1.0\libraries\Wire\src\utility/twi.c:226
    #endif
    TWCR = _BV(TWINT) | _BV(TWEA) | _BV(TWEN) | _BV(TWIE);  // enable INTs, but not START
  }
  else
    // send start condition
    TWCR = _BV(TWEN) | _BV(TWIE) | _BV(TWEA) | _BV(TWINT) | _BV(TWSTA);
    1db6:	35 ee       	ldi	r19, 0xE5	; 229
    1db8:	36 bf       	out	0x36, r19	; 54
    1dba:	cf cf       	rjmp	.-98     	; 0x1d5a <main+0x478>
read():
c:\Users\LENOVO\Documents\Arduino\libraries\Adafruit_BusIO/Adafruit_I2CDevice.cpp:191
    size_t read_len =
        ((len - pos) > maxBufferSize()) ? maxBufferSize() : (len - pos);
    bool read_stop = (pos < (len - read_len)) ? false : stop;
    if (!_read(buffer + pos, read_len, read_stop))
      return false;
    pos += read_len;
    1dbc:	e0 0e       	add	r14, r16
    1dbe:	f1 1e       	adc	r15, r17
c:\Users\LENOVO\Documents\Arduino\libraries\Adafruit_BusIO/Adafruit_I2CDevice.cpp:185
 *    @param  stop Whether to send an I2C STOP signal on read
 *    @return True if read was successful, otherwise false.
 */
bool Adafruit_I2CDevice::read(uint8_t *buffer, size_t len, bool stop) {
  size_t pos = 0;
  while (pos < len) {
    1dc0:	f7 e0       	ldi	r31, 0x07	; 7
    1dc2:	ef 16       	cp	r14, r31
    1dc4:	f1 04       	cpc	r15, r1
    1dc6:	08 f4       	brcc	.+2      	; 0x1dca <main+0x4e8>
    1dc8:	86 cf       	rjmp	.-244    	; 0x1cd6 <main+0x3f4>
now():
c:\Users\LENOVO\Documents\Arduino\libraries\RTClib\src/RTC_DS1307.cpp:62

  return DateTime(bcd2bin(buffer[6]) + 2000U, bcd2bin(buffer[5]),
                  bcd2bin(buffer[4]), bcd2bin(buffer[2]), bcd2bin(buffer[1]),
                  bcd2bin(buffer[0] & 0x7F));
    1dca:	29 81       	ldd	r18, Y+1	; 0x01
    1dcc:	2f 77       	andi	r18, 0x7F	; 127
_ZN7RTC_I2C7bcd2binEh():
c:\Users\LENOVO\Documents\Arduino\libraries\RTClib\src/RTClib.h:334
      @brief  Convert a binary coded decimal value to binary. RTC stores
    time/date values as BCD.
      @param val BCD value
      @return Binary value
  */
  static uint8_t bcd2bin(uint8_t val) { return val - 6 * (val >> 4); }
    1dce:	82 2f       	mov	r24, r18
    1dd0:	90 e0       	ldi	r25, 0x00	; 0
    1dd2:	34 e0       	ldi	r19, 0x04	; 4
    1dd4:	95 95       	asr	r25
    1dd6:	87 95       	ror	r24
    1dd8:	3a 95       	dec	r19
    1dda:	e1 f7       	brne	.-8      	; 0x1dd4 <main+0x4f2>
    1ddc:	98 2f       	mov	r25, r24
    1dde:	99 0f       	add	r25, r25
    1de0:	99 0f       	add	r25, r25
    1de2:	38 2f       	mov	r19, r24
    1de4:	39 1b       	sub	r19, r25
    1de6:	93 2f       	mov	r25, r19
    1de8:	99 0f       	add	r25, r25
    1dea:	92 0f       	add	r25, r18
now():
c:\Users\LENOVO\Documents\Arduino\libraries\RTClib\src/RTC_DS1307.cpp:62
    1dec:	8a 81       	ldd	r24, Y+2	; 0x02
_ZN7RTC_I2C7bcd2binEh():
c:\Users\LENOVO\Documents\Arduino\libraries\RTClib\src/RTClib.h:334
    1dee:	28 2f       	mov	r18, r24
    1df0:	30 e0       	ldi	r19, 0x00	; 0
    1df2:	44 e0       	ldi	r20, 0x04	; 4
    1df4:	35 95       	asr	r19
    1df6:	27 95       	ror	r18
    1df8:	4a 95       	dec	r20
    1dfa:	e1 f7       	brne	.-8      	; 0x1df4 <main+0x512>
    1dfc:	32 2f       	mov	r19, r18
    1dfe:	33 0f       	add	r19, r19
    1e00:	33 0f       	add	r19, r19
    1e02:	42 2f       	mov	r20, r18
    1e04:	43 1b       	sub	r20, r19
    1e06:	34 2f       	mov	r19, r20
    1e08:	33 0f       	add	r19, r19
    1e0a:	38 0f       	add	r19, r24
now():
c:\Users\LENOVO\Documents\Arduino\libraries\RTClib\src/RTC_DS1307.cpp:62
    1e0c:	8b 81       	ldd	r24, Y+3	; 0x03
_ZN7RTC_I2C7bcd2binEh():
c:\Users\LENOVO\Documents\Arduino\libraries\RTClib\src/RTClib.h:334
    1e0e:	48 2f       	mov	r20, r24
    1e10:	50 e0       	ldi	r21, 0x00	; 0
    1e12:	64 e0       	ldi	r22, 0x04	; 4
    1e14:	55 95       	asr	r21
    1e16:	47 95       	ror	r20
    1e18:	6a 95       	dec	r22
    1e1a:	e1 f7       	brne	.-8      	; 0x1e14 <main+0x532>
    1e1c:	24 2f       	mov	r18, r20
    1e1e:	22 0f       	add	r18, r18
    1e20:	22 0f       	add	r18, r18
    1e22:	74 2f       	mov	r23, r20
    1e24:	72 1b       	sub	r23, r18
    1e26:	77 0f       	add	r23, r23
    1e28:	78 0f       	add	r23, r24
now():
c:\Users\LENOVO\Documents\Arduino\libraries\RTClib\src/RTC_DS1307.cpp:62
    1e2a:	8d 81       	ldd	r24, Y+5	; 0x05
_ZN7RTC_I2C7bcd2binEh():
c:\Users\LENOVO\Documents\Arduino\libraries\RTClib\src/RTClib.h:334
    1e2c:	48 2f       	mov	r20, r24
    1e2e:	50 e0       	ldi	r21, 0x00	; 0
    1e30:	e4 e0       	ldi	r30, 0x04	; 4
    1e32:	55 95       	asr	r21
    1e34:	47 95       	ror	r20
    1e36:	ea 95       	dec	r30
    1e38:	e1 f7       	brne	.-8      	; 0x1e32 <main+0x550>
    1e3a:	24 2f       	mov	r18, r20
    1e3c:	22 0f       	add	r18, r18
    1e3e:	22 0f       	add	r18, r18
    1e40:	14 2f       	mov	r17, r20
    1e42:	12 1b       	sub	r17, r18
    1e44:	11 0f       	add	r17, r17
    1e46:	18 0f       	add	r17, r24
now():
c:\Users\LENOVO\Documents\Arduino\libraries\RTClib\src/RTC_DS1307.cpp:62
    1e48:	8e 81       	ldd	r24, Y+6	; 0x06
_ZN7RTC_I2C7bcd2binEh():
c:\Users\LENOVO\Documents\Arduino\libraries\RTClib\src/RTClib.h:334
    1e4a:	48 2f       	mov	r20, r24
    1e4c:	50 e0       	ldi	r21, 0x00	; 0
    1e4e:	f4 e0       	ldi	r31, 0x04	; 4
    1e50:	55 95       	asr	r21
    1e52:	47 95       	ror	r20
    1e54:	fa 95       	dec	r31
    1e56:	e1 f7       	brne	.-8      	; 0x1e50 <main+0x56e>
    1e58:	24 2f       	mov	r18, r20
    1e5a:	22 0f       	add	r18, r18
    1e5c:	22 0f       	add	r18, r18
    1e5e:	e4 2f       	mov	r30, r20
    1e60:	e2 1b       	sub	r30, r18
    1e62:	ee 0f       	add	r30, r30
    1e64:	e8 0f       	add	r30, r24
now():
c:\Users\LENOVO\Documents\Arduino\libraries\RTClib\src/RTC_DS1307.cpp:60
DateTime RTC_DS1307::now() {
  uint8_t buffer[7];
  buffer[0] = 0;
  i2c_dev->write_then_read(buffer, 1, buffer, 7);

  return DateTime(bcd2bin(buffer[6]) + 2000U, bcd2bin(buffer[5]),
    1e66:	8f 81       	ldd	r24, Y+7	; 0x07
_ZN7RTC_I2C7bcd2binEh():
c:\Users\LENOVO\Documents\Arduino\libraries\RTClib\src/RTClib.h:334
    1e68:	48 2f       	mov	r20, r24
    1e6a:	50 e0       	ldi	r21, 0x00	; 0
    1e6c:	a4 e0       	ldi	r26, 0x04	; 4
    1e6e:	55 95       	asr	r21
    1e70:	47 95       	ror	r20
    1e72:	aa 95       	dec	r26
    1e74:	e1 f7       	brne	.-8      	; 0x1e6e <main+0x58c>
    1e76:	24 2f       	mov	r18, r20
    1e78:	22 0f       	add	r18, r18
    1e7a:	22 0f       	add	r18, r18
    1e7c:	64 2f       	mov	r22, r20
    1e7e:	62 1b       	sub	r22, r18
    1e80:	26 2f       	mov	r18, r22
    1e82:	22 0f       	add	r18, r18
    1e84:	28 0f       	add	r18, r24
__base_ctor ():
c:\Users\LENOVO\Documents\Arduino\libraries\RTClib\src/RTClib.cpp:206
/**************************************************************************/
DateTime::DateTime(uint16_t year, uint8_t month, uint8_t day, uint8_t hour,
                   uint8_t min, uint8_t sec) {
  if (year >= 2000U)
    year -= 2000U;
  yOff = year;
    1e86:	2f a7       	std	Y+47, r18	; 0x2f
c:\Users\LENOVO\Documents\Arduino\libraries\RTClib\src/RTClib.cpp:207
  m = month;
    1e88:	e8 ab       	std	Y+48, r30	; 0x30
c:\Users\LENOVO\Documents\Arduino\libraries\RTClib\src/RTClib.cpp:208
  d = day;
    1e8a:	19 ab       	std	Y+49, r17	; 0x31
c:\Users\LENOVO\Documents\Arduino\libraries\RTClib\src/RTClib.cpp:209
  hh = hour;
    1e8c:	7a ab       	std	Y+50, r23	; 0x32
c:\Users\LENOVO\Documents\Arduino\libraries\RTClib\src/RTClib.cpp:210
  mm = min;
    1e8e:	3b ab       	std	Y+51, r19	; 0x33
c:\Users\LENOVO\Documents\Arduino\libraries\RTClib\src/RTClib.cpp:211
  ss = sec;
    1e90:	9c ab       	std	Y+52, r25	; 0x34
loop():
D:\KULIAH SEMESTER 4\LAB PROYEKSI ELEKTRONIKA\smart-drawer\firmware\atmega16\JAM DIGITAL\sketch_mar27a/sketch_mar27a.ino:97
}

void loop() {
  // ===== AMBIL WAKTU DULU (WAJIB DI ATAS) =====
  DateTime now = rtc.now();
  jam = now.hour();
    1e92:	70 93 00 02 	sts	0x0200, r23	; 0x800200 <jam>
D:\KULIAH SEMESTER 4\LAB PROYEKSI ELEKTRONIKA\smart-drawer\firmware\atmega16\JAM DIGITAL\sketch_mar27a/sketch_mar27a.ino:98
  menit = now.minute();
    1e96:	30 93 ff 01 	sts	0x01FF, r19	; 0x8001ff <menit>
D:\KULIAH SEMESTER 4\LAB PROYEKSI ELEKTRONIKA\smart-drawer\firmware\atmega16\JAM DIGITAL\sketch_mar27a/sketch_mar27a.ino:99
  detik = now.second();
    1e9a:	90 93 fe 01 	sts	0x01FE, r25	; 0x8001fe <detik>
D:\KULIAH SEMESTER 4\LAB PROYEKSI ELEKTRONIKA\smart-drawer\firmware\atmega16\JAM DIGITAL\sketch_mar27a/sketch_mar27a.ino:100
  tgl = now.day();
    1e9e:	10 93 fd 01 	sts	0x01FD, r17	; 0x8001fd <tgl>
D:\KULIAH SEMESTER 4\LAB PROYEKSI ELEKTRONIKA\smart-drawer\firmware\atmega16\JAM DIGITAL\sketch_mar27a/sketch_mar27a.ino:101
  bln = now.month();
    1ea2:	e0 93 fc 01 	sts	0x01FC, r30	; 0x8001fc <bln>
D:\KULIAH SEMESTER 4\LAB PROYEKSI ELEKTRONIKA\smart-drawer\firmware\atmega16\JAM DIGITAL\sketch_mar27a/sketch_mar27a.ino:102
  thn = now.year() - 2000;
    1ea6:	30 e0       	ldi	r19, 0x00	; 0
    1ea8:	30 93 fb 01 	sts	0x01FB, r19	; 0x8001fb <thn+0x1>
    1eac:	20 93 fa 01 	sts	0x01FA, r18	; 0x8001fa <thn>
hitung_hari():
D:\KULIAH SEMESTER 4\LAB PROYEKSI ELEKTRONIKA\smart-drawer\firmware\atmega16\JAM DIGITAL\sketch_mar27a/sketch_mar27a.ino:476
}

unsigned char hitung_hari(unsigned char d, unsigned char m, unsigned char y) {
  int th = 2000 + y;
  static int t[] = {0, 3, 2, 5, 0, 3, 5, 1, 4, 6, 2, 4};
  if (m < 3) th -= 1;
    1eb0:	e3 30       	cpi	r30, 0x03	; 3
    1eb2:	08 f4       	brcc	.+2      	; 0x1eb6 <main+0x5d4>
    1eb4:	e8 c1       	rjmp	.+976    	; 0x2286 <main+0x9a4>
D:\KULIAH SEMESTER 4\LAB PROYEKSI ELEKTRONIKA\smart-drawer\firmware\atmega16\JAM DIGITAL\sketch_mar27a/sketch_mar27a.ino:474

  strip.show();
}

unsigned char hitung_hari(unsigned char d, unsigned char m, unsigned char y) {
  int th = 2000 + y;
    1eb6:	20 53       	subi	r18, 0x30	; 48
    1eb8:	38 4f       	sbci	r19, 0xF8	; 248
D:\KULIAH SEMESTER 4\LAB PROYEKSI ELEKTRONIKA\smart-drawer\firmware\atmega16\JAM DIGITAL\sketch_mar27a/sketch_mar27a.ino:477
  static int t[] = {0, 3, 2, 5, 0, 3, 5, 1, 4, 6, 2, 4};
  if (m < 3) th -= 1;
  return (th + th/4 - th/100 + th/400 + t[m-1] + d) % 7 ;
    1eba:	79 01       	movw	r14, r18
    1ebc:	f5 94       	asr	r15
    1ebe:	e7 94       	ror	r14
    1ec0:	f5 94       	asr	r15
    1ec2:	e7 94       	ror	r14
    1ec4:	e2 0e       	add	r14, r18
    1ec6:	f3 1e       	adc	r15, r19
    1ec8:	c9 01       	movw	r24, r18
    1eca:	6c e9       	ldi	r22, 0x9C	; 156
    1ecc:	7f ef       	ldi	r23, 0xFF	; 255
    1ece:	0e 94 3b 19 	call	0x3276	; 0x3276 <__divmodhi4>
    1ed2:	e6 0e       	add	r14, r22
    1ed4:	f7 1e       	adc	r15, r23
    1ed6:	c9 01       	movw	r24, r18
    1ed8:	60 e9       	ldi	r22, 0x90	; 144
    1eda:	71 e0       	ldi	r23, 0x01	; 1
    1edc:	0e 94 3b 19 	call	0x3276	; 0x3276 <__divmodhi4>
    1ee0:	e6 0e       	add	r14, r22
    1ee2:	f7 1e       	adc	r15, r23
    1ee4:	e1 50       	subi	r30, 0x01	; 1
    1ee6:	ff 0b       	sbc	r31, r31
    1ee8:	ee 0f       	add	r30, r30
    1eea:	ff 1f       	adc	r31, r31
    1eec:	e0 58       	subi	r30, 0x80	; 128
    1eee:	ff 4f       	sbci	r31, 0xFF	; 255
    1ef0:	80 81       	ld	r24, Z
    1ef2:	91 81       	ldd	r25, Z+1	; 0x01
    1ef4:	8e 0d       	add	r24, r14
    1ef6:	9f 1d       	adc	r25, r15
    1ef8:	81 0f       	add	r24, r17
    1efa:	91 1d       	adc	r25, r1
    1efc:	b5 01       	movw	r22, r10
    1efe:	0e 94 3b 19 	call	0x3276	; 0x3276 <__divmodhi4>
    1f02:	80 93 f9 01 	sts	0x01F9, r24	; 0x8001f9 <hari>
loop():
D:\KULIAH SEMESTER 4\LAB PROYEKSI ELEKTRONIKA\smart-drawer\firmware\atmega16\JAM DIGITAL\sketch_mar27a/sketch_mar27a.ino:107
  thn = now.year() - 2000;
  hari = hitung_hari(tgl, bln, thn);


  // ===== TERIMA DATA DARI ESP32 =====
  if (Serial.available()) {
    1f06:	8f e3       	ldi	r24, 0x3F	; 63
    1f08:	92 e0       	ldi	r25, 0x02	; 2
    1f0a:	0e 94 d5 04 	call	0x9aa	; 0x9aa <HardwareSerial::available()>
    1f0e:	89 2b       	or	r24, r25
    1f10:	09 f4       	brne	.+2      	; 0x1f14 <main+0x632>
    1f12:	90 c0       	rjmp	.+288    	; 0x2034 <main+0x752>
    1f14:	ce 01       	movw	r24, r28
    1f16:	01 96       	adiw	r24, 0x01	; 1
    1f18:	6c 01       	movw	r12, r24
main():
C:\Users\LENOVO\AppData\Local\Arduino15\packages\MightyCore\hardware\avr\3.1.0\cores\MCUdude_corefiles/Stream.cpp:221
// terminates if length characters have been read, timeout, or if the terminator character  detected
// returns the number of characters placed in the buffer (0 means no valid data found)

size_t Stream::readBytesUntil(char terminator, char *buffer, size_t length)
{
  size_t index = 0;
    1f1a:	f1 2c       	mov	r15, r1
    1f1c:	e1 2c       	mov	r14, r1
    1f1e:	8c 01       	movw	r16, r24
millis():
C:\Users\LENOVO\AppData\Local\Arduino15\packages\MightyCore\hardware\avr\3.1.0\cores\MCUdude_corefiles/wiring.c:218
}

unsigned long millis()
{
  unsigned long m;
  uint8_t oldSREG = SREG;
    1f20:	2f b7       	in	r18, 0x3f	; 63
C:\Users\LENOVO\AppData\Local\Arduino15\packages\MightyCore\hardware\avr\3.1.0\cores\MCUdude_corefiles/wiring.c:222

  // disable interrupts while we read timer0_millis or we might get an
  // inconsistent value (e.g. in the middle of a write to timer0_millis)
  cli();
    1f22:	f8 94       	cli
C:\Users\LENOVO\AppData\Local\Arduino15\packages\MightyCore\hardware\avr\3.1.0\cores\MCUdude_corefiles/wiring.c:223
  m = timer0_millis;
    1f24:	80 91 02 02 	lds	r24, 0x0202	; 0x800202 <timer0_millis>
    1f28:	90 91 03 02 	lds	r25, 0x0203	; 0x800203 <timer0_millis+0x1>
    1f2c:	a0 91 04 02 	lds	r26, 0x0204	; 0x800204 <timer0_millis+0x2>
    1f30:	b0 91 05 02 	lds	r27, 0x0205	; 0x800205 <timer0_millis+0x3>
C:\Users\LENOVO\AppData\Local\Arduino15\packages\MightyCore\hardware\avr\3.1.0\cores\MCUdude_corefiles/wiring.c:224
  SREG = oldSREG;
    1f34:	2f bf       	out	0x3f, r18	; 63
timedRead():
C:\Users\LENOVO\AppData\Local\Arduino15\packages\MightyCore\hardware\avr\3.1.0\cores\MCUdude_corefiles/Stream.cpp:34

// private method to read stream with timeout
int Stream::timedRead()
{
  int c;
  _startMillis = millis();
    1f36:	80 93 47 02 	sts	0x0247, r24	; 0x800247 <Serial+0x8>
    1f3a:	90 93 48 02 	sts	0x0248, r25	; 0x800248 <Serial+0x9>
    1f3e:	a0 93 49 02 	sts	0x0249, r26	; 0x800249 <Serial+0xa>
    1f42:	b0 93 4a 02 	sts	0x024A, r27	; 0x80024a <Serial+0xb>
C:\Users\LENOVO\AppData\Local\Arduino15\packages\MightyCore\hardware\avr\3.1.0\cores\MCUdude_corefiles/Stream.cpp:36
  do {
    c = read();
    1f46:	8f e3       	ldi	r24, 0x3F	; 63
    1f48:	92 e0       	ldi	r25, 0x02	; 2
    1f4a:	0e 94 b3 04 	call	0x966	; 0x966 <HardwareSerial::read()>
C:\Users\LENOVO\AppData\Local\Arduino15\packages\MightyCore\hardware\avr\3.1.0\cores\MCUdude_corefiles/Stream.cpp:37
    if (c >= 0) return c;
    1f4e:	97 fd       	sbrc	r25, 7
    1f50:	02 c0       	rjmp	.+4      	; 0x1f56 <main+0x674>
    1f52:	0c 94 53 18 	jmp	0x30a6	; 0x30a6 <nextbyte206788+0x5be>
millis():
C:\Users\LENOVO\AppData\Local\Arduino15\packages\MightyCore\hardware\avr\3.1.0\cores\MCUdude_corefiles/wiring.c:218
}

unsigned long millis()
{
  unsigned long m;
  uint8_t oldSREG = SREG;
    1f56:	2f b7       	in	r18, 0x3f	; 63
C:\Users\LENOVO\AppData\Local\Arduino15\packages\MightyCore\hardware\avr\3.1.0\cores\MCUdude_corefiles/wiring.c:222

  // disable interrupts while we read timer0_millis or we might get an
  // inconsistent value (e.g. in the middle of a write to timer0_millis)
  cli();
    1f58:	f8 94       	cli
C:\Users\LENOVO\AppData\Local\Arduino15\packages\MightyCore\hardware\avr\3.1.0\cores\MCUdude_corefiles/wiring.c:223
  m = timer0_millis;
    1f5a:	80 91 02 02 	lds	r24, 0x0202	; 0x800202 <timer0_millis>
    1f5e:	90 91 03 02 	lds	r25, 0x0203	; 0x800203 <timer0_millis+0x1>
    1f62:	a0 91 04 02 	lds	r26, 0x0204	; 0x800204 <timer0_millis+0x2>
    1f66:	b0 91 05 02 	lds	r27, 0x0205	; 0x800205 <timer0_millis+0x3>
C:\Users\LENOVO\AppData\Local\Arduino15\packages\MightyCore\hardware\avr\3.1.0\cores\MCUdude_corefiles/wiring.c:224
  SREG = oldSREG;
    1f6a:	2f bf       	out	0x3f, r18	; 63
timedRead():
C:\Users\LENOVO\AppData\Local\Arduino15\packages\MightyCore\hardware\avr\3.1.0\cores\MCUdude_corefiles/Stream.cpp:38
  } while(millis() - _startMillis < _timeout);
    1f6c:	40 91 47 02 	lds	r20, 0x0247	; 0x800247 <Serial+0x8>
    1f70:	50 91 48 02 	lds	r21, 0x0248	; 0x800248 <Serial+0x9>
    1f74:	60 91 49 02 	lds	r22, 0x0249	; 0x800249 <Serial+0xa>
    1f78:	70 91 4a 02 	lds	r23, 0x024A	; 0x80024a <Serial+0xb>
    1f7c:	84 1b       	sub	r24, r20
    1f7e:	95 0b       	sbc	r25, r21
    1f80:	a6 0b       	sbc	r26, r22
    1f82:	b7 0b       	sbc	r27, r23
    1f84:	40 91 43 02 	lds	r20, 0x0243	; 0x800243 <Serial+0x4>
    1f88:	50 91 44 02 	lds	r21, 0x0244	; 0x800244 <Serial+0x5>
    1f8c:	60 91 45 02 	lds	r22, 0x0245	; 0x800245 <Serial+0x6>
    1f90:	70 91 46 02 	lds	r23, 0x0246	; 0x800246 <Serial+0x7>
    1f94:	84 17       	cp	r24, r20
    1f96:	95 07       	cpc	r25, r21
    1f98:	a6 07       	cpc	r26, r22
    1f9a:	b7 07       	cpc	r27, r23
    1f9c:	a0 f2       	brcs	.-88     	; 0x1f46 <main+0x664>
loop():
D:\KULIAH SEMESTER 4\LAB PROYEKSI ELEKTRONIKA\smart-drawer\firmware\atmega16\JAM DIGITAL\sketch_mar27a/sketch_mar27a.ino:110
  char cmd[40];
    int len = Serial.readBytesUntil('\n', cmd, sizeof(cmd) - 1);
    cmd[len] = '\0';  // 🔥 WAJIB: nutup string
    1f9e:	f8 01       	movw	r30, r16
    1fa0:	ee 0d       	add	r30, r14
    1fa2:	ff 1d       	adc	r31, r15
    1fa4:	10 82       	st	Z, r1
D:\KULIAH SEMESTER 4\LAB PROYEKSI ELEKTRONIKA\smart-drawer\firmware\atmega16\JAM DIGITAL\sketch_mar27a/sketch_mar27a.ino:111
    cmd[strcspn(cmd, "\r")] = 0;  // 🔥 HAPUS \r
    1fa6:	6b ec       	ldi	r22, 0xCB	; 203
    1fa8:	70 e0       	ldi	r23, 0x00	; 0
    1faa:	c8 01       	movw	r24, r16
    1fac:	0e 94 bb 1a 	call	0x3576	; 0x3576 <strcspn>
    1fb0:	80 0f       	add	r24, r16
    1fb2:	91 1f       	adc	r25, r17
    1fb4:	dc 01       	movw	r26, r24
    1fb6:	1c 92       	st	X, r1
D:\KULIAH SEMESTER 4\LAB PROYEKSI ELEKTRONIKA\smart-drawer\firmware\atmega16\JAM DIGITAL\sketch_mar27a/sketch_mar27a.ino:114
    
    // ===== SET TIME =====
    if (strncmp(cmd, "SETTIME:", 8) == 0) {
    1fb8:	48 e0       	ldi	r20, 0x08	; 8
    1fba:	50 e0       	ldi	r21, 0x00	; 0
    1fbc:	6d ec       	ldi	r22, 0xCD	; 205
    1fbe:	70 e0       	ldi	r23, 0x00	; 0
    1fc0:	c8 01       	movw	r24, r16
    1fc2:	0e 94 ca 1a 	call	0x3594	; 0x3594 <strncmp>
    1fc6:	89 2b       	or	r24, r25
    1fc8:	09 f0       	breq	.+2      	; 0x1fcc <main+0x6ea>
    1fca:	60 c1       	rjmp	.+704    	; 0x228c <main+0x9aa>
D:\KULIAH SEMESTER 4\LAB PROYEKSI ELEKTRONIKA\smart-drawer\firmware\atmega16\JAM DIGITAL\sketch_mar27a/sketch_mar27a.ino:116
      int h,m,s;
      sscanf(cmd, "SETTIME:%d:%d:%d", &h,&m,&s);
    1fcc:	ce 01       	movw	r24, r28
    1fce:	c7 96       	adiw	r24, 0x37	; 55
    1fd0:	9f 93       	push	r25
    1fd2:	8f 93       	push	r24
    1fd4:	02 96       	adiw	r24, 0x02	; 2
    1fd6:	9f 93       	push	r25
    1fd8:	8f 93       	push	r24
    1fda:	02 96       	adiw	r24, 0x02	; 2
    1fdc:	9f 93       	push	r25
    1fde:	8f 93       	push	r24
    1fe0:	86 ed       	ldi	r24, 0xD6	; 214
    1fe2:	90 e0       	ldi	r25, 0x00	; 0
    1fe4:	9f 93       	push	r25
    1fe6:	8f 93       	push	r24
    1fe8:	1f 93       	push	r17
    1fea:	0f 93       	push	r16
    1fec:	0e 94 d8 1a 	call	0x35b0	; 0x35b0 <sscanf>
D:\KULIAH SEMESTER 4\LAB PROYEKSI ELEKTRONIKA\smart-drawer\firmware\atmega16\JAM DIGITAL\sketch_mar27a/sketch_mar27a.ino:117
      rtc.adjust(DateTime(2000+thn, bln, tgl, h, m, s));
    1ff0:	4f a9       	ldd	r20, Y+55	; 0x37
    1ff2:	59 ad       	ldd	r21, Y+57	; 0x39
    1ff4:	6b ad       	ldd	r22, Y+59	; 0x3b
    1ff6:	70 91 fd 01 	lds	r23, 0x01FD	; 0x8001fd <tgl>
    1ffa:	e0 91 fc 01 	lds	r30, 0x01FC	; 0x8001fc <bln>
    1ffe:	20 91 fa 01 	lds	r18, 0x01FA	; 0x8001fa <thn>
    2002:	30 91 fb 01 	lds	r19, 0x01FB	; 0x8001fb <thn+0x1>
    2006:	c9 01       	movw	r24, r18
    2008:	80 53       	subi	r24, 0x30	; 48
    200a:	98 4f       	sbci	r25, 0xF8	; 248
__base_ctor ():
c:\Users\LENOVO\Documents\Arduino\libraries\RTClib\src/RTClib.cpp:204
    @param hour,min,sec Hour (0--23), minute (0--59) and second (0--59).
*/
/**************************************************************************/
DateTime::DateTime(uint16_t year, uint8_t month, uint8_t day, uint8_t hour,
                   uint8_t min, uint8_t sec) {
  if (year >= 2000U)
    200c:	0f b6       	in	r0, 0x3f	; 63
    200e:	f8 94       	cli
    2010:	de bf       	out	0x3e, r29	; 62
    2012:	0f be       	out	0x3f, r0	; 63
    2014:	cd bf       	out	0x3d, r28	; 61
    2016:	80 3d       	cpi	r24, 0xD0	; 208
    2018:	b7 e0       	ldi	r27, 0x07	; 7
    201a:	9b 07       	cpc	r25, r27
    201c:	08 f0       	brcs	.+2      	; 0x2020 <main+0x73e>
c:\Users\LENOVO\Documents\Arduino\libraries\RTClib\src/RTClib.cpp:205
    year -= 2000U;
    201e:	c9 01       	movw	r24, r18
c:\Users\LENOVO\Documents\Arduino\libraries\RTClib\src/RTClib.cpp:206
  yOff = year;
    2020:	89 a7       	std	Y+41, r24	; 0x29
c:\Users\LENOVO\Documents\Arduino\libraries\RTClib\src/RTClib.cpp:207
  m = month;
    2022:	ea a7       	std	Y+42, r30	; 0x2a
c:\Users\LENOVO\Documents\Arduino\libraries\RTClib\src/RTClib.cpp:208
  d = day;
    2024:	7b a7       	std	Y+43, r23	; 0x2b
c:\Users\LENOVO\Documents\Arduino\libraries\RTClib\src/RTClib.cpp:209
  hh = hour;
    2026:	6c a7       	std	Y+44, r22	; 0x2c
c:\Users\LENOVO\Documents\Arduino\libraries\RTClib\src/RTClib.cpp:210
  mm = min;
    2028:	5d a7       	std	Y+45, r21	; 0x2d
c:\Users\LENOVO\Documents\Arduino\libraries\RTClib\src/RTClib.cpp:211
  ss = sec;
    202a:	4e a7       	std	Y+46, r20	; 0x2e
loop():
D:\KULIAH SEMESTER 4\LAB PROYEKSI ELEKTRONIKA\smart-drawer\firmware\atmega16\JAM DIGITAL\sketch_mar27a/sketch_mar27a.ino:117
    202c:	ce 01       	movw	r24, r28
    202e:	89 96       	adiw	r24, 0x29	; 41
    2030:	0e 94 16 07 	call	0xe2c	; 0xe2c <RTC_DS1307::adjust(DateTime const&) [clone .constprop.44]>
millis():
C:\Users\LENOVO\AppData\Local\Arduino15\packages\MightyCore\hardware\avr\3.1.0\cores\MCUdude_corefiles/wiring.c:218
}

unsigned long millis()
{
  unsigned long m;
  uint8_t oldSREG = SREG;
    2034:	2f b7       	in	r18, 0x3f	; 63
C:\Users\LENOVO\AppData\Local\Arduino15\packages\MightyCore\hardware\avr\3.1.0\cores\MCUdude_corefiles/wiring.c:222

  // disable interrupts while we read timer0_millis or we might get an
  // inconsistent value (e.g. in the middle of a write to timer0_millis)
  cli();
    2036:	f8 94       	cli
C:\Users\LENOVO\AppData\Local\Arduino15\packages\MightyCore\hardware\avr\3.1.0\cores\MCUdude_corefiles/wiring.c:223
  m = timer0_millis;
    2038:	80 91 02 02 	lds	r24, 0x0202	; 0x800202 <timer0_millis>
    203c:	90 91 03 02 	lds	r25, 0x0203	; 0x800203 <timer0_millis+0x1>
    2040:	a0 91 04 02 	lds	r26, 0x0204	; 0x800204 <timer0_millis+0x2>
    2044:	b0 91 05 02 	lds	r27, 0x0205	; 0x800205 <timer0_millis+0x3>
C:\Users\LENOVO\AppData\Local\Arduino15\packages\MightyCore\hardware\avr\3.1.0\cores\MCUdude_corefiles/wiring.c:224
  SREG = oldSREG;
    2048:	2f bf       	out	0x3f, r18	; 63
loop():
D:\KULIAH SEMESTER 4\LAB PROYEKSI ELEKTRONIKA\smart-drawer\firmware\atmega16\JAM DIGITAL\sketch_mar27a/sketch_mar27a.ino:186
    // ========================================================
  }
  
  // ===== KIRIM DATA KE ESP32 =====
  static unsigned long lastSend = 0;
  if (millis() - lastSend > 1000) {
    204a:	40 91 f0 01 	lds	r20, 0x01F0	; 0x8001f0 <loop::lastSend>
    204e:	50 91 f1 01 	lds	r21, 0x01F1	; 0x8001f1 <loop::lastSend+0x1>
    2052:	60 91 f2 01 	lds	r22, 0x01F2	; 0x8001f2 <loop::lastSend+0x2>
    2056:	70 91 f3 01 	lds	r23, 0x01F3	; 0x8001f3 <loop::lastSend+0x3>
    205a:	84 1b       	sub	r24, r20
    205c:	95 0b       	sbc	r25, r21
    205e:	a6 0b       	sbc	r26, r22
    2060:	b7 0b       	sbc	r27, r23
    2062:	89 3e       	cpi	r24, 0xE9	; 233
    2064:	93 40       	sbci	r25, 0x03	; 3
    2066:	a1 05       	cpc	r26, r1
    2068:	b1 05       	cpc	r27, r1
    206a:	08 f4       	brcc	.+2      	; 0x206e <main+0x78c>
    206c:	dc c0       	rjmp	.+440    	; 0x2226 <main+0x944>
millis():
C:\Users\LENOVO\AppData\Local\Arduino15\packages\MightyCore\hardware\avr\3.1.0\cores\MCUdude_corefiles/wiring.c:218
}

unsigned long millis()
{
  unsigned long m;
  uint8_t oldSREG = SREG;
    206e:	2f b7       	in	r18, 0x3f	; 63
C:\Users\LENOVO\AppData\Local\Arduino15\packages\MightyCore\hardware\avr\3.1.0\cores\MCUdude_corefiles/wiring.c:222

  // disable interrupts while we read timer0_millis or we might get an
  // inconsistent value (e.g. in the middle of a write to timer0_millis)
  cli();
    2070:	f8 94       	cli
C:\Users\LENOVO\AppData\Local\Arduino15\packages\MightyCore\hardware\avr\3.1.0\cores\MCUdude_corefiles/wiring.c:223
  m = timer0_millis;
    2072:	80 91 02 02 	lds	r24, 0x0202	; 0x800202 <timer0_millis>
    2076:	90 91 03 02 	lds	r25, 0x0203	; 0x800203 <timer0_millis+0x1>
    207a:	a0 91 04 02 	lds	r26, 0x0204	; 0x800204 <timer0_millis+0x2>
    207e:	b0 91 05 02 	lds	r27, 0x0205	; 0x800205 <timer0_millis+0x3>
C:\Users\LENOVO\AppData\Local\Arduino15\packages\MightyCore\hardware\avr\3.1.0\cores\MCUdude_corefiles/wiring.c:224
  SREG = oldSREG;
    2082:	2f bf       	out	0x3f, r18	; 63
loop():
D:\KULIAH SEMESTER 4\LAB PROYEKSI ELEKTRONIKA\smart-drawer\firmware\atmega16\JAM DIGITAL\sketch_mar27a/sketch_mar27a.ino:187
    lastSend = millis();
    2084:	80 93 f0 01 	sts	0x01F0, r24	; 0x8001f0 <loop::lastSend>
    2088:	90 93 f1 01 	sts	0x01F1, r25	; 0x8001f1 <loop::lastSend+0x1>
    208c:	a0 93 f2 01 	sts	0x01F2, r26	; 0x8001f2 <loop::lastSend+0x2>
    2090:	b0 93 f3 01 	sts	0x01F3, r27	; 0x8001f3 <loop::lastSend+0x3>
D:\KULIAH SEMESTER 4\LAB PROYEKSI ELEKTRONIKA\smart-drawer\firmware\atmega16\JAM DIGITAL\sketch_mar27a/sketch_mar27a.ino:189

    Serial.print(F("TIME:"));
    2094:	69 e6       	ldi	r22, 0x69	; 105
    2096:	73 e0       	ldi	r23, 0x03	; 3
    2098:	8f e3       	ldi	r24, 0x3F	; 63
    209a:	92 e0       	ldi	r25, 0x02	; 2
    209c:	0e 94 53 04 	call	0x8a6	; 0x8a6 <Print::print(__FlashStringHelper const*)>
D:\KULIAH SEMESTER 4\LAB PROYEKSI ELEKTRONIKA\smart-drawer\firmware\atmega16\JAM DIGITAL\sketch_mar27a/sketch_mar27a.ino:190
    if (jam < 10) Serial.print('0');
    20a0:	80 91 00 02 	lds	r24, 0x0200	; 0x800200 <jam>
    20a4:	8a 30       	cpi	r24, 0x0A	; 10
    20a6:	28 f4       	brcc	.+10     	; 0x20b2 <main+0x7d0>
    20a8:	60 e3       	ldi	r22, 0x30	; 48
    20aa:	8f e3       	ldi	r24, 0x3F	; 63
    20ac:	92 e0       	ldi	r25, 0x02	; 2
    20ae:	0e 94 4c 04 	call	0x898	; 0x898 <Print::print(char)>
D:\KULIAH SEMESTER 4\LAB PROYEKSI ELEKTRONIKA\smart-drawer\firmware\atmega16\JAM DIGITAL\sketch_mar27a/sketch_mar27a.ino:191
    Serial.print(jam);
    20b2:	60 91 00 02 	lds	r22, 0x0200	; 0x800200 <jam>
    20b6:	8f e3       	ldi	r24, 0x3F	; 63
    20b8:	92 e0       	ldi	r25, 0x02	; 2
    20ba:	0e 94 f3 07 	call	0xfe6	; 0xfe6 <Print::print(unsigned char, int) [clone .constprop.37]>
D:\KULIAH SEMESTER 4\LAB PROYEKSI ELEKTRONIKA\smart-drawer\firmware\atmega16\JAM DIGITAL\sketch_mar27a/sketch_mar27a.ino:192
    Serial.print(':');
    20be:	6a e3       	ldi	r22, 0x3A	; 58
    20c0:	8f e3       	ldi	r24, 0x3F	; 63
    20c2:	92 e0       	ldi	r25, 0x02	; 2
    20c4:	0e 94 4c 04 	call	0x898	; 0x898 <Print::print(char)>
D:\KULIAH SEMESTER 4\LAB PROYEKSI ELEKTRONIKA\smart-drawer\firmware\atmega16\JAM DIGITAL\sketch_mar27a/sketch_mar27a.ino:193
    if (menit < 10) Serial.print('0');
    20c8:	80 91 ff 01 	lds	r24, 0x01FF	; 0x8001ff <menit>
    20cc:	8a 30       	cpi	r24, 0x0A	; 10
    20ce:	28 f4       	brcc	.+10     	; 0x20da <main+0x7f8>
    20d0:	60 e3       	ldi	r22, 0x30	; 48
    20d2:	8f e3       	ldi	r24, 0x3F	; 63
    20d4:	92 e0       	ldi	r25, 0x02	; 2
    20d6:	0e 94 4c 04 	call	0x898	; 0x898 <Print::print(char)>
D:\KULIAH SEMESTER 4\LAB PROYEKSI ELEKTRONIKA\smart-drawer\firmware\atmega16\JAM DIGITAL\sketch_mar27a/sketch_mar27a.ino:194
    Serial.print(menit);
    20da:	60 91 ff 01 	lds	r22, 0x01FF	; 0x8001ff <menit>
    20de:	8f e3       	ldi	r24, 0x3F	; 63
    20e0:	92 e0       	ldi	r25, 0x02	; 2
    20e2:	0e 94 f3 07 	call	0xfe6	; 0xfe6 <Print::print(unsigned char, int) [clone .constprop.37]>
D:\KULIAH SEMESTER 4\LAB PROYEKSI ELEKTRONIKA\smart-drawer\firmware\atmega16\JAM DIGITAL\sketch_mar27a/sketch_mar27a.ino:195
    Serial.print(':');
    20e6:	6a e3       	ldi	r22, 0x3A	; 58
    20e8:	8f e3       	ldi	r24, 0x3F	; 63
    20ea:	92 e0       	ldi	r25, 0x02	; 2
    20ec:	0e 94 4c 04 	call	0x898	; 0x898 <Print::print(char)>
D:\KULIAH SEMESTER 4\LAB PROYEKSI ELEKTRONIKA\smart-drawer\firmware\atmega16\JAM DIGITAL\sketch_mar27a/sketch_mar27a.ino:196
    if (detik < 10) Serial.print('0');
    20f0:	80 91 fe 01 	lds	r24, 0x01FE	; 0x8001fe <detik>
    20f4:	8a 30       	cpi	r24, 0x0A	; 10
    20f6:	28 f4       	brcc	.+10     	; 0x2102 <main+0x820>
    20f8:	60 e3       	ldi	r22, 0x30	; 48
    20fa:	8f e3       	ldi	r24, 0x3F	; 63
    20fc:	92 e0       	ldi	r25, 0x02	; 2
    20fe:	0e 94 4c 04 	call	0x898	; 0x898 <Print::print(char)>
D:\KULIAH SEMESTER 4\LAB PROYEKSI ELEKTRONIKA\smart-drawer\firmware\atmega16\JAM DIGITAL\sketch_mar27a/sketch_mar27a.ino:197
    Serial.println(detik);
    2102:	80 91 fe 01 	lds	r24, 0x01FE	; 0x8001fe <detik>
    2106:	0e 94 fa 07 	call	0xff4	; 0xff4 <Print::println(unsigned char, int) [clone .constprop.32]>
D:\KULIAH SEMESTER 4\LAB PROYEKSI ELEKTRONIKA\smart-drawer\firmware\atmega16\JAM DIGITAL\sketch_mar27a/sketch_mar27a.ino:199

    Serial.print(F("ALARM:"));
    210a:	62 e6       	ldi	r22, 0x62	; 98
    210c:	73 e0       	ldi	r23, 0x03	; 3
    210e:	8f e3       	ldi	r24, 0x3F	; 63
    2110:	92 e0       	ldi	r25, 0x02	; 2
    2112:	0e 94 53 04 	call	0x8a6	; 0x8a6 <Print::print(__FlashStringHelper const*)>
D:\KULIAH SEMESTER 4\LAB PROYEKSI ELEKTRONIKA\smart-drawer\firmware\atmega16\JAM DIGITAL\sketch_mar27a/sketch_mar27a.ino:200
    if (alm_h < 10) Serial.print('0');
    2116:	80 91 f8 01 	lds	r24, 0x01F8	; 0x8001f8 <alm_h>
    211a:	8a 30       	cpi	r24, 0x0A	; 10
    211c:	28 f4       	brcc	.+10     	; 0x2128 <main+0x846>
    211e:	60 e3       	ldi	r22, 0x30	; 48
    2120:	8f e3       	ldi	r24, 0x3F	; 63
    2122:	92 e0       	ldi	r25, 0x02	; 2
    2124:	0e 94 4c 04 	call	0x898	; 0x898 <Print::print(char)>
D:\KULIAH SEMESTER 4\LAB PROYEKSI ELEKTRONIKA\smart-drawer\firmware\atmega16\JAM DIGITAL\sketch_mar27a/sketch_mar27a.ino:201
    Serial.print(alm_h);
    2128:	60 91 f8 01 	lds	r22, 0x01F8	; 0x8001f8 <alm_h>
    212c:	8f e3       	ldi	r24, 0x3F	; 63
    212e:	92 e0       	ldi	r25, 0x02	; 2
    2130:	0e 94 f3 07 	call	0xfe6	; 0xfe6 <Print::print(unsigned char, int) [clone .constprop.37]>
D:\KULIAH SEMESTER 4\LAB PROYEKSI ELEKTRONIKA\smart-drawer\firmware\atmega16\JAM DIGITAL\sketch_mar27a/sketch_mar27a.ino:202
    Serial.print(':');
    2134:	6a e3       	ldi	r22, 0x3A	; 58
    2136:	8f e3       	ldi	r24, 0x3F	; 63
    2138:	92 e0       	ldi	r25, 0x02	; 2
    213a:	0e 94 4c 04 	call	0x898	; 0x898 <Print::print(char)>
D:\KULIAH SEMESTER 4\LAB PROYEKSI ELEKTRONIKA\smart-drawer\firmware\atmega16\JAM DIGITAL\sketch_mar27a/sketch_mar27a.ino:203
    if (alm_m < 10) Serial.print('0');
    213e:	80 91 f7 01 	lds	r24, 0x01F7	; 0x8001f7 <alm_m>
    2142:	8a 30       	cpi	r24, 0x0A	; 10
    2144:	28 f4       	brcc	.+10     	; 0x2150 <main+0x86e>
    2146:	60 e3       	ldi	r22, 0x30	; 48
    2148:	8f e3       	ldi	r24, 0x3F	; 63
    214a:	92 e0       	ldi	r25, 0x02	; 2
    214c:	0e 94 4c 04 	call	0x898	; 0x898 <Print::print(char)>
D:\KULIAH SEMESTER 4\LAB PROYEKSI ELEKTRONIKA\smart-drawer\firmware\atmega16\JAM DIGITAL\sketch_mar27a/sketch_mar27a.ino:204
    Serial.println(alm_m);
    2150:	80 91 f7 01 	lds	r24, 0x01F7	; 0x8001f7 <alm_m>
    2154:	0e 94 fa 07 	call	0xff4	; 0xff4 <Print::println(unsigned char, int) [clone .constprop.32]>
D:\KULIAH SEMESTER 4\LAB PROYEKSI ELEKTRONIKA\smart-drawer\firmware\atmega16\JAM DIGITAL\sketch_mar27a/sketch_mar27a.ino:206

    Serial.print(F("DATE:"));
    2158:	6c e5       	ldi	r22, 0x5C	; 92
    215a:	73 e0       	ldi	r23, 0x03	; 3
    215c:	8f e3       	ldi	r24, 0x3F	; 63
    215e:	92 e0       	ldi	r25, 0x02	; 2
    2160:	0e 94 53 04 	call	0x8a6	; 0x8a6 <Print::print(__FlashStringHelper const*)>
D:\KULIAH SEMESTER 4\LAB PROYEKSI ELEKTRONIKA\smart-drawer\firmware\atmega16\JAM DIGITAL\sketch_mar27a/sketch_mar27a.ino:207
    if (tgl < 10) Serial.print('0');
    2164:	80 91 fd 01 	lds	r24, 0x01FD	; 0x8001fd <tgl>
    2168:	8a 30       	cpi	r24, 0x0A	; 10
    216a:	28 f4       	brcc	.+10     	; 0x2176 <main+0x894>
    216c:	60 e3       	ldi	r22, 0x30	; 48
    216e:	8f e3       	ldi	r24, 0x3F	; 63
    2170:	92 e0       	ldi	r25, 0x02	; 2
    2172:	0e 94 4c 04 	call	0x898	; 0x898 <Print::print(char)>
D:\KULIAH SEMESTER 4\LAB PROYEKSI ELEKTRONIKA\smart-drawer\firmware\atmega16\JAM DIGITAL\sketch_mar27a/sketch_mar27a.ino:208
    Serial.print(tgl);
    2176:	60 91 fd 01 	lds	r22, 0x01FD	; 0x8001fd <tgl>
    217a:	8f e3       	ldi	r24, 0x3F	; 63
    217c:	92 e0       	ldi	r25, 0x02	; 2
    217e:	0e 94 f3 07 	call	0xfe6	; 0xfe6 <Print::print(unsigned char, int) [clone .constprop.37]>
D:\KULIAH SEMESTER 4\LAB PROYEKSI ELEKTRONIKA\smart-drawer\firmware\atmega16\JAM DIGITAL\sketch_mar27a/sketch_mar27a.ino:209
    Serial.print('/');
    2182:	6f e2       	ldi	r22, 0x2F	; 47
    2184:	8f e3       	ldi	r24, 0x3F	; 63
    2186:	92 e0       	ldi	r25, 0x02	; 2
    2188:	0e 94 4c 04 	call	0x898	; 0x898 <Print::print(char)>
D:\KULIAH SEMESTER 4\LAB PROYEKSI ELEKTRONIKA\smart-drawer\firmware\atmega16\JAM DIGITAL\sketch_mar27a/sketch_mar27a.ino:210
    if (bln < 10) Serial.print('0');
    218c:	80 91 fc 01 	lds	r24, 0x01FC	; 0x8001fc <bln>
    2190:	8a 30       	cpi	r24, 0x0A	; 10
    2192:	28 f4       	brcc	.+10     	; 0x219e <main+0x8bc>
    2194:	60 e3       	ldi	r22, 0x30	; 48
    2196:	8f e3       	ldi	r24, 0x3F	; 63
    2198:	92 e0       	ldi	r25, 0x02	; 2
    219a:	0e 94 4c 04 	call	0x898	; 0x898 <Print::print(char)>
D:\KULIAH SEMESTER 4\LAB PROYEKSI ELEKTRONIKA\smart-drawer\firmware\atmega16\JAM DIGITAL\sketch_mar27a/sketch_mar27a.ino:211
    Serial.print(bln);
    219e:	60 91 fc 01 	lds	r22, 0x01FC	; 0x8001fc <bln>
    21a2:	8f e3       	ldi	r24, 0x3F	; 63
    21a4:	92 e0       	ldi	r25, 0x02	; 2
    21a6:	0e 94 f3 07 	call	0xfe6	; 0xfe6 <Print::print(unsigned char, int) [clone .constprop.37]>
D:\KULIAH SEMESTER 4\LAB PROYEKSI ELEKTRONIKA\smart-drawer\firmware\atmega16\JAM DIGITAL\sketch_mar27a/sketch_mar27a.ino:212
    Serial.print('/');
    21aa:	6f e2       	ldi	r22, 0x2F	; 47
    21ac:	8f e3       	ldi	r24, 0x3F	; 63
    21ae:	92 e0       	ldi	r25, 0x02	; 2
    21b0:	0e 94 4c 04 	call	0x898	; 0x898 <Print::print(char)>
D:\KULIAH SEMESTER 4\LAB PROYEKSI ELEKTRONIKA\smart-drawer\firmware\atmega16\JAM DIGITAL\sketch_mar27a/sketch_mar27a.ino:213
    if (thn < 10) Serial.print('0');
    21b4:	80 91 fa 01 	lds	r24, 0x01FA	; 0x8001fa <thn>
    21b8:	90 91 fb 01 	lds	r25, 0x01FB	; 0x8001fb <thn+0x1>
    21bc:	0a 97       	sbiw	r24, 0x0a	; 10
    21be:	2c f4       	brge	.+10     	; 0x21ca <main+0x8e8>
    21c0:	60 e3       	ldi	r22, 0x30	; 48
    21c2:	8f e3       	ldi	r24, 0x3F	; 63
    21c4:	92 e0       	ldi	r25, 0x02	; 2
    21c6:	0e 94 4c 04 	call	0x898	; 0x898 <Print::print(char)>
D:\KULIAH SEMESTER 4\LAB PROYEKSI ELEKTRONIKA\smart-drawer\firmware\atmega16\JAM DIGITAL\sketch_mar27a/sketch_mar27a.ino:214
    Serial.println(thn);
    21ca:	c0 90 fa 01 	lds	r12, 0x01FA	; 0x8001fa <thn>
    21ce:	d0 90 fb 01 	lds	r13, 0x01FB	; 0x8001fb <thn+0x1>
print():
C:\Users\LENOVO\AppData\Local\Arduino15\packages\MightyCore\hardware\avr\3.1.0\cores\MCUdude_corefiles/Print.cpp:79
  return print((unsigned long) b, base);
}

size_t Print::print(int n, int base)
{
  return print((long) n, base);
    21d2:	0d 2c       	mov	r0, r13
    21d4:	00 0c       	add	r0, r0
    21d6:	ee 08       	sbc	r14, r14
    21d8:	ff 08       	sbc	r15, r15
C:\Users\LENOVO\AppData\Local\Arduino15\packages\MightyCore\hardware\avr\3.1.0\cores\MCUdude_corefiles/Print.cpp:97
    if (n < 0) {
      int t = print('-');
      n = -n;
      return printNumber(n, 10) + t;
    }
    return printNumber(n, 10);
    21da:	2a e0       	ldi	r18, 0x0A	; 10
    21dc:	b7 01       	movw	r22, r14
    21de:	a6 01       	movw	r20, r12
C:\Users\LENOVO\AppData\Local\Arduino15\packages\MightyCore\hardware\avr\3.1.0\cores\MCUdude_corefiles/Print.cpp:92
size_t Print::print(long n, int base)
{
  if (base == 0) {
    return write(n);
  } else if (base == 10) {
    if (n < 0) {
    21e0:	f7 fe       	sbrs	r15, 7
    21e2:	0d c0       	rjmp	.+26     	; 0x21fe <main+0x91c>
C:\Users\LENOVO\AppData\Local\Arduino15\packages\MightyCore\hardware\avr\3.1.0\cores\MCUdude_corefiles/Print.cpp:93
      int t = print('-');
    21e4:	6d e2       	ldi	r22, 0x2D	; 45
    21e6:	8f e3       	ldi	r24, 0x3F	; 63
    21e8:	92 e0       	ldi	r25, 0x02	; 2
    21ea:	0e 94 4c 04 	call	0x898	; 0x898 <Print::print(char)>
C:\Users\LENOVO\AppData\Local\Arduino15\packages\MightyCore\hardware\avr\3.1.0\cores\MCUdude_corefiles/Print.cpp:94
      n = -n;
    21ee:	44 27       	eor	r20, r20
    21f0:	55 27       	eor	r21, r21
    21f2:	ba 01       	movw	r22, r20
    21f4:	4c 19       	sub	r20, r12
    21f6:	5d 09       	sbc	r21, r13
    21f8:	6e 09       	sbc	r22, r14
    21fa:	7f 09       	sbc	r23, r15
C:\Users\LENOVO\AppData\Local\Arduino15\packages\MightyCore\hardware\avr\3.1.0\cores\MCUdude_corefiles/Print.cpp:95
      return printNumber(n, 10) + t;
    21fc:	2a e0       	ldi	r18, 0x0A	; 10
C:\Users\LENOVO\AppData\Local\Arduino15\packages\MightyCore\hardware\avr\3.1.0\cores\MCUdude_corefiles/Print.cpp:97
    }
    return printNumber(n, 10);
    21fe:	8f e3       	ldi	r24, 0x3F	; 63
    2200:	92 e0       	ldi	r25, 0x02	; 2
    2202:	0e 94 a7 07 	call	0xf4e	; 0xf4e <Print::printNumber(unsigned long, unsigned char)>
write():
    2206:	68 ec       	ldi	r22, 0xC8	; 200
    2208:	70 e0       	ldi	r23, 0x00	; 0
    220a:	8f e3       	ldi	r24, 0x3F	; 63
    220c:	92 e0       	ldi	r25, 0x02	; 2
    220e:	0e 94 98 07 	call	0xf30	; 0xf30 <Print::write(char const*) [clone .part.2]>
loop():
D:\KULIAH SEMESTER 4\LAB PROYEKSI ELEKTRONIKA\smart-drawer\firmware\atmega16\JAM DIGITAL\sketch_mar27a/sketch_mar27a.ino:216

    Serial.print(F("ALARMON:"));
    2212:	63 e5       	ldi	r22, 0x53	; 83
    2214:	73 e0       	ldi	r23, 0x03	; 3
    2216:	8f e3       	ldi	r24, 0x3F	; 63
    2218:	92 e0       	ldi	r25, 0x02	; 2
    221a:	0e 94 53 04 	call	0x8a6	; 0x8a6 <Print::print(__FlashStringHelper const*)>
D:\KULIAH SEMESTER 4\LAB PROYEKSI ELEKTRONIKA\smart-drawer\firmware\atmega16\JAM DIGITAL\sketch_mar27a/sketch_mar27a.ino:217
    Serial.println(alm_on);
    221e:	80 91 f4 01 	lds	r24, 0x01F4	; 0x8001f4 <alm_on>
    2222:	0e 94 fa 07 	call	0xff4	; 0xff4 <Print::println(unsigned char, int) [clone .constprop.32]>
D:\KULIAH SEMESTER 4\LAB PROYEKSI ELEKTRONIKA\smart-drawer\firmware\atmega16\JAM DIGITAL\sketch_mar27a/sketch_mar27a.ino:220
  }
  
  if (menu_pos == 0 && menu_aktif == 0) {
    2226:	80 91 ef 01 	lds	r24, 0x01EF	; 0x8001ef <menu_pos>
    222a:	81 11       	cpse	r24, r1
    222c:	0e c0       	rjmp	.+28     	; 0x224a <main+0x968>
    222e:	80 91 ee 01 	lds	r24, 0x01EE	; 0x8001ee <menu_aktif>
    2232:	81 11       	cpse	r24, r1
    2234:	0a c0       	rjmp	.+20     	; 0x224a <main+0x968>
D:\KULIAH SEMESTER 4\LAB PROYEKSI ELEKTRONIKA\smart-drawer\firmware\atmega16\JAM DIGITAL\sketch_mar27a/sketch_mar27a.ino:221
    if (detik != detik_lama) { detik_lama = detik; update_display(); }
    2236:	80 91 fe 01 	lds	r24, 0x01FE	; 0x8001fe <detik>
    223a:	90 91 67 00 	lds	r25, 0x0067	; 0x800067 <detik_lama>
    223e:	89 17       	cp	r24, r25
    2240:	21 f0       	breq	.+8      	; 0x224a <main+0x968>
    2242:	80 93 67 00 	sts	0x0067, r24	; 0x800067 <detik_lama>
    2246:	0e 94 1d 08 	call	0x103a	; 0x103a <update_display()>
D:\KULIAH SEMESTER 4\LAB PROYEKSI ELEKTRONIKA\smart-drawer\firmware\atmega16\JAM DIGITAL\sketch_mar27a/sketch_mar27a.ino:226
  }

  static int last_alm = -1;

  if (last_alm != alm_on) {
    224a:	80 91 f4 01 	lds	r24, 0x01F4	; 0x8001f4 <alm_on>
    224e:	90 e0       	ldi	r25, 0x00	; 0
    2250:	20 91 65 00 	lds	r18, 0x0065	; 0x800065 <loop::last_alm>
    2254:	30 91 66 00 	lds	r19, 0x0066	; 0x800066 <loop::last_alm+0x1>
    2258:	82 17       	cp	r24, r18
    225a:	93 07       	cpc	r25, r19
    225c:	41 f0       	breq	.+16     	; 0x226e <main+0x98c>
D:\KULIAH SEMESTER 4\LAB PROYEKSI ELEKTRONIKA\smart-drawer\firmware\atmega16\JAM DIGITAL\sketch_mar27a/sketch_mar27a.ino:227
    last_alm = alm_on;
    225e:	90 93 66 00 	sts	0x0066, r25	; 0x800066 <loop::last_alm+0x1>
    2262:	80 93 65 00 	sts	0x0065, r24	; 0x800065 <loop::last_alm>
D:\KULIAH SEMESTER 4\LAB PROYEKSI ELEKTRONIKA\smart-drawer\firmware\atmega16\JAM DIGITAL\sketch_mar27a/sketch_mar27a.ino:228
    lcd.clear();
    2266:	0e 94 f5 06 	call	0xdea	; 0xdea <LiquidCrystal_I2C::clear() [clone .constprop.46]>
D:\KULIAH SEMESTER 4\LAB PROYEKSI ELEKTRONIKA\smart-drawer\firmware\atmega16\JAM DIGITAL\sketch_mar27a/sketch_mar27a.ino:229
    update_display();
    226a:	0e 94 1d 08 	call	0x103a	; 0x103a <update_display()>
refresh_lampu():
D:\KULIAH SEMESTER 4\LAB PROYEKSI ELEKTRONIKA\smart-drawer\firmware\atmega16\JAM DIGITAL\sketch_mar27a/sketch_mar27a.ino:428
void refresh_lampu() {
  static uint16_t j = 0;
  static int b_val = 50;
  static int b_dir = 1;

  if (mode_lampu == 1) {
    226e:	80 91 f6 01 	lds	r24, 0x01F6	; 0x8001f6 <mode_lampu>
    2272:	81 30       	cpi	r24, 0x01	; 1
    2274:	09 f0       	breq	.+2      	; 0x2278 <main+0x996>
    2276:	19 c1       	rjmp	.+562    	; 0x24aa <main+0xbc8>
D:\KULIAH SEMESTER 4\LAB PROYEKSI ELEKTRONIKA\smart-drawer\firmware\atmega16\JAM DIGITAL\sketch_mar27a/sketch_mar27a.ino:429
    strip.fill(strip.Color(150, 150, 100));
    2278:	64 e6       	ldi	r22, 0x64	; 100
    227a:	76 e9       	ldi	r23, 0x96	; 150
    227c:	86 e9       	ldi	r24, 0x96	; 150
    227e:	90 e0       	ldi	r25, 0x00	; 0
D:\KULIAH SEMESTER 4\LAB PROYEKSI ELEKTRONIKA\smart-drawer\firmware\atmega16\JAM DIGITAL\sketch_mar27a/sketch_mar27a.ino:467
  }
  else if (mode_lampu == 11) {
    strip.fill(strip.Color(255, 220, 160)); // WARM ROOM
  }
  else {
    strip.fill(0);
    2280:	0e 94 e2 02 	call	0x5c4	; 0x5c4 <Adafruit_NeoPixel::fill(unsigned long, unsigned int, unsigned int) [clone .constprop.39]>
    2284:	87 c1       	rjmp	.+782    	; 0x2594 <main+0xcb2>
hitung_hari():
D:\KULIAH SEMESTER 4\LAB PROYEKSI ELEKTRONIKA\smart-drawer\firmware\atmega16\JAM DIGITAL\sketch_mar27a/sketch_mar27a.ino:476
}

unsigned char hitung_hari(unsigned char d, unsigned char m, unsigned char y) {
  int th = 2000 + y;
  static int t[] = {0, 3, 2, 5, 0, 3, 5, 1, 4, 6, 2, 4};
  if (m < 3) th -= 1;
    2286:	21 53       	subi	r18, 0x31	; 49
    2288:	38 4f       	sbci	r19, 0xF8	; 248
    228a:	17 ce       	rjmp	.-978    	; 0x1eba <main+0x5d8>
loop():
D:\KULIAH SEMESTER 4\LAB PROYEKSI ELEKTRONIKA\smart-drawer\firmware\atmega16\JAM DIGITAL\sketch_mar27a/sketch_mar27a.ino:121
      sscanf(cmd, "SETTIME:%d:%d:%d", &h,&m,&s);
      rtc.adjust(DateTime(2000+thn, bln, tgl, h, m, s));
    }

    // ===== SET ALARM =====
    else if (strncmp(cmd, "SETALARM:", 9) == 0) {
    228c:	49 e0       	ldi	r20, 0x09	; 9
    228e:	50 e0       	ldi	r21, 0x00	; 0
    2290:	67 ee       	ldi	r22, 0xE7	; 231
    2292:	70 e0       	ldi	r23, 0x00	; 0
    2294:	c8 01       	movw	r24, r16
    2296:	0e 94 ca 1a 	call	0x3594	; 0x3594 <strncmp>
    229a:	89 2b       	or	r24, r25
    229c:	69 f5       	brne	.+90     	; 0x22f8 <main+0xa16>
D:\KULIAH SEMESTER 4\LAB PROYEKSI ELEKTRONIKA\smart-drawer\firmware\atmega16\JAM DIGITAL\sketch_mar27a/sketch_mar27a.ino:123
      int h, m;
      if (sscanf(cmd, "SETALARM:%d:%d", &h, &m) == 2) {
    229e:	ce 01       	movw	r24, r28
    22a0:	89 96       	adiw	r24, 0x29	; 41
    22a2:	9f 93       	push	r25
    22a4:	8f 93       	push	r24
    22a6:	0e 96       	adiw	r24, 0x0e	; 14
    22a8:	9f 93       	push	r25
    22aa:	8f 93       	push	r24
    22ac:	81 ef       	ldi	r24, 0xF1	; 241
    22ae:	90 e0       	ldi	r25, 0x00	; 0
    22b0:	9f 93       	push	r25
    22b2:	8f 93       	push	r24
    22b4:	1f 93       	push	r17
    22b6:	0f 93       	push	r16
    22b8:	0e 94 d8 1a 	call	0x35b0	; 0x35b0 <sscanf>
    22bc:	0f b6       	in	r0, 0x3f	; 63
    22be:	f8 94       	cli
    22c0:	de bf       	out	0x3e, r29	; 62
    22c2:	0f be       	out	0x3f, r0	; 63
    22c4:	cd bf       	out	0x3d, r28	; 61
    22c6:	02 97       	sbiw	r24, 0x02	; 2
    22c8:	31 f4       	brne	.+12     	; 0x22d6 <main+0x9f4>
D:\KULIAH SEMESTER 4\LAB PROYEKSI ELEKTRONIKA\smart-drawer\firmware\atmega16\JAM DIGITAL\sketch_mar27a/sketch_mar27a.ino:124
        alm_h = h;
    22ca:	8f a9       	ldd	r24, Y+55	; 0x37
    22cc:	80 93 f8 01 	sts	0x01F8, r24	; 0x8001f8 <alm_h>
D:\KULIAH SEMESTER 4\LAB PROYEKSI ELEKTRONIKA\smart-drawer\firmware\atmega16\JAM DIGITAL\sketch_mar27a/sketch_mar27a.ino:125
        alm_m = m;
    22d0:	89 a5       	ldd	r24, Y+41	; 0x29
    22d2:	80 93 f7 01 	sts	0x01F7, r24	; 0x8001f7 <alm_m>
D:\KULIAH SEMESTER 4\LAB PROYEKSI ELEKTRONIKA\smart-drawer\firmware\atmega16\JAM DIGITAL\sketch_mar27a/sketch_mar27a.ino:127
      }
      EEPROM.write(11, alm_h);
    22d6:	60 91 f8 01 	lds	r22, 0x01F8	; 0x8001f8 <alm_h>
    22da:	8b e0       	ldi	r24, 0x0B	; 11
    22dc:	90 e0       	ldi	r25, 0x00	; 0
    22de:	0e 94 e3 09 	call	0x13c6	; 0x13c6 <EEPROMClass::write(int, unsigned char) [clone .isra.9]>
D:\KULIAH SEMESTER 4\LAB PROYEKSI ELEKTRONIKA\smart-drawer\firmware\atmega16\JAM DIGITAL\sketch_mar27a/sketch_mar27a.ino:128
      EEPROM.write(12, alm_m);
    22e2:	60 91 f7 01 	lds	r22, 0x01F7	; 0x8001f7 <alm_m>
    22e6:	8c e0       	ldi	r24, 0x0C	; 12
    22e8:	90 e0       	ldi	r25, 0x00	; 0
D:\KULIAH SEMESTER 4\LAB PROYEKSI ELEKTRONIKA\smart-drawer\firmware\atmega16\JAM DIGITAL\sketch_mar27a/sketch_mar27a.ino:160
    else if (strncmp(cmd, "SETALARMON:", 11) == 0) {
      int on;
      sscanf(cmd, "SETALARMON:%d", &on);
      if (on == 0 || on == 1) {
        alm_on = on;
        EEPROM.write(13, alm_on);
    22ea:	0e 94 e3 09 	call	0x13c6	; 0x13c6 <EEPROMClass::write(int, unsigned char) [clone .isra.9]>
D:\KULIAH SEMESTER 4\LAB PROYEKSI ELEKTRONIKA\smart-drawer\firmware\atmega16\JAM DIGITAL\sketch_mar27a/sketch_mar27a.ino:162

        lcd.clear();        // 🔥 paksa refresh
    22ee:	0e 94 f5 06 	call	0xdea	; 0xdea <LiquidCrystal_I2C::clear() [clone .constprop.46]>
D:\KULIAH SEMESTER 4\LAB PROYEKSI ELEKTRONIKA\smart-drawer\firmware\atmega16\JAM DIGITAL\sketch_mar27a/sketch_mar27a.ino:163
        update_display();   // 🔥 tampilkan ulang
    22f2:	0e 94 1d 08 	call	0x103a	; 0x103a <update_display()>
    22f6:	9e ce       	rjmp	.-708    	; 0x2034 <main+0x752>
D:\KULIAH SEMESTER 4\LAB PROYEKSI ELEKTRONIKA\smart-drawer\firmware\atmega16\JAM DIGITAL\sketch_mar27a/sketch_mar27a.ino:135
      lcd.clear();        // 🔥 paksa refresh
      update_display();   // 🔥 tampilkan ulang
    }

    // ===== SET MODE =====
    else if (strncmp(cmd, "SETMODE:", 8) == 0) {
    22f8:	48 e0       	ldi	r20, 0x08	; 8
    22fa:	50 e0       	ldi	r21, 0x00	; 0
    22fc:	60 e0       	ldi	r22, 0x00	; 0
    22fe:	71 e0       	ldi	r23, 0x01	; 1
    2300:	c8 01       	movw	r24, r16
    2302:	0e 94 ca 1a 	call	0x3594	; 0x3594 <strncmp>
    2306:	89 2b       	or	r24, r25
    2308:	f9 f4       	brne	.+62     	; 0x2348 <main+0xa66>
D:\KULIAH SEMESTER 4\LAB PROYEKSI ELEKTRONIKA\smart-drawer\firmware\atmega16\JAM DIGITAL\sketch_mar27a/sketch_mar27a.ino:137
      int m;
      sscanf(cmd, "SETMODE:%d", &m);
    230a:	ce 01       	movw	r24, r28
    230c:	89 96       	adiw	r24, 0x29	; 41
    230e:	9f 93       	push	r25
    2310:	8f 93       	push	r24
    2312:	89 e0       	ldi	r24, 0x09	; 9
    2314:	91 e0       	ldi	r25, 0x01	; 1
    2316:	9f 93       	push	r25
    2318:	8f 93       	push	r24
    231a:	1f 93       	push	r17
    231c:	0f 93       	push	r16
    231e:	0e 94 d8 1a 	call	0x35b0	; 0x35b0 <sscanf>
D:\KULIAH SEMESTER 4\LAB PROYEKSI ELEKTRONIKA\smart-drawer\firmware\atmega16\JAM DIGITAL\sketch_mar27a/sketch_mar27a.ino:138
      if (m >= 0 && m <= 11) {
    2322:	69 a5       	ldd	r22, Y+41	; 0x29
    2324:	7a a5       	ldd	r23, Y+42	; 0x2a
    2326:	0f 90       	pop	r0
    2328:	0f 90       	pop	r0
    232a:	0f 90       	pop	r0
    232c:	0f 90       	pop	r0
    232e:	0f 90       	pop	r0
    2330:	0f 90       	pop	r0
    2332:	6c 30       	cpi	r22, 0x0C	; 12
    2334:	71 05       	cpc	r23, r1
    2336:	08 f0       	brcs	.+2      	; 0x233a <main+0xa58>
    2338:	7d ce       	rjmp	.-774    	; 0x2034 <main+0x752>
D:\KULIAH SEMESTER 4\LAB PROYEKSI ELEKTRONIKA\smart-drawer\firmware\atmega16\JAM DIGITAL\sketch_mar27a/sketch_mar27a.ino:139
        mode_lampu = m;
    233a:	60 93 f6 01 	sts	0x01F6, r22	; 0x8001f6 <mode_lampu>
D:\KULIAH SEMESTER 4\LAB PROYEKSI ELEKTRONIKA\smart-drawer\firmware\atmega16\JAM DIGITAL\sketch_mar27a/sketch_mar27a.ino:140
        EEPROM.write(10, mode_lampu);
    233e:	8a e0       	ldi	r24, 0x0A	; 10
    2340:	90 e0       	ldi	r25, 0x00	; 0
D:\KULIAH SEMESTER 4\LAB PROYEKSI ELEKTRONIKA\smart-drawer\firmware\atmega16\JAM DIGITAL\sketch_mar27a/sketch_mar27a.ino:150
    else if (strncmp(cmd, "SETTONE:", 8) == 0) {
      int t;
      sscanf(cmd, "SETTONE:%d", &t);
      if (t >= 1 && t <= 5) {
        nada_alarm = t;
        EEPROM.write(14, nada_alarm);
    2342:	0e 94 e3 09 	call	0x13c6	; 0x13c6 <EEPROMClass::write(int, unsigned char) [clone .isra.9]>
    2346:	76 ce       	rjmp	.-788    	; 0x2034 <main+0x752>
D:\KULIAH SEMESTER 4\LAB PROYEKSI ELEKTRONIKA\smart-drawer\firmware\atmega16\JAM DIGITAL\sketch_mar27a/sketch_mar27a.ino:145
        EEPROM.write(10, mode_lampu);
      }
    }

    // ===== SET TONE =====
    else if (strncmp(cmd, "SETTONE:", 8) == 0) {
    2348:	48 e0       	ldi	r20, 0x08	; 8
    234a:	50 e0       	ldi	r21, 0x00	; 0
    234c:	64 e1       	ldi	r22, 0x14	; 20
    234e:	71 e0       	ldi	r23, 0x01	; 1
    2350:	c8 01       	movw	r24, r16
    2352:	0e 94 ca 1a 	call	0x3594	; 0x3594 <strncmp>
    2356:	89 2b       	or	r24, r25
    2358:	f1 f4       	brne	.+60     	; 0x2396 <main+0xab4>
D:\KULIAH SEMESTER 4\LAB PROYEKSI ELEKTRONIKA\smart-drawer\firmware\atmega16\JAM DIGITAL\sketch_mar27a/sketch_mar27a.ino:147
      int t;
      sscanf(cmd, "SETTONE:%d", &t);
    235a:	ce 01       	movw	r24, r28
    235c:	89 96       	adiw	r24, 0x29	; 41
    235e:	9f 93       	push	r25
    2360:	8f 93       	push	r24
    2362:	8d e1       	ldi	r24, 0x1D	; 29
    2364:	91 e0       	ldi	r25, 0x01	; 1
    2366:	9f 93       	push	r25
    2368:	8f 93       	push	r24
    236a:	1f 93       	push	r17
    236c:	0f 93       	push	r16
    236e:	0e 94 d8 1a 	call	0x35b0	; 0x35b0 <sscanf>
D:\KULIAH SEMESTER 4\LAB PROYEKSI ELEKTRONIKA\smart-drawer\firmware\atmega16\JAM DIGITAL\sketch_mar27a/sketch_mar27a.ino:148
      if (t >= 1 && t <= 5) {
    2372:	69 a5       	ldd	r22, Y+41	; 0x29
    2374:	7a a5       	ldd	r23, Y+42	; 0x2a
    2376:	cb 01       	movw	r24, r22
    2378:	01 97       	sbiw	r24, 0x01	; 1
    237a:	0f 90       	pop	r0
    237c:	0f 90       	pop	r0
    237e:	0f 90       	pop	r0
    2380:	0f 90       	pop	r0
    2382:	0f 90       	pop	r0
    2384:	0f 90       	pop	r0
    2386:	05 97       	sbiw	r24, 0x05	; 5
    2388:	08 f0       	brcs	.+2      	; 0x238c <main+0xaaa>
    238a:	54 ce       	rjmp	.-856    	; 0x2034 <main+0x752>
D:\KULIAH SEMESTER 4\LAB PROYEKSI ELEKTRONIKA\smart-drawer\firmware\atmega16\JAM DIGITAL\sketch_mar27a/sketch_mar27a.ino:149
        nada_alarm = t;
    238c:	60 93 f5 01 	sts	0x01F5, r22	; 0x8001f5 <nada_alarm>
D:\KULIAH SEMESTER 4\LAB PROYEKSI ELEKTRONIKA\smart-drawer\firmware\atmega16\JAM DIGITAL\sketch_mar27a/sketch_mar27a.ino:150
        EEPROM.write(14, nada_alarm);
    2390:	8e e0       	ldi	r24, 0x0E	; 14
    2392:	90 e0       	ldi	r25, 0x00	; 0
    2394:	d6 cf       	rjmp	.-84     	; 0x2342 <main+0xa60>
D:\KULIAH SEMESTER 4\LAB PROYEKSI ELEKTRONIKA\smart-drawer\firmware\atmega16\JAM DIGITAL\sketch_mar27a/sketch_mar27a.ino:155
      }
    }

    // ===== SET ALARM ON/OFF =====
    else if (strncmp(cmd, "SETALARMON:", 11) == 0) {
    2396:	4b e0       	ldi	r20, 0x0B	; 11
    2398:	50 e0       	ldi	r21, 0x00	; 0
    239a:	68 e2       	ldi	r22, 0x28	; 40
    239c:	71 e0       	ldi	r23, 0x01	; 1
    239e:	c8 01       	movw	r24, r16
    23a0:	0e 94 ca 1a 	call	0x3594	; 0x3594 <strncmp>
    23a4:	89 2b       	or	r24, r25
    23a6:	e9 f4       	brne	.+58     	; 0x23e2 <main+0xb00>
D:\KULIAH SEMESTER 4\LAB PROYEKSI ELEKTRONIKA\smart-drawer\firmware\atmega16\JAM DIGITAL\sketch_mar27a/sketch_mar27a.ino:157
      int on;
      sscanf(cmd, "SETALARMON:%d", &on);
    23a8:	ce 01       	movw	r24, r28
    23aa:	89 96       	adiw	r24, 0x29	; 41
    23ac:	9f 93       	push	r25
    23ae:	8f 93       	push	r24
    23b0:	84 e3       	ldi	r24, 0x34	; 52
    23b2:	91 e0       	ldi	r25, 0x01	; 1
    23b4:	9f 93       	push	r25
    23b6:	8f 93       	push	r24
    23b8:	1f 93       	push	r17
    23ba:	0f 93       	push	r16
    23bc:	0e 94 d8 1a 	call	0x35b0	; 0x35b0 <sscanf>
D:\KULIAH SEMESTER 4\LAB PROYEKSI ELEKTRONIKA\smart-drawer\firmware\atmega16\JAM DIGITAL\sketch_mar27a/sketch_mar27a.ino:158
      if (on == 0 || on == 1) {
    23c0:	69 a5       	ldd	r22, Y+41	; 0x29
    23c2:	7a a5       	ldd	r23, Y+42	; 0x2a
    23c4:	0f 90       	pop	r0
    23c6:	0f 90       	pop	r0
    23c8:	0f 90       	pop	r0
    23ca:	0f 90       	pop	r0
    23cc:	0f 90       	pop	r0
    23ce:	0f 90       	pop	r0
    23d0:	62 30       	cpi	r22, 0x02	; 2
    23d2:	71 05       	cpc	r23, r1
    23d4:	08 f0       	brcs	.+2      	; 0x23d8 <main+0xaf6>
    23d6:	2e ce       	rjmp	.-932    	; 0x2034 <main+0x752>
D:\KULIAH SEMESTER 4\LAB PROYEKSI ELEKTRONIKA\smart-drawer\firmware\atmega16\JAM DIGITAL\sketch_mar27a/sketch_mar27a.ino:159
        alm_on = on;
    23d8:	60 93 f4 01 	sts	0x01F4, r22	; 0x8001f4 <alm_on>
D:\KULIAH SEMESTER 4\LAB PROYEKSI ELEKTRONIKA\smart-drawer\firmware\atmega16\JAM DIGITAL\sketch_mar27a/sketch_mar27a.ino:160
        EEPROM.write(13, alm_on);
    23dc:	8d e0       	ldi	r24, 0x0D	; 13
    23de:	90 e0       	ldi	r25, 0x00	; 0
    23e0:	84 cf       	rjmp	.-248    	; 0x22ea <main+0xa08>
D:\KULIAH SEMESTER 4\LAB PROYEKSI ELEKTRONIKA\smart-drawer\firmware\atmega16\JAM DIGITAL\sketch_mar27a/sketch_mar27a.ino:168
        update_display();   // 🔥 tampilkan ulang
      }
    }
    
    // ===== PERUBAHAN: TERIMA JADWAL SHOLAT DARI ESP32 =====
    else if (strncmp(cmd, "JADWAL:", 7) == 0) {
    23e2:	47 e0       	ldi	r20, 0x07	; 7
    23e4:	50 e0       	ldi	r21, 0x00	; 0
    23e6:	62 e4       	ldi	r22, 0x42	; 66
    23e8:	71 e0       	ldi	r23, 0x01	; 1
    23ea:	c8 01       	movw	r24, r16
    23ec:	0e 94 ca 1a 	call	0x3594	; 0x3594 <strncmp>
    23f0:	89 2b       	or	r24, r25
    23f2:	09 f0       	breq	.+2      	; 0x23f6 <main+0xb14>
    23f4:	1f ce       	rjmp	.-962    	; 0x2034 <main+0x752>
D:\KULIAH SEMESTER 4\LAB PROYEKSI ELEKTRONIKA\smart-drawer\firmware\atmega16\JAM DIGITAL\sketch_mar27a/sketch_mar27a.ino:171
      int s_h, s_m, d_h, d_m, a_h, a_m, m_h, m_m, i_h, i_m;
      // Parsing string "JADWAL:04:24,11:40,15:00,17:35,18:46"
      if (sscanf(cmd, "JADWAL:%d:%d,%d:%d,%d:%d,%d:%d,%d:%d", 
    23f6:	ce 01       	movw	r24, r28
    23f8:	89 96       	adiw	r24, 0x29	; 41
    23fa:	9f 93       	push	r25
    23fc:	8f 93       	push	r24
    23fe:	0e 96       	adiw	r24, 0x0e	; 14
    2400:	9f 93       	push	r25
    2402:	8f 93       	push	r24
    2404:	02 96       	adiw	r24, 0x02	; 2
    2406:	9f 93       	push	r25
    2408:	8f 93       	push	r24
    240a:	02 96       	adiw	r24, 0x02	; 2
    240c:	9f 93       	push	r25
    240e:	8f 93       	push	r24
    2410:	02 96       	adiw	r24, 0x02	; 2
    2412:	9f 93       	push	r25
    2414:	8f 93       	push	r24
    2416:	02 96       	adiw	r24, 0x02	; 2
    2418:	9f 93       	push	r25
    241a:	8f 93       	push	r24
    241c:	7f 92       	push	r7
    241e:	6f 92       	push	r6
    2420:	7e 01       	movw	r14, r28
    2422:	f3 e4       	ldi	r31, 0x43	; 67
    2424:	ef 0e       	add	r14, r31
    2426:	f1 1c       	adc	r15, r1
    2428:	ff 92       	push	r15
    242a:	ef 92       	push	r14
    242c:	6e 01       	movw	r12, r28
    242e:	25 e4       	ldi	r18, 0x45	; 69
    2430:	c2 0e       	add	r12, r18
    2432:	d1 1c       	adc	r13, r1
    2434:	df 92       	push	r13
    2436:	cf 92       	push	r12
    2438:	4e 01       	movw	r8, r28
    243a:	37 e4       	ldi	r19, 0x47	; 71
    243c:	83 0e       	add	r8, r19
    243e:	91 1c       	adc	r9, r1
    2440:	9f 92       	push	r9
    2442:	8f 92       	push	r8
    2444:	8a e4       	ldi	r24, 0x4A	; 74
    2446:	91 e0       	ldi	r25, 0x01	; 1
    2448:	9f 93       	push	r25
    244a:	8f 93       	push	r24
    244c:	1f 93       	push	r17
    244e:	0f 93       	push	r16
    2450:	0e 94 d8 1a 	call	0x35b0	; 0x35b0 <sscanf>
    2454:	0f b6       	in	r0, 0x3f	; 63
    2456:	f8 94       	cli
    2458:	de bf       	out	0x3e, r29	; 62
    245a:	0f be       	out	0x3f, r0	; 63
    245c:	cd bf       	out	0x3d, r28	; 61
    245e:	0a 97       	sbiw	r24, 0x0a	; 10
    2460:	09 f0       	breq	.+2      	; 0x2464 <main+0xb82>
    2462:	e8 cd       	rjmp	.-1072   	; 0x2034 <main+0x752>
D:\KULIAH SEMESTER 4\LAB PROYEKSI ELEKTRONIKA\smart-drawer\firmware\atmega16\JAM DIGITAL\sketch_mar27a/sketch_mar27a.ino:174
          &s_h, &s_m, &d_h, &d_m, &a_h, &a_m, &m_h, &m_m, &i_h, &i_m) == 10) {
        
        jadwal_hari_ini[0][0] = s_h; jadwal_hari_ini[0][1] = s_m; // Subuh
    2464:	f4 01       	movw	r30, r8
    2466:	80 81       	ld	r24, Z
    2468:	80 93 68 00 	sts	0x0068, r24	; 0x800068 <jadwal_hari_ini>
    246c:	d6 01       	movw	r26, r12
    246e:	8c 91       	ld	r24, X
    2470:	80 93 69 00 	sts	0x0069, r24	; 0x800069 <jadwal_hari_ini+0x1>
D:\KULIAH SEMESTER 4\LAB PROYEKSI ELEKTRONIKA\smart-drawer\firmware\atmega16\JAM DIGITAL\sketch_mar27a/sketch_mar27a.ino:175
        jadwal_hari_ini[1][0] = d_h; jadwal_hari_ini[1][1] = d_m; // Dzuhur
    2474:	f7 01       	movw	r30, r14
    2476:	80 81       	ld	r24, Z
    2478:	80 93 6a 00 	sts	0x006A, r24	; 0x80006a <jadwal_hari_ini+0x2>
    247c:	d3 01       	movw	r26, r6
    247e:	8c 91       	ld	r24, X
    2480:	80 93 6b 00 	sts	0x006B, r24	; 0x80006b <jadwal_hari_ini+0x3>
D:\KULIAH SEMESTER 4\LAB PROYEKSI ELEKTRONIKA\smart-drawer\firmware\atmega16\JAM DIGITAL\sketch_mar27a/sketch_mar27a.ino:176
        jadwal_hari_ini[2][0] = a_h; jadwal_hari_ini[2][1] = a_m; // Ashar
    2484:	8f ad       	ldd	r24, Y+63	; 0x3f
    2486:	80 93 6c 00 	sts	0x006C, r24	; 0x80006c <jadwal_hari_ini+0x4>
    248a:	8d ad       	ldd	r24, Y+61	; 0x3d
    248c:	80 93 6d 00 	sts	0x006D, r24	; 0x80006d <jadwal_hari_ini+0x5>
D:\KULIAH SEMESTER 4\LAB PROYEKSI ELEKTRONIKA\smart-drawer\firmware\atmega16\JAM DIGITAL\sketch_mar27a/sketch_mar27a.ino:177
        jadwal_hari_ini[3][0] = m_h; jadwal_hari_ini[3][1] = m_m; // Maghrib
    2490:	8b ad       	ldd	r24, Y+59	; 0x3b
    2492:	80 93 6e 00 	sts	0x006E, r24	; 0x80006e <jadwal_hari_ini+0x6>
    2496:	89 ad       	ldd	r24, Y+57	; 0x39
    2498:	80 93 6f 00 	sts	0x006F, r24	; 0x80006f <jadwal_hari_ini+0x7>
D:\KULIAH SEMESTER 4\LAB PROYEKSI ELEKTRONIKA\smart-drawer\firmware\atmega16\JAM DIGITAL\sketch_mar27a/sketch_mar27a.ino:178
        jadwal_hari_ini[4][0] = i_h; jadwal_hari_ini[4][1] = i_m; // Isya
    249c:	8f a9       	ldd	r24, Y+55	; 0x37
    249e:	80 93 70 00 	sts	0x0070, r24	; 0x800070 <jadwal_hari_ini+0x8>
    24a2:	89 a5       	ldd	r24, Y+41	; 0x29
    24a4:	80 93 71 00 	sts	0x0071, r24	; 0x800071 <jadwal_hari_ini+0x9>
    24a8:	c5 cd       	rjmp	.-1142   	; 0x2034 <main+0x752>
refresh_lampu():
D:\KULIAH SEMESTER 4\LAB PROYEKSI ELEKTRONIKA\smart-drawer\firmware\atmega16\JAM DIGITAL\sketch_mar27a/sketch_mar27a.ino:431
  static int b_dir = 1;

  if (mode_lampu == 1) {
    strip.fill(strip.Color(150, 150, 100));
  }
  else if (mode_lampu == 2) {
    24aa:	82 30       	cpi	r24, 0x02	; 2
    24ac:	29 f4       	brne	.+10     	; 0x24b8 <main+0xbd6>
D:\KULIAH SEMESTER 4\LAB PROYEKSI ELEKTRONIKA\smart-drawer\firmware\atmega16\JAM DIGITAL\sketch_mar27a/sketch_mar27a.ino:432
    strip.fill(strip.Color(255, 120, 0));
    24ae:	60 e0       	ldi	r22, 0x00	; 0
    24b0:	78 e7       	ldi	r23, 0x78	; 120
    24b2:	8f ef       	ldi	r24, 0xFF	; 255
    24b4:	90 e0       	ldi	r25, 0x00	; 0
    24b6:	e4 ce       	rjmp	.-568    	; 0x2280 <main+0x99e>
D:\KULIAH SEMESTER 4\LAB PROYEKSI ELEKTRONIKA\smart-drawer\firmware\atmega16\JAM DIGITAL\sketch_mar27a/sketch_mar27a.ino:434
  }
  else if (mode_lampu == 3) {
    24b8:	83 30       	cpi	r24, 0x03	; 3
    24ba:	29 f4       	brne	.+10     	; 0x24c6 <main+0xbe4>
D:\KULIAH SEMESTER 4\LAB PROYEKSI ELEKTRONIKA\smart-drawer\firmware\atmega16\JAM DIGITAL\sketch_mar27a/sketch_mar27a.ino:435
    strip.fill(strip.Color(0, 0, 255));
    24bc:	6f ef       	ldi	r22, 0xFF	; 255
    24be:	70 e0       	ldi	r23, 0x00	; 0
    24c0:	80 e0       	ldi	r24, 0x00	; 0
    24c2:	90 e0       	ldi	r25, 0x00	; 0
    24c4:	dd ce       	rjmp	.-582    	; 0x2280 <main+0x99e>
D:\KULIAH SEMESTER 4\LAB PROYEKSI ELEKTRONIKA\smart-drawer\firmware\atmega16\JAM DIGITAL\sketch_mar27a/sketch_mar27a.ino:437
  }
  else if (mode_lampu == 4) {
    24c6:	84 30       	cpi	r24, 0x04	; 4
    24c8:	29 f4       	brne	.+10     	; 0x24d4 <main+0xbf2>
D:\KULIAH SEMESTER 4\LAB PROYEKSI ELEKTRONIKA\smart-drawer\firmware\atmega16\JAM DIGITAL\sketch_mar27a/sketch_mar27a.ino:438
    strip.fill(strip.Color(255, 0, 150));
    24ca:	66 e9       	ldi	r22, 0x96	; 150
    24cc:	70 e0       	ldi	r23, 0x00	; 0
    24ce:	8f ef       	ldi	r24, 0xFF	; 255
    24d0:	90 e0       	ldi	r25, 0x00	; 0
    24d2:	d6 ce       	rjmp	.-596    	; 0x2280 <main+0x99e>
D:\KULIAH SEMESTER 4\LAB PROYEKSI ELEKTRONIKA\smart-drawer\firmware\atmega16\JAM DIGITAL\sketch_mar27a/sketch_mar27a.ino:440
  }
  else if (mode_lampu == 5) {
    24d4:	85 30       	cpi	r24, 0x05	; 5
    24d6:	09 f0       	breq	.+2      	; 0x24da <main+0xbf8>
    24d8:	94 c1       	rjmp	.+808    	; 0x2802 <headD+0x170>
    24da:	f1 2c       	mov	r15, r1
    24dc:	e1 2c       	mov	r14, r1
main():
D:\KULIAH SEMESTER 4\LAB PROYEKSI ELEKTRONIKA\smart-drawer\firmware\atmega16\JAM DIGITAL\sketch_mar27a/sketch_mar27a.ino:441
    for (int i = 0; i < strip.numPixels(); i++) {
    24de:	10 e0       	ldi	r17, 0x00	; 0
    24e0:	00 e0       	ldi	r16, 0x00	; 0
    24e2:	60 91 ea 02 	lds	r22, 0x02EA	; 0x8002ea <strip+0x2>
    24e6:	70 91 eb 02 	lds	r23, 0x02EB	; 0x8002eb <strip+0x3>
    24ea:	40 91 da 01 	lds	r20, 0x01DA	; 0x8001da <refresh_lampu()::j>
    24ee:	50 91 db 01 	lds	r21, 0x01DB	; 0x8001db <refresh_lampu()::j+0x1>
refresh_lampu():
    24f2:	06 17       	cp	r16, r22
    24f4:	17 07       	cpc	r17, r23
    24f6:	08 f0       	brcs	.+2      	; 0x24fa <main+0xc18>
    24f8:	47 c0       	rjmp	.+142    	; 0x2588 <main+0xca6>
D:\KULIAH SEMESTER 4\LAB PROYEKSI ELEKTRONIKA\smart-drawer\firmware\atmega16\JAM DIGITAL\sketch_mar27a/sketch_mar27a.ino:442
      strip.setPixelColor(i, Wheel(((i * 256 / strip.numPixels()) + j) & 255));
    24fa:	c7 01       	movw	r24, r14
    24fc:	0e 94 27 19 	call	0x324e	; 0x324e <__udivmodhi4>
    2500:	96 2f       	mov	r25, r22
    2502:	94 0f       	add	r25, r20
Wheel():
D:\KULIAH SEMESTER 4\LAB PROYEKSI ELEKTRONIKA\smart-drawer\firmware\atmega16\JAM DIGITAL\sketch_mar27a/sketch_mar27a.ino:68
  {4,30}, {11,45}, {15,00}, {17,45}, {19,00} // Default awal saat baru menyala
};
// ==========================================================

uint32_t Wheel(byte WheelPos) {
  WheelPos = 255 - WheelPos;
    2504:	90 95       	com	r25
D:\KULIAH SEMESTER 4\LAB PROYEKSI ELEKTRONIKA\smart-drawer\firmware\atmega16\JAM DIGITAL\sketch_mar27a/sketch_mar27a.ino:69
  if (WheelPos < 85) return strip.Color(255 - WheelPos * 3, 0, WheelPos * 3);
    2506:	95 35       	cpi	r25, 0x55	; 85
    2508:	c8 f4       	brcc	.+50     	; 0x253c <main+0xc5a>
    250a:	89 2f       	mov	r24, r25
    250c:	88 0f       	add	r24, r24
    250e:	88 0f       	add	r24, r24
    2510:	49 2f       	mov	r20, r25
    2512:	48 1b       	sub	r20, r24
    2514:	8f ef       	ldi	r24, 0xFF	; 255
    2516:	84 0f       	add	r24, r20
_ZN17Adafruit_NeoPixel5ColorEhhh():
c:\Users\LENOVO\Documents\Arduino\libraries\Adafruit_NeoPixel/Adafruit_NeoPixel.h:342
             variable for later use or passed to the setPixelColor()
             function. Packed RGB format is predictable, regardless of
             LED strand color order.
  */
  static uint32_t Color(uint8_t r, uint8_t g, uint8_t b) {
    return ((uint32_t)r << 16) | ((uint32_t)g << 8) | b;
    2518:	48 2f       	mov	r20, r24
    251a:	50 e0       	ldi	r21, 0x00	; 0
    251c:	70 e0       	ldi	r23, 0x00	; 0
    251e:	60 e0       	ldi	r22, 0x00	; 0
    2520:	ba 01       	movw	r22, r20
    2522:	55 27       	eor	r21, r21
    2524:	44 27       	eor	r20, r20
Wheel():
D:\KULIAH SEMESTER 4\LAB PROYEKSI ELEKTRONIKA\smart-drawer\firmware\atmega16\JAM DIGITAL\sketch_mar27a/sketch_mar27a.ino:69
    2526:	89 2f       	mov	r24, r25
    2528:	88 0f       	add	r24, r24
    252a:	98 0f       	add	r25, r24
_ZN17Adafruit_NeoPixel5ColorEhhh():
c:\Users\LENOVO\Documents\Arduino\libraries\Adafruit_NeoPixel/Adafruit_NeoPixel.h:342
    252c:	49 2b       	or	r20, r25
setPixelColor():
    252e:	c8 01       	movw	r24, r16
    2530:	0e 94 78 02 	call	0x4f0	; 0x4f0 <Adafruit_NeoPixel::setPixelColor(unsigned int, unsigned long) [clone .part.5] [clone .constprop.41]>
refresh_lampu():
D:\KULIAH SEMESTER 4\LAB PROYEKSI ELEKTRONIKA\smart-drawer\firmware\atmega16\JAM DIGITAL\sketch_mar27a/sketch_mar27a.ino:441
  }
  else if (mode_lampu == 4) {
    strip.fill(strip.Color(255, 0, 150));
  }
  else if (mode_lampu == 5) {
    for (int i = 0; i < strip.numPixels(); i++) {
    2534:	0f 5f       	subi	r16, 0xFF	; 255
    2536:	1f 4f       	sbci	r17, 0xFF	; 255
    2538:	f3 94       	inc	r15
    253a:	d3 cf       	rjmp	.-90     	; 0x24e2 <main+0xc00>
Wheel():
D:\KULIAH SEMESTER 4\LAB PROYEKSI ELEKTRONIKA\smart-drawer\firmware\atmega16\JAM DIGITAL\sketch_mar27a/sketch_mar27a.ino:70
// ==========================================================

uint32_t Wheel(byte WheelPos) {
  WheelPos = 255 - WheelPos;
  if (WheelPos < 85) return strip.Color(255 - WheelPos * 3, 0, WheelPos * 3);
  if (WheelPos < 170) { WheelPos -= 85; return strip.Color(0, WheelPos * 3, 255 - WheelPos * 3); }
    253c:	9a 3a       	cpi	r25, 0xAA	; 170
    253e:	88 f4       	brcc	.+34     	; 0x2562 <main+0xc80>
    2540:	95 55       	subi	r25, 0x55	; 85
    2542:	49 2f       	mov	r20, r25
    2544:	44 0f       	add	r20, r20
    2546:	49 0f       	add	r20, r25
_ZN17Adafruit_NeoPixel5ColorEhhh():
c:\Users\LENOVO\Documents\Arduino\libraries\Adafruit_NeoPixel/Adafruit_NeoPixel.h:342
    2548:	50 e0       	ldi	r21, 0x00	; 0
    254a:	70 e0       	ldi	r23, 0x00	; 0
    254c:	60 e0       	ldi	r22, 0x00	; 0
    254e:	76 2f       	mov	r23, r22
    2550:	65 2f       	mov	r22, r21
    2552:	54 2f       	mov	r21, r20
    2554:	44 27       	eor	r20, r20
Wheel():
D:\KULIAH SEMESTER 4\LAB PROYEKSI ELEKTRONIKA\smart-drawer\firmware\atmega16\JAM DIGITAL\sketch_mar27a/sketch_mar27a.ino:70
    2556:	89 2f       	mov	r24, r25
    2558:	88 0f       	add	r24, r24
    255a:	88 0f       	add	r24, r24
    255c:	98 1b       	sub	r25, r24
    255e:	91 50       	subi	r25, 0x01	; 1
    2560:	e5 cf       	rjmp	.-54     	; 0x252c <main+0xc4a>
D:\KULIAH SEMESTER 4\LAB PROYEKSI ELEKTRONIKA\smart-drawer\firmware\atmega16\JAM DIGITAL\sketch_mar27a/sketch_mar27a.ino:71
  WheelPos -= 170; return strip.Color(WheelPos * 3, 255 - WheelPos * 3, 0);
    2562:	9a 5a       	subi	r25, 0xAA	; 170
    2564:	89 2f       	mov	r24, r25
    2566:	88 0f       	add	r24, r24
    2568:	88 0f       	add	r24, r24
    256a:	f9 2f       	mov	r31, r25
    256c:	f8 1b       	sub	r31, r24
    256e:	8f 2f       	mov	r24, r31
    2570:	81 50       	subi	r24, 0x01	; 1
    2572:	49 2f       	mov	r20, r25
    2574:	44 0f       	add	r20, r20
    2576:	49 0f       	add	r20, r25
_ZN17Adafruit_NeoPixel5ColorEhhh():
c:\Users\LENOVO\Documents\Arduino\libraries\Adafruit_NeoPixel/Adafruit_NeoPixel.h:342
    2578:	50 e0       	ldi	r21, 0x00	; 0
    257a:	70 e0       	ldi	r23, 0x00	; 0
    257c:	60 e0       	ldi	r22, 0x00	; 0
    257e:	ba 01       	movw	r22, r20
    2580:	55 27       	eor	r21, r21
    2582:	44 27       	eor	r20, r20
    2584:	58 2b       	or	r21, r24
    2586:	d3 cf       	rjmp	.-90     	; 0x252e <main+0xc4c>
refresh_lampu():
D:\KULIAH SEMESTER 4\LAB PROYEKSI ELEKTRONIKA\smart-drawer\firmware\atmega16\JAM DIGITAL\sketch_mar27a/sketch_mar27a.ino:444
  }
  else if (mode_lampu == 5) {
    for (int i = 0; i < strip.numPixels(); i++) {
      strip.setPixelColor(i, Wheel(((i * 256 / strip.numPixels()) + j) & 255));
    }
    j++;
    2588:	4f 5f       	subi	r20, 0xFF	; 255
    258a:	5f 4f       	sbci	r21, 0xFF	; 255
    258c:	50 93 db 01 	sts	0x01DB, r21	; 0x8001db <refresh_lampu()::j+0x1>
    2590:	40 93 da 01 	sts	0x01DA, r20	; 0x8001da <refresh_lampu()::j>
show():
c:\Users\LENOVO\Documents\Arduino\libraries\Adafruit_NeoPixel/Adafruit_NeoPixel.cpp:431
           specialized alternative or companion libraries exist that use
           very device-specific peripherals to work around it.
*/
void Adafruit_NeoPixel::show(void) {

  if (!pixels)
    2594:	80 91 f1 02 	lds	r24, 0x02F1	; 0x8002f1 <strip+0x9>
    2598:	90 91 f2 02 	lds	r25, 0x02F2	; 0x8002f2 <strip+0xa>
    259c:	89 2b       	or	r24, r25
    259e:	09 f4       	brne	.+2      	; 0x25a2 <main+0xcc0>
    25a0:	ce c0       	rjmp	.+412    	; 0x273e <headD+0xac>
_ZN17Adafruit_NeoPixel7canShowEv.isra.0():
c:\Users\LENOVO\Documents\Arduino\libraries\Adafruit_NeoPixel/Adafruit_NeoPixel.h:268
    // show() call happens precisely around the rollover, but that's
    // neither likely nor especially harmful, vs. other code that might
    // stall for 30+ minutes, or having to document and frequently remind
    // and/or provide tech support explaining an unintuitive need for
    // show() calls at least once an hour.
    uint32_t now = micros();
    25a2:	0e 94 f4 03 	call	0x7e8	; 0x7e8 <micros>
c:\Users\LENOVO\Documents\Arduino\libraries\Adafruit_NeoPixel/Adafruit_NeoPixel.h:269
    if (endTime > now) {
    25a6:	00 91 f7 02 	lds	r16, 0x02F7	; 0x8002f7 <strip+0xf>
    25aa:	10 91 f8 02 	lds	r17, 0x02F8	; 0x8002f8 <strip+0x10>
    25ae:	20 91 f9 02 	lds	r18, 0x02F9	; 0x8002f9 <strip+0x11>
    25b2:	30 91 fa 02 	lds	r19, 0x02FA	; 0x8002fa <strip+0x12>
    25b6:	60 17       	cp	r22, r16
    25b8:	71 07       	cpc	r23, r17
    25ba:	82 07       	cpc	r24, r18
    25bc:	93 07       	cpc	r25, r19
    25be:	40 f4       	brcc	.+16     	; 0x25d0 <main+0xcee>
c:\Users\LENOVO\Documents\Arduino\libraries\Adafruit_NeoPixel/Adafruit_NeoPixel.h:270
      endTime = now;
    25c0:	60 93 f7 02 	sts	0x02F7, r22	; 0x8002f7 <strip+0xf>
    25c4:	70 93 f8 02 	sts	0x02F8, r23	; 0x8002f8 <strip+0x10>
    25c8:	80 93 f9 02 	sts	0x02F9, r24	; 0x8002f9 <strip+0x11>
    25cc:	90 93 fa 02 	sts	0x02FA, r25	; 0x8002fa <strip+0x12>
c:\Users\LENOVO\Documents\Arduino\libraries\Adafruit_NeoPixel/Adafruit_NeoPixel.h:272
    }
    return (now - endTime) >= 300L;
    25d0:	00 91 f7 02 	lds	r16, 0x02F7	; 0x8002f7 <strip+0xf>
    25d4:	10 91 f8 02 	lds	r17, 0x02F8	; 0x8002f8 <strip+0x10>
    25d8:	20 91 f9 02 	lds	r18, 0x02F9	; 0x8002f9 <strip+0x11>
    25dc:	30 91 fa 02 	lds	r19, 0x02FA	; 0x8002fa <strip+0x12>
    25e0:	60 1b       	sub	r22, r16
    25e2:	71 0b       	sbc	r23, r17
    25e4:	82 0b       	sbc	r24, r18
    25e6:	93 0b       	sbc	r25, r19
show():
c:\Users\LENOVO\Documents\Arduino\libraries\Adafruit_NeoPixel/Adafruit_NeoPixel.cpp:440
  // put a delay at the end of the function, the ending time is noted and
  // the function will simply hold off (if needed) on issuing the
  // subsequent round of data until the latch time has elapsed. This
  // allows the mainline code to start generating the next frame of data
  // rather than stalling for the latch.
  while (!canShow())
    25e8:	6c 32       	cpi	r22, 0x2C	; 44
    25ea:	71 40       	sbci	r23, 0x01	; 1
    25ec:	81 05       	cpc	r24, r1
    25ee:	91 05       	cpc	r25, r1
    25f0:	c0 f2       	brcs	.-80     	; 0x25a2 <main+0xcc0>
c:\Users\LENOVO\Documents\Arduino\libraries\Adafruit_NeoPixel/Adafruit_NeoPixel.cpp:459
    // to the PORT register as needed.

  // NRF52 may use PWM + DMA (if available), may not need to disable interrupt
  // ESP32 may not disable interrupts because espShow() uses RMT which tries to acquire locks
#if !(defined(NRF52) || defined(NRF52_SERIES) || defined(ESP32))
  noInterrupts(); // Need 100% focus on instruction timing
    25f2:	f8 94       	cli
c:\Users\LENOVO\Documents\Arduino\libraries\Adafruit_NeoPixel/Adafruit_NeoPixel.cpp:469
#endif

#if defined(__AVR__)
  // AVR MCUs -- ATmega & ATtiny (no XMEGA) ---------------------------------

  volatile uint16_t i = numBytes; // Loop counter
    25f4:	80 91 ec 02 	lds	r24, 0x02EC	; 0x8002ec <strip+0x4>
    25f8:	90 91 ed 02 	lds	r25, 0x02ED	; 0x8002ed <strip+0x5>
    25fc:	9e ab       	std	Y+54, r25	; 0x36
    25fe:	8d ab       	std	Y+53, r24	; 0x35
c:\Users\LENOVO\Documents\Arduino\libraries\Adafruit_NeoPixel/Adafruit_NeoPixel.cpp:470
  volatile uint8_t *ptr = pixels, // Pointer to next byte
    2600:	e0 91 f1 02 	lds	r30, 0x02F1	; 0x8002f1 <strip+0x9>
    2604:	f0 91 f2 02 	lds	r31, 0x02F2	; 0x8002f2 <strip+0xa>
c:\Users\LENOVO\Documents\Arduino\libraries\Adafruit_NeoPixel/Adafruit_NeoPixel.cpp:471
      b = *ptr++,                 // Current byte value
    2608:	df 01       	movw	r26, r30
    260a:	11 96       	adiw	r26, 0x01	; 1
    260c:	80 81       	ld	r24, Z
    260e:	60 96       	adiw	r28, 0x10	; 16
    2610:	8f af       	std	Y+63, r24	; 0x3f
    2612:	60 97       	sbiw	r28, 0x10	; 16
c:\Users\LENOVO\Documents\Arduino\libraries\Adafruit_NeoPixel/Adafruit_NeoPixel.cpp:493

// 8 MHz(ish) AVR ---------------------------------------------------------
#if (F_CPU >= 7400000UL) && (F_CPU <= 9500000UL)

#if defined(NEO_KHZ400) // 800 KHz check needed only if 400 KHz support enabled
  if (is800KHz) {
    2614:	80 91 e8 02 	lds	r24, 0x02E8	; 0x8002e8 <strip>
    2618:	e0 91 fb 02 	lds	r30, 0x02FB	; 0x8002fb <strip+0x13>
    261c:	f0 91 fc 02 	lds	r31, 0x02FC	; 0x8002fc <strip+0x14>
    2620:	88 23       	and	r24, r24
    2622:	09 f4       	brne	.+2      	; 0x2626 <main+0xd44>
    2624:	2c c2       	rjmp	.+1112   	; 0x2a7e <headC+0x82>
c:\Users\LENOVO\Documents\Arduino\libraries\Adafruit_NeoPixel/Adafruit_NeoPixel.cpp:496
#endif

    volatile uint8_t n1, n2 = 0; // First, next bits out
    2626:	2a 96       	adiw	r28, 0x0a	; 10
    2628:	1f ae       	std	Y+63, r1	; 0x3f
    262a:	2a 97       	sbiw	r28, 0x0a	; 10
c:\Users\LENOVO\Documents\Arduino\libraries\Adafruit_NeoPixel/Adafruit_NeoPixel.cpp:508

    // PORTD OUTPUT ----------------------------------------------------

#if defined(PORTD)
#if defined(PORTB) || defined(PORTC) || defined(PORTF)
    if (port == &PORTD) {
    262c:	e2 33       	cpi	r30, 0x32	; 50
    262e:	f1 05       	cpc	r31, r1
    2630:	09 f0       	breq	.+2      	; 0x2634 <main+0xd52>
    2632:	3e c1       	rjmp	.+636    	; 0x28b0 <headD+0x21e>
c:\Users\LENOVO\Documents\Arduino\libraries\Adafruit_NeoPixel/Adafruit_NeoPixel.cpp:511
#endif // defined(PORTB/C/F)

      hi = PORTD | pinMask;
    2634:	92 b3       	in	r25, 0x12	; 18
    2636:	80 91 fd 02 	lds	r24, 0x02FD	; 0x8002fd <strip+0x15>
    263a:	98 2b       	or	r25, r24
    263c:	2f 96       	adiw	r28, 0x0f	; 15
    263e:	9f af       	std	Y+63, r25	; 0x3f
    2640:	2f 97       	sbiw	r28, 0x0f	; 15
c:\Users\LENOVO\Documents\Arduino\libraries\Adafruit_NeoPixel/Adafruit_NeoPixel.cpp:512
      lo = PORTD & ~pinMask;
    2642:	92 b3       	in	r25, 0x12	; 18
    2644:	80 95       	com	r24
    2646:	89 23       	and	r24, r25
    2648:	2e 96       	adiw	r28, 0x0e	; 14
    264a:	8f af       	std	Y+63, r24	; 0x3f
    264c:	2e 97       	sbiw	r28, 0x0e	; 14
c:\Users\LENOVO\Documents\Arduino\libraries\Adafruit_NeoPixel/Adafruit_NeoPixel.cpp:513
      n1 = lo;
    264e:	2e 96       	adiw	r28, 0x0e	; 14
    2650:	8f ad       	ldd	r24, Y+63	; 0x3f
    2652:	2e 97       	sbiw	r28, 0x0e	; 14
    2654:	2b 96       	adiw	r28, 0x0b	; 11
    2656:	8f af       	std	Y+63, r24	; 0x3f
    2658:	2b 97       	sbiw	r28, 0x0b	; 11
c:\Users\LENOVO\Documents\Arduino\libraries\Adafruit_NeoPixel/Adafruit_NeoPixel.cpp:514
      if (b & 0x80)
    265a:	60 96       	adiw	r28, 0x10	; 16
    265c:	8f ad       	ldd	r24, Y+63	; 0x3f
    265e:	60 97       	sbiw	r28, 0x10	; 16
    2660:	87 ff       	sbrs	r24, 7
    2662:	06 c0       	rjmp	.+12     	; 0x2670 <main+0xd8e>
c:\Users\LENOVO\Documents\Arduino\libraries\Adafruit_NeoPixel/Adafruit_NeoPixel.cpp:515
        n1 = hi;
    2664:	2f 96       	adiw	r28, 0x0f	; 15
    2666:	8f ad       	ldd	r24, Y+63	; 0x3f
    2668:	2f 97       	sbiw	r28, 0x0f	; 15
    266a:	2b 96       	adiw	r28, 0x0b	; 11
    266c:	8f af       	std	Y+63, r24	; 0x3f
    266e:	2b 97       	sbiw	r28, 0x0b	; 11
c:\Users\LENOVO\Documents\Arduino\libraries\Adafruit_NeoPixel/Adafruit_NeoPixel.cpp:664
          "\n\t" // 1    PORT = lo
          "brne headD"
          "\n" // 2    while(i) (Z flag set above)
          : [byte] "+r"(b), [n1] "+r"(n1), [n2] "+r"(n2), [count] "+w"(i)
          : [port] "I"(_SFR_IO_ADDR(PORTD)), [ptr] "e"(ptr), [hi] "r"(hi),
            [lo] "r"(lo));
    2670:	2f 96       	adiw	r28, 0x0f	; 15
    2672:	5f ad       	ldd	r21, Y+63	; 0x3f
    2674:	2f 97       	sbiw	r28, 0x0f	; 15
    2676:	2e 96       	adiw	r28, 0x0e	; 14
    2678:	6f ad       	ldd	r22, Y+63	; 0x3f
    267a:	2e 97       	sbiw	r28, 0x0e	; 14
    267c:	60 96       	adiw	r28, 0x10	; 16
    267e:	4f ad       	ldd	r20, Y+63	; 0x3f
    2680:	60 97       	sbiw	r28, 0x10	; 16
    2682:	2b 96       	adiw	r28, 0x0b	; 11
    2684:	3f ad       	ldd	r19, Y+63	; 0x3f
    2686:	2b 97       	sbiw	r28, 0x0b	; 11
    2688:	2a 96       	adiw	r28, 0x0a	; 10
    268a:	2f ad       	ldd	r18, Y+63	; 0x3f
    268c:	2a 97       	sbiw	r28, 0x0a	; 10
    268e:	8d a9       	ldd	r24, Y+53	; 0x35
    2690:	9e a9       	ldd	r25, Y+54	; 0x36

00002692 <headD>:
    2692:	52 bb       	out	0x12, r21	; 18
    2694:	26 2f       	mov	r18, r22
    2696:	32 bb       	out	0x12, r19	; 18
    2698:	00 c0       	rjmp	.+0      	; 0x269a <headD+0x8>
    269a:	46 fd       	sbrc	r20, 6
    269c:	25 2f       	mov	r18, r21
    269e:	62 bb       	out	0x12, r22	; 18
    26a0:	00 c0       	rjmp	.+0      	; 0x26a2 <headD+0x10>
    26a2:	52 bb       	out	0x12, r21	; 18
    26a4:	36 2f       	mov	r19, r22
    26a6:	22 bb       	out	0x12, r18	; 18
    26a8:	00 c0       	rjmp	.+0      	; 0x26aa <headD+0x18>
    26aa:	45 fd       	sbrc	r20, 5
    26ac:	35 2f       	mov	r19, r21
    26ae:	62 bb       	out	0x12, r22	; 18
    26b0:	00 c0       	rjmp	.+0      	; 0x26b2 <headD+0x20>
    26b2:	52 bb       	out	0x12, r21	; 18
    26b4:	26 2f       	mov	r18, r22
    26b6:	32 bb       	out	0x12, r19	; 18
    26b8:	00 c0       	rjmp	.+0      	; 0x26ba <headD+0x28>
    26ba:	44 fd       	sbrc	r20, 4
    26bc:	25 2f       	mov	r18, r21
    26be:	62 bb       	out	0x12, r22	; 18
    26c0:	00 c0       	rjmp	.+0      	; 0x26c2 <headD+0x30>
    26c2:	52 bb       	out	0x12, r21	; 18
    26c4:	36 2f       	mov	r19, r22
    26c6:	22 bb       	out	0x12, r18	; 18
    26c8:	00 c0       	rjmp	.+0      	; 0x26ca <headD+0x38>
    26ca:	43 fd       	sbrc	r20, 3
    26cc:	35 2f       	mov	r19, r21
    26ce:	62 bb       	out	0x12, r22	; 18
    26d0:	00 c0       	rjmp	.+0      	; 0x26d2 <headD+0x40>
    26d2:	52 bb       	out	0x12, r21	; 18
    26d4:	26 2f       	mov	r18, r22
    26d6:	32 bb       	out	0x12, r19	; 18
    26d8:	00 c0       	rjmp	.+0      	; 0x26da <headD+0x48>
    26da:	42 fd       	sbrc	r20, 2
    26dc:	25 2f       	mov	r18, r21
    26de:	62 bb       	out	0x12, r22	; 18
    26e0:	00 c0       	rjmp	.+0      	; 0x26e2 <headD+0x50>
    26e2:	52 bb       	out	0x12, r21	; 18
    26e4:	36 2f       	mov	r19, r22
    26e6:	22 bb       	out	0x12, r18	; 18
    26e8:	00 c0       	rjmp	.+0      	; 0x26ea <headD+0x58>
    26ea:	41 fd       	sbrc	r20, 1
    26ec:	35 2f       	mov	r19, r21
    26ee:	62 bb       	out	0x12, r22	; 18
    26f0:	00 c0       	rjmp	.+0      	; 0x26f2 <headD+0x60>
    26f2:	52 bb       	out	0x12, r21	; 18
    26f4:	26 2f       	mov	r18, r22
    26f6:	32 bb       	out	0x12, r19	; 18
    26f8:	00 c0       	rjmp	.+0      	; 0x26fa <headD+0x68>
    26fa:	40 fd       	sbrc	r20, 0
    26fc:	25 2f       	mov	r18, r21
    26fe:	62 bb       	out	0x12, r22	; 18
    2700:	01 97       	sbiw	r24, 0x01	; 1
    2702:	52 bb       	out	0x12, r21	; 18
    2704:	36 2f       	mov	r19, r22
    2706:	22 bb       	out	0x12, r18	; 18
    2708:	4d 91       	ld	r20, X+
    270a:	47 fd       	sbrc	r20, 7
    270c:	35 2f       	mov	r19, r21
    270e:	62 bb       	out	0x12, r22	; 18
    2710:	01 f6       	brne	.-128    	; 0x2692 <headD>
c:\Users\LENOVO\Documents\Arduino\libraries\Adafruit_NeoPixel/Adafruit_NeoPixel.cpp:975
          "\n\t"
          "brne headC"
          "\n"
          : [byte] "+r"(b), [n1] "+r"(n1), [n2] "+r"(n2), [count] "+w"(i)
          : [port] "I"(_SFR_IO_ADDR(PORTC)), [ptr] "e"(ptr), [hi] "r"(hi),
            [lo] "r"(lo));
    2712:	60 96       	adiw	r28, 0x10	; 16
    2714:	4f af       	std	Y+63, r20	; 0x3f
    2716:	60 97       	sbiw	r28, 0x10	; 16
    2718:	2b 96       	adiw	r28, 0x0b	; 11
    271a:	3f af       	std	Y+63, r19	; 0x3f
    271c:	2b 97       	sbiw	r28, 0x0b	; 11
    271e:	2a 96       	adiw	r28, 0x0a	; 10
    2720:	2f af       	std	Y+63, r18	; 0x3f
    2722:	2a 97       	sbiw	r28, 0x0a	; 10
c:\Users\LENOVO\Documents\Arduino\libraries\Adafruit_NeoPixel/Adafruit_NeoPixel.cpp:1202
                 "\n\t" // 2    i--           (T = 18)
                 "brne head20%="
                 "\n" // 2    if(i != 0) -> (next byte)
                 : [port] "+e"(port), [byte] "+r"(b), [bit] "+r"(bit),
                   [next] "+r"(next), [count] "+w"(i)
                 : [hi] "r"(hi), [lo] "r"(lo), [ptr] "e"(ptr));
    2724:	9e ab       	std	Y+54, r25	; 0x36
    2726:	8d ab       	std	Y+53, r24	; 0x35
c:\Users\LENOVO\Documents\Arduino\libraries\Adafruit_NeoPixel/Adafruit_NeoPixel.cpp:3336
#endif

  // END ARCHITECTURE SELECT ------------------------------------------------

#if !(defined(NRF52) || defined(NRF52_SERIES) || defined(ESP32))
  interrupts();
    2728:	78 94       	sei
c:\Users\LENOVO\Documents\Arduino\libraries\Adafruit_NeoPixel/Adafruit_NeoPixel.cpp:3339
#endif

  endTime = micros(); // Save EOD time for latch on next call
    272a:	0e 94 f4 03 	call	0x7e8	; 0x7e8 <micros>
    272e:	60 93 f7 02 	sts	0x02F7, r22	; 0x8002f7 <strip+0xf>
    2732:	70 93 f8 02 	sts	0x02F8, r23	; 0x8002f8 <strip+0x10>
    2736:	80 93 f9 02 	sts	0x02F9, r24	; 0x8002f9 <strip+0x11>
    273a:	90 93 fa 02 	sts	0x02FA, r25	; 0x8002fa <strip+0x12>
cek_alarm_dan_sholat():
D:\KULIAH SEMESTER 4\LAB PROYEKSI ELEKTRONIKA\smart-drawer\firmware\atmega16\JAM DIGITAL\sketch_mar27a/sketch_mar27a.ino:294
    }
  }
}

void cek_alarm_dan_sholat() {
  if (menu_pos != 0 || menu_aktif != 0) return;
    273e:	80 91 ef 01 	lds	r24, 0x01EF	; 0x8001ef <menu_pos>
    2742:	81 11       	cpse	r24, r1
    2744:	f7 c1       	rjmp	.+1006   	; 0x2b34 <nextbyte206788+0x4c>
    2746:	80 91 ee 01 	lds	r24, 0x01EE	; 0x8001ee <menu_aktif>
    274a:	81 11       	cpse	r24, r1
    274c:	f3 c1       	rjmp	.+998    	; 0x2b34 <nextbyte206788+0x4c>
    274e:	90 91 00 02 	lds	r25, 0x0200	; 0x800200 <jam>
    2752:	80 91 ff 01 	lds	r24, 0x01FF	; 0x8001ff <menit>
    2756:	20 91 fe 01 	lds	r18, 0x01FE	; 0x8001fe <detik>
    275a:	30 91 64 00 	lds	r19, 0x0064	; 0x800064 <last_event_min>
D:\KULIAH SEMESTER 4\LAB PROYEKSI ELEKTRONIKA\smart-drawer\firmware\atmega16\JAM DIGITAL\sketch_mar27a/sketch_mar27a.ino:297

  // alarm biasa
  if (alm_on && jam == alm_h && menit == alm_m && detik == 0 && last_event_min != menit) {
    275e:	40 91 f4 01 	lds	r20, 0x01F4	; 0x8001f4 <alm_on>
    2762:	44 23       	and	r20, r20
    2764:	09 f4       	brne	.+2      	; 0x2768 <headD+0xd6>
    2766:	be c2       	rjmp	.+1404   	; 0x2ce4 <nextbyte206788+0x1fc>
    2768:	40 91 f8 01 	lds	r20, 0x01F8	; 0x8001f8 <alm_h>
    276c:	49 13       	cpse	r20, r25
    276e:	ba c2       	rjmp	.+1396   	; 0x2ce4 <nextbyte206788+0x1fc>
    2770:	40 91 f7 01 	lds	r20, 0x01F7	; 0x8001f7 <alm_m>
    2774:	48 13       	cpse	r20, r24
    2776:	b6 c2       	rjmp	.+1388   	; 0x2ce4 <nextbyte206788+0x1fc>
    2778:	21 11       	cpse	r18, r1
    277a:	b4 c2       	rjmp	.+1384   	; 0x2ce4 <nextbyte206788+0x1fc>
    277c:	43 17       	cp	r20, r19
    277e:	09 f4       	brne	.+2      	; 0x2782 <headD+0xf0>
    2780:	b1 c2       	rjmp	.+1378   	; 0x2ce4 <nextbyte206788+0x1fc>
D:\KULIAH SEMESTER 4\LAB PROYEKSI ELEKTRONIKA\smart-drawer\firmware\atmega16\JAM DIGITAL\sketch_mar27a/sketch_mar27a.ino:298
    lcd.clear();
    2782:	0e 94 f5 06 	call	0xdea	; 0xdea <LiquidCrystal_I2C::clear() [clone .constprop.46]>
D:\KULIAH SEMESTER 4\LAB PROYEKSI ELEKTRONIKA\smart-drawer\firmware\atmega16\JAM DIGITAL\sketch_mar27a/sketch_mar27a.ino:299
    lcd.setCursor(2, 0);
    2786:	60 e0       	ldi	r22, 0x00	; 0
    2788:	82 e0       	ldi	r24, 0x02	; 2
    278a:	0e 94 c2 06 	call	0xd84	; 0xd84 <LiquidCrystal_I2C::setCursor(unsigned char, unsigned char) [clone .constprop.47]>
D:\KULIAH SEMESTER 4\LAB PROYEKSI ELEKTRONIKA\smart-drawer\firmware\atmega16\JAM DIGITAL\sketch_mar27a/sketch_mar27a.ino:300
    lcd.print(F("ALARM AKTIF"));
    278e:	60 e4       	ldi	r22, 0x40	; 64
    2790:	73 e0       	ldi	r23, 0x03	; 3
    2792:	8e ef       	ldi	r24, 0xFE	; 254
    2794:	92 e0       	ldi	r25, 0x02	; 2
    2796:	0e 94 53 04 	call	0x8a6	; 0x8a6 <Print::print(__FlashStringHelper const*)>
D:\KULIAH SEMESTER 4\LAB PROYEKSI ELEKTRONIKA\smart-drawer\firmware\atmega16\JAM DIGITAL\sketch_mar27a/sketch_mar27a.ino:301
    lcd.setCursor(3, 1);
    279a:	61 e0       	ldi	r22, 0x01	; 1
    279c:	83 e0       	ldi	r24, 0x03	; 3
    279e:	0e 94 c2 06 	call	0xd84	; 0xd84 <LiquidCrystal_I2C::setCursor(unsigned char, unsigned char) [clone .constprop.47]>
D:\KULIAH SEMESTER 4\LAB PROYEKSI ELEKTRONIKA\smart-drawer\firmware\atmega16\JAM DIGITAL\sketch_mar27a/sketch_mar27a.ino:302
    lcd.print(F("TANGI SUU!"));
    27a2:	65 e3       	ldi	r22, 0x35	; 53
    27a4:	73 e0       	ldi	r23, 0x03	; 3
    27a6:	8e ef       	ldi	r24, 0xFE	; 254
    27a8:	92 e0       	ldi	r25, 0x02	; 2
    27aa:	0e 94 53 04 	call	0x8a6	; 0x8a6 <Print::print(__FlashStringHelper const*)>
bunyi_alarm_event():
D:\KULIAH SEMESTER 4\LAB PROYEKSI ELEKTRONIKA\smart-drawer\firmware\atmega16\JAM DIGITAL\sketch_mar27a/sketch_mar27a.ino:502
    delay(60);
  }
}
void bunyi_alarm_event() {
  // bunyi terus sampai salah satu tombol ditekan
  while (digitalRead(BTN_SET) == HIGH &&
    27ae:	80 e0       	ldi	r24, 0x00	; 0
    27b0:	0e 94 2c 03 	call	0x658	; 0x658 <digitalRead>
D:\KULIAH SEMESTER 4\LAB PROYEKSI ELEKTRONIKA\smart-drawer\firmware\atmega16\JAM DIGITAL\sketch_mar27a/sketch_mar27a.ino:503
         digitalRead(BTN_UP) == HIGH &&
    27b4:	01 97       	sbiw	r24, 0x01	; 1
    27b6:	09 f0       	breq	.+2      	; 0x27ba <headD+0x128>
    27b8:	ab c1       	rjmp	.+854    	; 0x2b10 <nextbyte206788+0x28>
    27ba:	81 e0       	ldi	r24, 0x01	; 1
    27bc:	0e 94 2c 03 	call	0x658	; 0x658 <digitalRead>
D:\KULIAH SEMESTER 4\LAB PROYEKSI ELEKTRONIKA\smart-drawer\firmware\atmega16\JAM DIGITAL\sketch_mar27a/sketch_mar27a.ino:502
    delay(60);
  }
}
void bunyi_alarm_event() {
  // bunyi terus sampai salah satu tombol ditekan
  while (digitalRead(BTN_SET) == HIGH &&
    27c0:	01 97       	sbiw	r24, 0x01	; 1
    27c2:	09 f0       	breq	.+2      	; 0x27c6 <headD+0x134>
    27c4:	a5 c1       	rjmp	.+842    	; 0x2b10 <nextbyte206788+0x28>
D:\KULIAH SEMESTER 4\LAB PROYEKSI ELEKTRONIKA\smart-drawer\firmware\atmega16\JAM DIGITAL\sketch_mar27a/sketch_mar27a.ino:504
         digitalRead(BTN_UP) == HIGH &&
         digitalRead(BTN_DOWN) == HIGH) {
    27c6:	82 e0       	ldi	r24, 0x02	; 2
    27c8:	0e 94 2c 03 	call	0x658	; 0x658 <digitalRead>
D:\KULIAH SEMESTER 4\LAB PROYEKSI ELEKTRONIKA\smart-drawer\firmware\atmega16\JAM DIGITAL\sketch_mar27a/sketch_mar27a.ino:503
  }
}
void bunyi_alarm_event() {
  // bunyi terus sampai salah satu tombol ditekan
  while (digitalRead(BTN_SET) == HIGH &&
         digitalRead(BTN_UP) == HIGH &&
    27cc:	01 97       	sbiw	r24, 0x01	; 1
    27ce:	09 f0       	breq	.+2      	; 0x27d2 <headD+0x140>
    27d0:	9f c1       	rjmp	.+830    	; 0x2b10 <nextbyte206788+0x28>
D:\KULIAH SEMESTER 4\LAB PROYEKSI ELEKTRONIKA\smart-drawer\firmware\atmega16\JAM DIGITAL\sketch_mar27a/sketch_mar27a.ino:506
         digitalRead(BTN_DOWN) == HIGH) {

    if (nada_alarm == 1) {
    27d2:	80 91 f5 01 	lds	r24, 0x01F5	; 0x8001f5 <nada_alarm>
    27d6:	81 30       	cpi	r24, 0x01	; 1
    27d8:	09 f0       	breq	.+2      	; 0x27dc <headD+0x14a>
    27da:	2f c2       	rjmp	.+1118   	; 0x2c3a <nextbyte206788+0x152>
D:\KULIAH SEMESTER 4\LAB PROYEKSI ELEKTRONIKA\smart-drawer\firmware\atmega16\JAM DIGITAL\sketch_mar27a/sketch_mar27a.ino:507
      digitalWrite(BUZZER, HIGH); delay(120);
    27dc:	61 e0       	ldi	r22, 0x01	; 1
    27de:	8e e0       	ldi	r24, 0x0E	; 14
    27e0:	0e 94 55 03 	call	0x6aa	; 0x6aa <digitalWrite>
    27e4:	68 e7       	ldi	r22, 0x78	; 120
    27e6:	70 e0       	ldi	r23, 0x00	; 0
    27e8:	80 e0       	ldi	r24, 0x00	; 0
    27ea:	90 e0       	ldi	r25, 0x00	; 0
D:\KULIAH SEMESTER 4\LAB PROYEKSI ELEKTRONIKA\smart-drawer\firmware\atmega16\JAM DIGITAL\sketch_mar27a/sketch_mar27a.ino:515
    else if (nada_alarm == 2) {
      digitalWrite(BUZZER, HIGH); delay(60);
      digitalWrite(BUZZER, LOW);  delay(60);
    }
    else if (nada_alarm == 3) {
      digitalWrite(BUZZER, HIGH); delay(300);
    27ec:	0e 94 1a 04 	call	0x834	; 0x834 <delay>
D:\KULIAH SEMESTER 4\LAB PROYEKSI ELEKTRONIKA\smart-drawer\firmware\atmega16\JAM DIGITAL\sketch_mar27a/sketch_mar27a.ino:516
      digitalWrite(BUZZER, LOW);  delay(120);
    27f0:	60 e0       	ldi	r22, 0x00	; 0
    27f2:	8e e0       	ldi	r24, 0x0E	; 14
    27f4:	0e 94 55 03 	call	0x6aa	; 0x6aa <digitalWrite>
    27f8:	68 e7       	ldi	r22, 0x78	; 120
    27fa:	70 e0       	ldi	r23, 0x00	; 0
    27fc:	80 e0       	ldi	r24, 0x00	; 0
    27fe:	90 e0       	ldi	r25, 0x00	; 0
    2800:	30 c2       	rjmp	.+1120   	; 0x2c62 <nextbyte206788+0x17a>
refresh_lampu():
D:\KULIAH SEMESTER 4\LAB PROYEKSI ELEKTRONIKA\smart-drawer\firmware\atmega16\JAM DIGITAL\sketch_mar27a/sketch_mar27a.ino:446
    for (int i = 0; i < strip.numPixels(); i++) {
      strip.setPixelColor(i, Wheel(((i * 256 / strip.numPixels()) + j) & 255));
    }
    j++;
  }
  else if (mode_lampu == 6) {
    2802:	86 30       	cpi	r24, 0x06	; 6
    2804:	71 f5       	brne	.+92     	; 0x2862 <headD+0x1d0>
D:\KULIAH SEMESTER 4\LAB PROYEKSI ELEKTRONIKA\smart-drawer\firmware\atmega16\JAM DIGITAL\sketch_mar27a/sketch_mar27a.ino:447
    strip.fill(strip.Color(0, b_val, b_val / 2));
    2806:	00 91 62 00 	lds	r16, 0x0062	; 0x800062 <refresh_lampu()::b_val>
    280a:	10 91 63 00 	lds	r17, 0x0063	; 0x800063 <refresh_lampu()::b_val+0x1>
_ZN17Adafruit_NeoPixel5ColorEhhh():
c:\Users\LENOVO\Documents\Arduino\libraries\Adafruit_NeoPixel/Adafruit_NeoPixel.h:342
             variable for later use or passed to the setPixelColor()
             function. Packed RGB format is predictable, regardless of
             LED strand color order.
  */
  static uint32_t Color(uint8_t r, uint8_t g, uint8_t b) {
    return ((uint32_t)r << 16) | ((uint32_t)g << 8) | b;
    280e:	60 2f       	mov	r22, r16
    2810:	70 e0       	ldi	r23, 0x00	; 0
    2812:	90 e0       	ldi	r25, 0x00	; 0
    2814:	80 e0       	ldi	r24, 0x00	; 0
    2816:	98 2f       	mov	r25, r24
    2818:	87 2f       	mov	r24, r23
    281a:	76 2f       	mov	r23, r22
    281c:	66 27       	eor	r22, r22
refresh_lampu():
D:\KULIAH SEMESTER 4\LAB PROYEKSI ELEKTRONIKA\smart-drawer\firmware\atmega16\JAM DIGITAL\sketch_mar27a/sketch_mar27a.ino:447
    281e:	98 01       	movw	r18, r16
    2820:	17 ff       	sbrs	r17, 7
    2822:	02 c0       	rjmp	.+4      	; 0x2828 <headD+0x196>
    2824:	2f 5f       	subi	r18, 0xFF	; 255
    2826:	3f 4f       	sbci	r19, 0xFF	; 255
    2828:	35 95       	asr	r19
    282a:	27 95       	ror	r18
_ZN17Adafruit_NeoPixel5ColorEhhh():
c:\Users\LENOVO\Documents\Arduino\libraries\Adafruit_NeoPixel/Adafruit_NeoPixel.h:342
    282c:	62 2b       	or	r22, r18
refresh_lampu():
D:\KULIAH SEMESTER 4\LAB PROYEKSI ELEKTRONIKA\smart-drawer\firmware\atmega16\JAM DIGITAL\sketch_mar27a/sketch_mar27a.ino:447
    282e:	0e 94 e2 02 	call	0x5c4	; 0x5c4 <Adafruit_NeoPixel::fill(unsigned long, unsigned int, unsigned int) [clone .constprop.39]>
D:\KULIAH SEMESTER 4\LAB PROYEKSI ELEKTRONIKA\smart-drawer\firmware\atmega16\JAM DIGITAL\sketch_mar27a/sketch_mar27a.ino:448
    b_val += b_dir;
    2832:	20 91 60 00 	lds	r18, 0x0060	; 0x800060 <__DATA_REGION_ORIGIN__>
    2836:	30 91 61 00 	lds	r19, 0x0061	; 0x800061 <__DATA_REGION_ORIGIN__+0x1>
    283a:	c8 01       	movw	r24, r16
    283c:	82 0f       	add	r24, r18
    283e:	93 1f       	adc	r25, r19
    2840:	90 93 63 00 	sts	0x0063, r25	; 0x800063 <refresh_lampu()::b_val+0x1>
    2844:	80 93 62 00 	sts	0x0062, r24	; 0x800062 <refresh_lampu()::b_val>
D:\KULIAH SEMESTER 4\LAB PROYEKSI ELEKTRONIKA\smart-drawer\firmware\atmega16\JAM DIGITAL\sketch_mar27a/sketch_mar27a.ino:449
    if (b_val >= 200 || b_val <= 10) b_dir *= -1;
    2848:	0b 97       	sbiw	r24, 0x0b	; 11
    284a:	8d 3b       	cpi	r24, 0xBD	; 189
    284c:	91 05       	cpc	r25, r1
    284e:	08 f4       	brcc	.+2      	; 0x2852 <headD+0x1c0>
    2850:	a1 ce       	rjmp	.-702    	; 0x2594 <main+0xcb2>
    2852:	31 95       	neg	r19
    2854:	21 95       	neg	r18
    2856:	31 09       	sbc	r19, r1
    2858:	30 93 61 00 	sts	0x0061, r19	; 0x800061 <__DATA_REGION_ORIGIN__+0x1>
    285c:	20 93 60 00 	sts	0x0060, r18	; 0x800060 <__DATA_REGION_ORIGIN__>
    2860:	99 ce       	rjmp	.-718    	; 0x2594 <main+0xcb2>
D:\KULIAH SEMESTER 4\LAB PROYEKSI ELEKTRONIKA\smart-drawer\firmware\atmega16\JAM DIGITAL\sketch_mar27a/sketch_mar27a.ino:451
  }
  else if (mode_lampu == 7) {
    2862:	87 30       	cpi	r24, 0x07	; 7
    2864:	29 f4       	brne	.+10     	; 0x2870 <headD+0x1de>
D:\KULIAH SEMESTER 4\LAB PROYEKSI ELEKTRONIKA\smart-drawer\firmware\atmega16\JAM DIGITAL\sketch_mar27a/sketch_mar27a.ino:452
    strip.fill(strip.Color(0, 200, 255)); // ICE BLUE
    2866:	6f ef       	ldi	r22, 0xFF	; 255
    2868:	78 ec       	ldi	r23, 0xC8	; 200
    286a:	80 e0       	ldi	r24, 0x00	; 0
    286c:	90 e0       	ldi	r25, 0x00	; 0
    286e:	08 cd       	rjmp	.-1520   	; 0x2280 <main+0x99e>
D:\KULIAH SEMESTER 4\LAB PROYEKSI ELEKTRONIKA\smart-drawer\firmware\atmega16\JAM DIGITAL\sketch_mar27a/sketch_mar27a.ino:454
  }
  else if (mode_lampu == 8) {
    2870:	88 30       	cpi	r24, 0x08	; 8
    2872:	29 f4       	brne	.+10     	; 0x287e <headD+0x1ec>
D:\KULIAH SEMESTER 4\LAB PROYEKSI ELEKTRONIKA\smart-drawer\firmware\atmega16\JAM DIGITAL\sketch_mar27a/sketch_mar27a.ino:455
    strip.fill(strip.Color(120, 255, 255)); // CYAN
    2874:	6f ef       	ldi	r22, 0xFF	; 255
    2876:	7f ef       	ldi	r23, 0xFF	; 255
    2878:	88 e7       	ldi	r24, 0x78	; 120
    287a:	90 e0       	ldi	r25, 0x00	; 0
    287c:	01 cd       	rjmp	.-1534   	; 0x2280 <main+0x99e>
D:\KULIAH SEMESTER 4\LAB PROYEKSI ELEKTRONIKA\smart-drawer\firmware\atmega16\JAM DIGITAL\sketch_mar27a/sketch_mar27a.ino:457
  }
  else if (mode_lampu == 9) {
    287e:	89 30       	cpi	r24, 0x09	; 9
    2880:	29 f4       	brne	.+10     	; 0x288c <headD+0x1fa>
D:\KULIAH SEMESTER 4\LAB PROYEKSI ELEKTRONIKA\smart-drawer\firmware\atmega16\JAM DIGITAL\sketch_mar27a/sketch_mar27a.ino:458
    strip.fill(strip.Color(0, 255, 80)); // HIJAU
    2882:	60 e5       	ldi	r22, 0x50	; 80
    2884:	7f ef       	ldi	r23, 0xFF	; 255
    2886:	80 e0       	ldi	r24, 0x00	; 0
    2888:	90 e0       	ldi	r25, 0x00	; 0
    288a:	fa cc       	rjmp	.-1548   	; 0x2280 <main+0x99e>
D:\KULIAH SEMESTER 4\LAB PROYEKSI ELEKTRONIKA\smart-drawer\firmware\atmega16\JAM DIGITAL\sketch_mar27a/sketch_mar27a.ino:460
  }
  else if (mode_lampu == 10) {
    288c:	8a 30       	cpi	r24, 0x0A	; 10
    288e:	29 f4       	brne	.+10     	; 0x289a <headD+0x208>
D:\KULIAH SEMESTER 4\LAB PROYEKSI ELEKTRONIKA\smart-drawer\firmware\atmega16\JAM DIGITAL\sketch_mar27a/sketch_mar27a.ino:461
    strip.fill(strip.Color(180, 80, 255)); // UNGU
    2890:	6f ef       	ldi	r22, 0xFF	; 255
    2892:	70 e5       	ldi	r23, 0x50	; 80
    2894:	84 eb       	ldi	r24, 0xB4	; 180
    2896:	90 e0       	ldi	r25, 0x00	; 0
    2898:	f3 cc       	rjmp	.-1562   	; 0x2280 <main+0x99e>
D:\KULIAH SEMESTER 4\LAB PROYEKSI ELEKTRONIKA\smart-drawer\firmware\atmega16\JAM DIGITAL\sketch_mar27a/sketch_mar27a.ino:463
  }
  else if (mode_lampu == 11) {
    289a:	8b 30       	cpi	r24, 0x0B	; 11
    289c:	29 f4       	brne	.+10     	; 0x28a8 <headD+0x216>
D:\KULIAH SEMESTER 4\LAB PROYEKSI ELEKTRONIKA\smart-drawer\firmware\atmega16\JAM DIGITAL\sketch_mar27a/sketch_mar27a.ino:464
    strip.fill(strip.Color(255, 220, 160)); // WARM ROOM
    289e:	60 ea       	ldi	r22, 0xA0	; 160
    28a0:	7c ed       	ldi	r23, 0xDC	; 220
    28a2:	8f ef       	ldi	r24, 0xFF	; 255
    28a4:	90 e0       	ldi	r25, 0x00	; 0
    28a6:	ec cc       	rjmp	.-1576   	; 0x2280 <main+0x99e>
D:\KULIAH SEMESTER 4\LAB PROYEKSI ELEKTRONIKA\smart-drawer\firmware\atmega16\JAM DIGITAL\sketch_mar27a/sketch_mar27a.ino:467
  }
  else {
    strip.fill(0);
    28a8:	60 e0       	ldi	r22, 0x00	; 0
    28aa:	70 e0       	ldi	r23, 0x00	; 0
    28ac:	cb 01       	movw	r24, r22
    28ae:	e8 cc       	rjmp	.-1584   	; 0x2280 <main+0x99e>
show():
c:\Users\LENOVO\Documents\Arduino\libraries\Adafruit_NeoPixel/Adafruit_NeoPixel.cpp:675

    // PORTB OUTPUT ----------------------------------------------------

#if defined(PORTB)
#if defined(PORTD) || defined(PORTC) || defined(PORTF)
        if (port == &PORTB) {
    28b0:	e8 33       	cpi	r30, 0x38	; 56
    28b2:	f1 05       	cpc	r31, r1
    28b4:	09 f0       	breq	.+2      	; 0x28b8 <headD+0x226>
    28b6:	70 c0       	rjmp	.+224    	; 0x2998 <headB+0x82>
c:\Users\LENOVO\Documents\Arduino\libraries\Adafruit_NeoPixel/Adafruit_NeoPixel.cpp:679
#endif // defined(PORTD/C/F)

      // Same as above, just switched to PORTB and stripped of comments.
      hi = PORTB | pinMask;
    28b8:	98 b3       	in	r25, 0x18	; 24
    28ba:	80 91 fd 02 	lds	r24, 0x02FD	; 0x8002fd <strip+0x15>
    28be:	98 2b       	or	r25, r24
    28c0:	2f 96       	adiw	r28, 0x0f	; 15
    28c2:	9f af       	std	Y+63, r25	; 0x3f
    28c4:	2f 97       	sbiw	r28, 0x0f	; 15
c:\Users\LENOVO\Documents\Arduino\libraries\Adafruit_NeoPixel/Adafruit_NeoPixel.cpp:680
      lo = PORTB & ~pinMask;
    28c6:	98 b3       	in	r25, 0x18	; 24
    28c8:	80 95       	com	r24
    28ca:	89 23       	and	r24, r25
    28cc:	2e 96       	adiw	r28, 0x0e	; 14
    28ce:	8f af       	std	Y+63, r24	; 0x3f
    28d0:	2e 97       	sbiw	r28, 0x0e	; 14
c:\Users\LENOVO\Documents\Arduino\libraries\Adafruit_NeoPixel/Adafruit_NeoPixel.cpp:681
      n1 = lo;
    28d2:	2e 96       	adiw	r28, 0x0e	; 14
    28d4:	8f ad       	ldd	r24, Y+63	; 0x3f
    28d6:	2e 97       	sbiw	r28, 0x0e	; 14
    28d8:	2b 96       	adiw	r28, 0x0b	; 11
    28da:	8f af       	std	Y+63, r24	; 0x3f
    28dc:	2b 97       	sbiw	r28, 0x0b	; 11
c:\Users\LENOVO\Documents\Arduino\libraries\Adafruit_NeoPixel/Adafruit_NeoPixel.cpp:682
      if (b & 0x80)
    28de:	60 96       	adiw	r28, 0x10	; 16
    28e0:	8f ad       	ldd	r24, Y+63	; 0x3f
    28e2:	60 97       	sbiw	r28, 0x10	; 16
    28e4:	87 ff       	sbrs	r24, 7
    28e6:	06 c0       	rjmp	.+12     	; 0x28f4 <headD+0x262>
c:\Users\LENOVO\Documents\Arduino\libraries\Adafruit_NeoPixel/Adafruit_NeoPixel.cpp:683
        n1 = hi;
    28e8:	2f 96       	adiw	r28, 0x0f	; 15
    28ea:	8f ad       	ldd	r24, Y+63	; 0x3f
    28ec:	2f 97       	sbiw	r28, 0x0f	; 15
    28ee:	2b 96       	adiw	r28, 0x0b	; 11
    28f0:	8f af       	std	Y+63, r24	; 0x3f
    28f2:	2b 97       	sbiw	r28, 0x0b	; 11
c:\Users\LENOVO\Documents\Arduino\libraries\Adafruit_NeoPixel/Adafruit_NeoPixel.cpp:818
          "\n\t"
          "brne headB"
          "\n"
          : [byte] "+r"(b), [n1] "+r"(n1), [n2] "+r"(n2), [count] "+w"(i)
          : [port] "I"(_SFR_IO_ADDR(PORTB)), [ptr] "e"(ptr), [hi] "r"(hi),
            [lo] "r"(lo));
    28f4:	2f 96       	adiw	r28, 0x0f	; 15
    28f6:	5f ad       	ldd	r21, Y+63	; 0x3f
    28f8:	2f 97       	sbiw	r28, 0x0f	; 15
    28fa:	2e 96       	adiw	r28, 0x0e	; 14
    28fc:	6f ad       	ldd	r22, Y+63	; 0x3f
    28fe:	2e 97       	sbiw	r28, 0x0e	; 14
    2900:	60 96       	adiw	r28, 0x10	; 16
    2902:	4f ad       	ldd	r20, Y+63	; 0x3f
    2904:	60 97       	sbiw	r28, 0x10	; 16
    2906:	2b 96       	adiw	r28, 0x0b	; 11
    2908:	3f ad       	ldd	r19, Y+63	; 0x3f
    290a:	2b 97       	sbiw	r28, 0x0b	; 11
    290c:	2a 96       	adiw	r28, 0x0a	; 10
    290e:	2f ad       	ldd	r18, Y+63	; 0x3f
    2910:	2a 97       	sbiw	r28, 0x0a	; 10
    2912:	8d a9       	ldd	r24, Y+53	; 0x35
    2914:	9e a9       	ldd	r25, Y+54	; 0x36

00002916 <headB>:
    2916:	58 bb       	out	0x18, r21	; 24
    2918:	26 2f       	mov	r18, r22
    291a:	38 bb       	out	0x18, r19	; 24
    291c:	00 c0       	rjmp	.+0      	; 0x291e <headB+0x8>
    291e:	46 fd       	sbrc	r20, 6
    2920:	25 2f       	mov	r18, r21
    2922:	68 bb       	out	0x18, r22	; 24
    2924:	00 c0       	rjmp	.+0      	; 0x2926 <headB+0x10>
    2926:	58 bb       	out	0x18, r21	; 24
    2928:	36 2f       	mov	r19, r22
    292a:	28 bb       	out	0x18, r18	; 24
    292c:	00 c0       	rjmp	.+0      	; 0x292e <headB+0x18>
    292e:	45 fd       	sbrc	r20, 5
    2930:	35 2f       	mov	r19, r21
    2932:	68 bb       	out	0x18, r22	; 24
    2934:	00 c0       	rjmp	.+0      	; 0x2936 <headB+0x20>
    2936:	58 bb       	out	0x18, r21	; 24
    2938:	26 2f       	mov	r18, r22
    293a:	38 bb       	out	0x18, r19	; 24
    293c:	00 c0       	rjmp	.+0      	; 0x293e <headB+0x28>
    293e:	44 fd       	sbrc	r20, 4
    2940:	25 2f       	mov	r18, r21
    2942:	68 bb       	out	0x18, r22	; 24
    2944:	00 c0       	rjmp	.+0      	; 0x2946 <headB+0x30>
    2946:	58 bb       	out	0x18, r21	; 24
    2948:	36 2f       	mov	r19, r22
    294a:	28 bb       	out	0x18, r18	; 24
    294c:	00 c0       	rjmp	.+0      	; 0x294e <headB+0x38>
    294e:	43 fd       	sbrc	r20, 3
    2950:	35 2f       	mov	r19, r21
    2952:	68 bb       	out	0x18, r22	; 24
    2954:	00 c0       	rjmp	.+0      	; 0x2956 <headB+0x40>
    2956:	58 bb       	out	0x18, r21	; 24
    2958:	26 2f       	mov	r18, r22
    295a:	38 bb       	out	0x18, r19	; 24
    295c:	00 c0       	rjmp	.+0      	; 0x295e <headB+0x48>
    295e:	42 fd       	sbrc	r20, 2
    2960:	25 2f       	mov	r18, r21
    2962:	68 bb       	out	0x18, r22	; 24
    2964:	00 c0       	rjmp	.+0      	; 0x2966 <headB+0x50>
    2966:	58 bb       	out	0x18, r21	; 24
    2968:	36 2f       	mov	r19, r22
    296a:	28 bb       	out	0x18, r18	; 24
    296c:	00 c0       	rjmp	.+0      	; 0x296e <headB+0x58>
    296e:	41 fd       	sbrc	r20, 1
    2970:	35 2f       	mov	r19, r21
    2972:	68 bb       	out	0x18, r22	; 24
    2974:	00 c0       	rjmp	.+0      	; 0x2976 <headB+0x60>
    2976:	58 bb       	out	0x18, r21	; 24
    2978:	26 2f       	mov	r18, r22
    297a:	38 bb       	out	0x18, r19	; 24
    297c:	00 c0       	rjmp	.+0      	; 0x297e <headB+0x68>
    297e:	40 fd       	sbrc	r20, 0
    2980:	25 2f       	mov	r18, r21
    2982:	68 bb       	out	0x18, r22	; 24
    2984:	01 97       	sbiw	r24, 0x01	; 1
    2986:	58 bb       	out	0x18, r21	; 24
    2988:	36 2f       	mov	r19, r22
    298a:	28 bb       	out	0x18, r18	; 24
    298c:	4d 91       	ld	r20, X+
    298e:	47 fd       	sbrc	r20, 7
    2990:	35 2f       	mov	r19, r21
    2992:	68 bb       	out	0x18, r22	; 24
    2994:	01 f6       	brne	.-128    	; 0x2916 <headB>
    2996:	bd ce       	rjmp	.-646    	; 0x2712 <headD+0x80>
c:\Users\LENOVO\Documents\Arduino\libraries\Adafruit_NeoPixel/Adafruit_NeoPixel.cpp:832

    // PORTC OUTPUT ----------------------------------------------------

#if defined(PORTC)
#if defined(PORTD) || defined(PORTB) || defined(PORTF)
        if (port == &PORTC) {
    2998:	f5 97       	sbiw	r30, 0x35	; 53
    299a:	09 f0       	breq	.+2      	; 0x299e <headB+0x88>
    299c:	c5 ce       	rjmp	.-630    	; 0x2728 <headD+0x96>
c:\Users\LENOVO\Documents\Arduino\libraries\Adafruit_NeoPixel/Adafruit_NeoPixel.cpp:836
#endif // defined(PORTD/B/F)

      // Same as above, just switched to PORTC and stripped of comments.
      hi = PORTC | pinMask;
    299e:	95 b3       	in	r25, 0x15	; 21
    29a0:	80 91 fd 02 	lds	r24, 0x02FD	; 0x8002fd <strip+0x15>
    29a4:	98 2b       	or	r25, r24
    29a6:	2f 96       	adiw	r28, 0x0f	; 15
    29a8:	9f af       	std	Y+63, r25	; 0x3f
    29aa:	2f 97       	sbiw	r28, 0x0f	; 15
c:\Users\LENOVO\Documents\Arduino\libraries\Adafruit_NeoPixel/Adafruit_NeoPixel.cpp:837
      lo = PORTC & ~pinMask;
    29ac:	95 b3       	in	r25, 0x15	; 21
    29ae:	80 95       	com	r24
    29b0:	89 23       	and	r24, r25
    29b2:	2e 96       	adiw	r28, 0x0e	; 14
    29b4:	8f af       	std	Y+63, r24	; 0x3f
    29b6:	2e 97       	sbiw	r28, 0x0e	; 14
c:\Users\LENOVO\Documents\Arduino\libraries\Adafruit_NeoPixel/Adafruit_NeoPixel.cpp:838
      n1 = lo;
    29b8:	2e 96       	adiw	r28, 0x0e	; 14
    29ba:	8f ad       	ldd	r24, Y+63	; 0x3f
    29bc:	2e 97       	sbiw	r28, 0x0e	; 14
    29be:	2b 96       	adiw	r28, 0x0b	; 11
    29c0:	8f af       	std	Y+63, r24	; 0x3f
    29c2:	2b 97       	sbiw	r28, 0x0b	; 11
c:\Users\LENOVO\Documents\Arduino\libraries\Adafruit_NeoPixel/Adafruit_NeoPixel.cpp:839
      if (b & 0x80)
    29c4:	60 96       	adiw	r28, 0x10	; 16
    29c6:	8f ad       	ldd	r24, Y+63	; 0x3f
    29c8:	60 97       	sbiw	r28, 0x10	; 16
    29ca:	87 ff       	sbrs	r24, 7
    29cc:	06 c0       	rjmp	.+12     	; 0x29da <headB+0xc4>
c:\Users\LENOVO\Documents\Arduino\libraries\Adafruit_NeoPixel/Adafruit_NeoPixel.cpp:840
        n1 = hi;
    29ce:	2f 96       	adiw	r28, 0x0f	; 15
    29d0:	8f ad       	ldd	r24, Y+63	; 0x3f
    29d2:	2f 97       	sbiw	r28, 0x0f	; 15
    29d4:	2b 96       	adiw	r28, 0x0b	; 11
    29d6:	8f af       	std	Y+63, r24	; 0x3f
    29d8:	2b 97       	sbiw	r28, 0x0b	; 11
c:\Users\LENOVO\Documents\Arduino\libraries\Adafruit_NeoPixel/Adafruit_NeoPixel.cpp:975
          "\n\t"
          "brne headC"
          "\n"
          : [byte] "+r"(b), [n1] "+r"(n1), [n2] "+r"(n2), [count] "+w"(i)
          : [port] "I"(_SFR_IO_ADDR(PORTC)), [ptr] "e"(ptr), [hi] "r"(hi),
            [lo] "r"(lo));
    29da:	2f 96       	adiw	r28, 0x0f	; 15
    29dc:	5f ad       	ldd	r21, Y+63	; 0x3f
    29de:	2f 97       	sbiw	r28, 0x0f	; 15
    29e0:	2e 96       	adiw	r28, 0x0e	; 14
    29e2:	6f ad       	ldd	r22, Y+63	; 0x3f
    29e4:	2e 97       	sbiw	r28, 0x0e	; 14
    29e6:	60 96       	adiw	r28, 0x10	; 16
    29e8:	4f ad       	ldd	r20, Y+63	; 0x3f
    29ea:	60 97       	sbiw	r28, 0x10	; 16
    29ec:	2b 96       	adiw	r28, 0x0b	; 11
    29ee:	3f ad       	ldd	r19, Y+63	; 0x3f
    29f0:	2b 97       	sbiw	r28, 0x0b	; 11
    29f2:	2a 96       	adiw	r28, 0x0a	; 10
    29f4:	2f ad       	ldd	r18, Y+63	; 0x3f
    29f6:	2a 97       	sbiw	r28, 0x0a	; 10
    29f8:	8d a9       	ldd	r24, Y+53	; 0x35
    29fa:	9e a9       	ldd	r25, Y+54	; 0x36

000029fc <headC>:
    29fc:	55 bb       	out	0x15, r21	; 21
    29fe:	26 2f       	mov	r18, r22
    2a00:	35 bb       	out	0x15, r19	; 21
    2a02:	00 c0       	rjmp	.+0      	; 0x2a04 <headC+0x8>
    2a04:	46 fd       	sbrc	r20, 6
    2a06:	25 2f       	mov	r18, r21
    2a08:	65 bb       	out	0x15, r22	; 21
    2a0a:	00 c0       	rjmp	.+0      	; 0x2a0c <headC+0x10>
    2a0c:	55 bb       	out	0x15, r21	; 21
    2a0e:	36 2f       	mov	r19, r22
    2a10:	25 bb       	out	0x15, r18	; 21
    2a12:	00 c0       	rjmp	.+0      	; 0x2a14 <headC+0x18>
    2a14:	45 fd       	sbrc	r20, 5
    2a16:	35 2f       	mov	r19, r21
    2a18:	65 bb       	out	0x15, r22	; 21
    2a1a:	00 c0       	rjmp	.+0      	; 0x2a1c <headC+0x20>
    2a1c:	55 bb       	out	0x15, r21	; 21
    2a1e:	26 2f       	mov	r18, r22
    2a20:	35 bb       	out	0x15, r19	; 21
    2a22:	00 c0       	rjmp	.+0      	; 0x2a24 <headC+0x28>
    2a24:	44 fd       	sbrc	r20, 4
    2a26:	25 2f       	mov	r18, r21
    2a28:	65 bb       	out	0x15, r22	; 21
    2a2a:	00 c0       	rjmp	.+0      	; 0x2a2c <headC+0x30>
    2a2c:	55 bb       	out	0x15, r21	; 21
    2a2e:	36 2f       	mov	r19, r22
    2a30:	25 bb       	out	0x15, r18	; 21
    2a32:	00 c0       	rjmp	.+0      	; 0x2a34 <headC+0x38>
    2a34:	43 fd       	sbrc	r20, 3
    2a36:	35 2f       	mov	r19, r21
    2a38:	65 bb       	out	0x15, r22	; 21
    2a3a:	00 c0       	rjmp	.+0      	; 0x2a3c <headC+0x40>
    2a3c:	55 bb       	out	0x15, r21	; 21
    2a3e:	26 2f       	mov	r18, r22
    2a40:	35 bb       	out	0x15, r19	; 21
    2a42:	00 c0       	rjmp	.+0      	; 0x2a44 <headC+0x48>
    2a44:	42 fd       	sbrc	r20, 2
    2a46:	25 2f       	mov	r18, r21
    2a48:	65 bb       	out	0x15, r22	; 21
    2a4a:	00 c0       	rjmp	.+0      	; 0x2a4c <headC+0x50>
    2a4c:	55 bb       	out	0x15, r21	; 21
    2a4e:	36 2f       	mov	r19, r22
    2a50:	25 bb       	out	0x15, r18	; 21
    2a52:	00 c0       	rjmp	.+0      	; 0x2a54 <headC+0x58>
    2a54:	41 fd       	sbrc	r20, 1
    2a56:	35 2f       	mov	r19, r21
    2a58:	65 bb       	out	0x15, r22	; 21
    2a5a:	00 c0       	rjmp	.+0      	; 0x2a5c <headC+0x60>
    2a5c:	55 bb       	out	0x15, r21	; 21
    2a5e:	26 2f       	mov	r18, r22
    2a60:	35 bb       	out	0x15, r19	; 21
    2a62:	00 c0       	rjmp	.+0      	; 0x2a64 <headC+0x68>
    2a64:	40 fd       	sbrc	r20, 0
    2a66:	25 2f       	mov	r18, r21
    2a68:	65 bb       	out	0x15, r22	; 21
    2a6a:	01 97       	sbiw	r24, 0x01	; 1
    2a6c:	55 bb       	out	0x15, r21	; 21
    2a6e:	36 2f       	mov	r19, r22
    2a70:	25 bb       	out	0x15, r18	; 21
    2a72:	4d 91       	ld	r20, X+
    2a74:	47 fd       	sbrc	r20, 7
    2a76:	35 2f       	mov	r19, r21
    2a78:	65 bb       	out	0x15, r22	; 21
    2a7a:	01 f6       	brne	.-128    	; 0x29fc <headC>
    2a7c:	4a ce       	rjmp	.-876    	; 0x2712 <headD+0x80>
c:\Users\LENOVO\Documents\Arduino\libraries\Adafruit_NeoPixel/Adafruit_NeoPixel.cpp:1153
    // 20 inst. clocks per bit: HHHHxxxxxxLLLLLLLLLL
    // ST instructions:         ^   ^     ^          (T=0,4,10)

    volatile uint8_t next, bit;

    hi = *port | pinMask;
    2a7e:	90 81       	ld	r25, Z
    2a80:	80 91 fd 02 	lds	r24, 0x02FD	; 0x8002fd <strip+0x15>
    2a84:	98 2b       	or	r25, r24
    2a86:	2f 96       	adiw	r28, 0x0f	; 15
    2a88:	9f af       	std	Y+63, r25	; 0x3f
    2a8a:	2f 97       	sbiw	r28, 0x0f	; 15
c:\Users\LENOVO\Documents\Arduino\libraries\Adafruit_NeoPixel/Adafruit_NeoPixel.cpp:1154
    lo = *port & ~pinMask;
    2a8c:	90 81       	ld	r25, Z
    2a8e:	80 95       	com	r24
    2a90:	89 23       	and	r24, r25
    2a92:	2e 96       	adiw	r28, 0x0e	; 14
    2a94:	8f af       	std	Y+63, r24	; 0x3f
    2a96:	2e 97       	sbiw	r28, 0x0e	; 14
c:\Users\LENOVO\Documents\Arduino\libraries\Adafruit_NeoPixel/Adafruit_NeoPixel.cpp:1155
    next = lo;
    2a98:	2e 96       	adiw	r28, 0x0e	; 14
    2a9a:	8f ad       	ldd	r24, Y+63	; 0x3f
    2a9c:	2e 97       	sbiw	r28, 0x0e	; 14
    2a9e:	2d 96       	adiw	r28, 0x0d	; 13
    2aa0:	8f af       	std	Y+63, r24	; 0x3f
    2aa2:	2d 97       	sbiw	r28, 0x0d	; 13
c:\Users\LENOVO\Documents\Arduino\libraries\Adafruit_NeoPixel/Adafruit_NeoPixel.cpp:1156
    bit = 8;
    2aa4:	88 e0       	ldi	r24, 0x08	; 8
    2aa6:	2c 96       	adiw	r28, 0x0c	; 12
    2aa8:	8f af       	std	Y+63, r24	; 0x3f
    2aaa:	2c 97       	sbiw	r28, 0x0c	; 12
c:\Users\LENOVO\Documents\Arduino\libraries\Adafruit_NeoPixel/Adafruit_NeoPixel.cpp:1202
                 "\n\t" // 2    i--           (T = 18)
                 "brne head20%="
                 "\n" // 2    if(i != 0) -> (next byte)
                 : [port] "+e"(port), [byte] "+r"(b), [bit] "+r"(bit),
                   [next] "+r"(next), [count] "+w"(i)
                 : [hi] "r"(hi), [lo] "r"(lo), [ptr] "e"(ptr));
    2aac:	2f 96       	adiw	r28, 0x0f	; 15
    2aae:	5f ad       	ldd	r21, Y+63	; 0x3f
    2ab0:	2f 97       	sbiw	r28, 0x0f	; 15
    2ab2:	2e 96       	adiw	r28, 0x0e	; 14
    2ab4:	6f ad       	ldd	r22, Y+63	; 0x3f
    2ab6:	2e 97       	sbiw	r28, 0x0e	; 14
    2ab8:	60 96       	adiw	r28, 0x10	; 16
    2aba:	4f ad       	ldd	r20, Y+63	; 0x3f
    2abc:	60 97       	sbiw	r28, 0x10	; 16
    2abe:	2c 96       	adiw	r28, 0x0c	; 12
    2ac0:	3f ad       	ldd	r19, Y+63	; 0x3f
    2ac2:	2c 97       	sbiw	r28, 0x0c	; 12
    2ac4:	2d 96       	adiw	r28, 0x0d	; 13
    2ac6:	2f ad       	ldd	r18, Y+63	; 0x3f
    2ac8:	2d 97       	sbiw	r28, 0x0d	; 13
    2aca:	8d a9       	ldd	r24, Y+53	; 0x35
    2acc:	9e a9       	ldd	r25, Y+54	; 0x36

00002ace <head206788>:
    2ace:	50 83       	st	Z, r21
    2ad0:	47 fd       	sbrc	r20, 7
    2ad2:	25 2f       	mov	r18, r21
    2ad4:	20 83       	st	Z, r18
    2ad6:	26 2f       	mov	r18, r22
    2ad8:	3a 95       	dec	r19
    2ada:	31 f0       	breq	.+12     	; 0x2ae8 <nextbyte206788>
    2adc:	44 1f       	adc	r20, r20
    2ade:	60 83       	st	Z, r22
    2ae0:	00 c0       	rjmp	.+0      	; 0x2ae2 <head206788+0x14>
    2ae2:	00 c0       	rjmp	.+0      	; 0x2ae4 <head206788+0x16>
    2ae4:	00 c0       	rjmp	.+0      	; 0x2ae6 <head206788+0x18>
    2ae6:	f3 cf       	rjmp	.-26     	; 0x2ace <head206788>

00002ae8 <nextbyte206788>:
    2ae8:	60 83       	st	Z, r22
    2aea:	00 00       	nop
    2aec:	38 e0       	ldi	r19, 0x08	; 8
    2aee:	4d 91       	ld	r20, X+
    2af0:	01 97       	sbiw	r24, 0x01	; 1
    2af2:	69 f7       	brne	.-38     	; 0x2ace <head206788>
    2af4:	f0 93 fc 02 	sts	0x02FC, r31	; 0x8002fc <strip+0x14>
    2af8:	e0 93 fb 02 	sts	0x02FB, r30	; 0x8002fb <strip+0x13>
    2afc:	60 96       	adiw	r28, 0x10	; 16
    2afe:	4f af       	std	Y+63, r20	; 0x3f
    2b00:	60 97       	sbiw	r28, 0x10	; 16
    2b02:	2c 96       	adiw	r28, 0x0c	; 12
    2b04:	3f af       	std	Y+63, r19	; 0x3f
    2b06:	2c 97       	sbiw	r28, 0x0c	; 12
    2b08:	2d 96       	adiw	r28, 0x0d	; 13
    2b0a:	2f af       	std	Y+63, r18	; 0x3f
    2b0c:	2d 97       	sbiw	r28, 0x0d	; 13
    2b0e:	0a ce       	rjmp	.-1004   	; 0x2724 <headD+0x92>
bunyi_alarm_event():
D:\KULIAH SEMESTER 4\LAB PROYEKSI ELEKTRONIKA\smart-drawer\firmware\atmega16\JAM DIGITAL\sketch_mar27a/sketch_mar27a.ino:531
      }
      delay(200);
    }
  }
  // pastikan buzzer mati setelah tombol ditekan
  digitalWrite(BUZZER, LOW);
    2b10:	60 e0       	ldi	r22, 0x00	; 0
    2b12:	8e e0       	ldi	r24, 0x0E	; 14
    2b14:	0e 94 55 03 	call	0x6aa	; 0x6aa <digitalWrite>
cek_alarm_dan_sholat():
D:\KULIAH SEMESTER 4\LAB PROYEKSI ELEKTRONIKA\smart-drawer\firmware\atmega16\JAM DIGITAL\sketch_mar27a/sketch_mar27a.ino:329
      strcpy_P(buf, nama_sholat[i]);
      lcd.print(buf);

      bunyi_alarm_solat();

      last_event_min = menit;
    2b18:	80 91 ff 01 	lds	r24, 0x01FF	; 0x8001ff <menit>
    2b1c:	80 93 64 00 	sts	0x0064, r24	; 0x800064 <last_event_min>
D:\KULIAH SEMESTER 4\LAB PROYEKSI ELEKTRONIKA\smart-drawer\firmware\atmega16\JAM DIGITAL\sketch_mar27a/sketch_mar27a.ino:330
      delay(1500);
    2b20:	6c ed       	ldi	r22, 0xDC	; 220
    2b22:	75 e0       	ldi	r23, 0x05	; 5
    2b24:	80 e0       	ldi	r24, 0x00	; 0
    2b26:	90 e0       	ldi	r25, 0x00	; 0
    2b28:	0e 94 1a 04 	call	0x834	; 0x834 <delay>
D:\KULIAH SEMESTER 4\LAB PROYEKSI ELEKTRONIKA\smart-drawer\firmware\atmega16\JAM DIGITAL\sketch_mar27a/sketch_mar27a.ino:331
      lcd.clear();
    2b2c:	0e 94 f5 06 	call	0xdea	; 0xdea <LiquidCrystal_I2C::clear() [clone .constprop.46]>
D:\KULIAH SEMESTER 4\LAB PROYEKSI ELEKTRONIKA\smart-drawer\firmware\atmega16\JAM DIGITAL\sketch_mar27a/sketch_mar27a.ino:332
      update_display();
    2b30:	0e 94 1d 08 	call	0x103a	; 0x103a <update_display()>
loop():
D:\KULIAH SEMESTER 4\LAB PROYEKSI ELEKTRONIKA\smart-drawer\firmware\atmega16\JAM DIGITAL\sketch_mar27a/sketch_mar27a.ino:235
  }

  refresh_lampu();
  cek_alarm_dan_sholat();

  if (digitalRead(BTN_SET) == LOW) {
    2b34:	80 e0       	ldi	r24, 0x00	; 0
    2b36:	0e 94 2c 03 	call	0x658	; 0x658 <digitalRead>
    2b3a:	89 2b       	or	r24, r25
    2b3c:	09 f5       	brne	.+66     	; 0x2b80 <nextbyte206788+0x98>
D:\KULIAH SEMESTER 4\LAB PROYEKSI ELEKTRONIKA\smart-drawer\firmware\atmega16\JAM DIGITAL\sketch_mar27a/sketch_mar27a.ino:236
    delay(30);
    2b3e:	6e e1       	ldi	r22, 0x1E	; 30
    2b40:	70 e0       	ldi	r23, 0x00	; 0
    2b42:	80 e0       	ldi	r24, 0x00	; 0
    2b44:	90 e0       	ldi	r25, 0x00	; 0
    2b46:	0e 94 1a 04 	call	0x834	; 0x834 <delay>
D:\KULIAH SEMESTER 4\LAB PROYEKSI ELEKTRONIKA\smart-drawer\firmware\atmega16\JAM DIGITAL\sketch_mar27a/sketch_mar27a.ino:237
    if (digitalRead(BTN_SET) == LOW) {
    2b4a:	80 e0       	ldi	r24, 0x00	; 0
    2b4c:	0e 94 2c 03 	call	0x658	; 0x658 <digitalRead>
    2b50:	89 2b       	or	r24, r25
    2b52:	b1 f4       	brne	.+44     	; 0x2b80 <nextbyte206788+0x98>
D:\KULIAH SEMESTER 4\LAB PROYEKSI ELEKTRONIKA\smart-drawer\firmware\atmega16\JAM DIGITAL\sketch_mar27a/sketch_mar27a.ino:238
      beep();
    2b54:	0e 94 08 07 	call	0xe10	; 0xe10 <beep()>
D:\KULIAH SEMESTER 4\LAB PROYEKSI ELEKTRONIKA\smart-drawer\firmware\atmega16\JAM DIGITAL\sketch_mar27a/sketch_mar27a.ino:239
      if (menu_pos == 0 && menu_aktif == 0) { menu_pos = 1; lcd.clear(); }
    2b58:	80 91 ef 01 	lds	r24, 0x01EF	; 0x8001ef <menu_pos>
    2b5c:	90 91 ee 01 	lds	r25, 0x01EE	; 0x8001ee <menu_aktif>
    2b60:	81 11       	cpse	r24, r1
    2b62:	ea c2       	rjmp	.+1492   	; 0x3138 <nextbyte206788+0x650>
    2b64:	91 11       	cpse	r25, r1
    2b66:	50 c1       	rjmp	.+672    	; 0x2e08 <nextbyte206788+0x320>
    2b68:	81 e0       	ldi	r24, 0x01	; 1
    2b6a:	80 93 ef 01 	sts	0x01EF, r24	; 0x8001ef <menu_pos>
D:\KULIAH SEMESTER 4\LAB PROYEKSI ELEKTRONIKA\smart-drawer\firmware\atmega16\JAM DIGITAL\sketch_mar27a/sketch_mar27a.ino:252
        lcd.clear();
      }
      else if (menu_aktif == 1) {
        simpan_data(); menu_aktif = 0; lcd.clear();
      }
      else if (menu_pos == 11) { menu_pos = 0; menu_aktif = 0; lcd.clear(); }
    2b6e:	0e 94 f5 06 	call	0xdea	; 0xdea <LiquidCrystal_I2C::clear() [clone .constprop.46]>
D:\KULIAH SEMESTER 4\LAB PROYEKSI ELEKTRONIKA\smart-drawer\firmware\atmega16\JAM DIGITAL\sketch_mar27a/sketch_mar27a.ino:253
      update_display();
    2b72:	0e 94 1d 08 	call	0x103a	; 0x103a <update_display()>
D:\KULIAH SEMESTER 4\LAB PROYEKSI ELEKTRONIKA\smart-drawer\firmware\atmega16\JAM DIGITAL\sketch_mar27a/sketch_mar27a.ino:254
      while(digitalRead(BTN_SET) == LOW);
    2b76:	80 e0       	ldi	r24, 0x00	; 0
    2b78:	0e 94 2c 03 	call	0x658	; 0x658 <digitalRead>
    2b7c:	89 2b       	or	r24, r25
    2b7e:	d9 f3       	breq	.-10     	; 0x2b76 <nextbyte206788+0x8e>
D:\KULIAH SEMESTER 4\LAB PROYEKSI ELEKTRONIKA\smart-drawer\firmware\atmega16\JAM DIGITAL\sketch_mar27a/sketch_mar27a.ino:258
    }
  }
//tombol up
  if (digitalRead(BTN_UP) == LOW) {
    2b80:	81 e0       	ldi	r24, 0x01	; 1
    2b82:	0e 94 2c 03 	call	0x658	; 0x658 <digitalRead>
    2b86:	89 2b       	or	r24, r25
    2b88:	11 f5       	brne	.+68     	; 0x2bce <nextbyte206788+0xe6>
D:\KULIAH SEMESTER 4\LAB PROYEKSI ELEKTRONIKA\smart-drawer\firmware\atmega16\JAM DIGITAL\sketch_mar27a/sketch_mar27a.ino:259
    delay(30); if(digitalRead(BTN_UP) == LOW){
    2b8a:	6e e1       	ldi	r22, 0x1E	; 30
    2b8c:	70 e0       	ldi	r23, 0x00	; 0
    2b8e:	80 e0       	ldi	r24, 0x00	; 0
    2b90:	90 e0       	ldi	r25, 0x00	; 0
    2b92:	0e 94 1a 04 	call	0x834	; 0x834 <delay>
    2b96:	81 e0       	ldi	r24, 0x01	; 1
    2b98:	0e 94 2c 03 	call	0x658	; 0x658 <digitalRead>
    2b9c:	89 2b       	or	r24, r25
    2b9e:	b9 f4       	brne	.+46     	; 0x2bce <nextbyte206788+0xe6>
D:\KULIAH SEMESTER 4\LAB PROYEKSI ELEKTRONIKA\smart-drawer\firmware\atmega16\JAM DIGITAL\sketch_mar27a/sketch_mar27a.ino:260
      beep();
    2ba0:	0e 94 08 07 	call	0xe10	; 0xe10 <beep()>
    2ba4:	80 91 ef 01 	lds	r24, 0x01EF	; 0x8001ef <menu_pos>
D:\KULIAH SEMESTER 4\LAB PROYEKSI ELEKTRONIKA\smart-drawer\firmware\atmega16\JAM DIGITAL\sketch_mar27a/sketch_mar27a.ino:261
      if(menu_aktif == 0){
    2ba8:	90 91 ee 01 	lds	r25, 0x01EE	; 0x8001ee <menu_aktif>
    2bac:	91 11       	cpse	r25, r1
    2bae:	0d c2       	rjmp	.+1050   	; 0x2fca <nextbyte206788+0x4e2>
D:\KULIAH SEMESTER 4\LAB PROYEKSI ELEKTRONIKA\smart-drawer\firmware\atmega16\JAM DIGITAL\sketch_mar27a/sketch_mar27a.ino:262
        menu_pos++; if (menu_pos > 11) menu_pos = 0; lcd.clear();
    2bb0:	8f 5f       	subi	r24, 0xFF	; 255
    2bb2:	8c 30       	cpi	r24, 0x0C	; 12
    2bb4:	08 f0       	brcs	.+2      	; 0x2bb8 <nextbyte206788+0xd0>
    2bb6:	06 c2       	rjmp	.+1036   	; 0x2fc4 <nextbyte206788+0x4dc>
    2bb8:	80 93 ef 01 	sts	0x01EF, r24	; 0x8001ef <menu_pos>
    2bbc:	0e 94 f5 06 	call	0xdea	; 0xdea <LiquidCrystal_I2C::clear() [clone .constprop.46]>
D:\KULIAH SEMESTER 4\LAB PROYEKSI ELEKTRONIKA\smart-drawer\firmware\atmega16\JAM DIGITAL\sketch_mar27a/sketch_mar27a.ino:271
        if (menu_pos==3 && edit_val>31) edit_val=1; if (menu_pos==4 && edit_val>12) edit_val=1;
        if (menu_pos==5 && edit_val>99) edit_val=0; if (menu_pos==6 && edit_val>23) edit_val=0;
        if (menu_pos==7 && edit_val>59) edit_val=0; if (menu_pos==8 && edit_val>1) edit_val=0;
        if (menu_pos==9 && edit_val>5) edit_val=1; if (menu_pos==10 && edit_val>11) edit_val=0;
      }
      update_display(); while(digitalRead(BTN_UP) == LOW);
    2bc0:	0e 94 1d 08 	call	0x103a	; 0x103a <update_display()>
    2bc4:	81 e0       	ldi	r24, 0x01	; 1
    2bc6:	0e 94 2c 03 	call	0x658	; 0x658 <digitalRead>
    2bca:	89 2b       	or	r24, r25
    2bcc:	d9 f3       	breq	.-10     	; 0x2bc4 <nextbyte206788+0xdc>
D:\KULIAH SEMESTER 4\LAB PROYEKSI ELEKTRONIKA\smart-drawer\firmware\atmega16\JAM DIGITAL\sketch_mar27a/sketch_mar27a.ino:275
    }
  }
//tombol down
  if (digitalRead(BTN_DOWN) == LOW) {
    2bce:	82 e0       	ldi	r24, 0x02	; 2
    2bd0:	0e 94 2c 03 	call	0x658	; 0x658 <digitalRead>
    2bd4:	89 2b       	or	r24, r25
    2bd6:	09 f5       	brne	.+66     	; 0x2c1a <nextbyte206788+0x132>
D:\KULIAH SEMESTER 4\LAB PROYEKSI ELEKTRONIKA\smart-drawer\firmware\atmega16\JAM DIGITAL\sketch_mar27a/sketch_mar27a.ino:276
    delay(30); if(digitalRead(BTN_DOWN) == LOW){
    2bd8:	6e e1       	ldi	r22, 0x1E	; 30
    2bda:	70 e0       	ldi	r23, 0x00	; 0
    2bdc:	80 e0       	ldi	r24, 0x00	; 0
    2bde:	90 e0       	ldi	r25, 0x00	; 0
    2be0:	0e 94 1a 04 	call	0x834	; 0x834 <delay>
    2be4:	82 e0       	ldi	r24, 0x02	; 2
    2be6:	0e 94 2c 03 	call	0x658	; 0x658 <digitalRead>
    2bea:	89 2b       	or	r24, r25
    2bec:	b1 f4       	brne	.+44     	; 0x2c1a <nextbyte206788+0x132>
D:\KULIAH SEMESTER 4\LAB PROYEKSI ELEKTRONIKA\smart-drawer\firmware\atmega16\JAM DIGITAL\sketch_mar27a/sketch_mar27a.ino:277
      beep();
    2bee:	0e 94 08 07 	call	0xe10	; 0xe10 <beep()>
    2bf2:	80 91 ef 01 	lds	r24, 0x01EF	; 0x8001ef <menu_pos>
D:\KULIAH SEMESTER 4\LAB PROYEKSI ELEKTRONIKA\smart-drawer\firmware\atmega16\JAM DIGITAL\sketch_mar27a/sketch_mar27a.ino:278
      if(menu_aktif == 0){
    2bf6:	90 91 ee 01 	lds	r25, 0x01EE	; 0x8001ee <menu_aktif>
    2bfa:	91 11       	cpse	r25, r1
    2bfc:	1e c2       	rjmp	.+1084   	; 0x303a <nextbyte206788+0x552>
D:\KULIAH SEMESTER 4\LAB PROYEKSI ELEKTRONIKA\smart-drawer\firmware\atmega16\JAM DIGITAL\sketch_mar27a/sketch_mar27a.ino:279
        if (menu_pos == 0) menu_pos = 11; else menu_pos--; lcd.clear();
    2bfe:	81 11       	cpse	r24, r1
    2c00:	1a c2       	rjmp	.+1076   	; 0x3036 <nextbyte206788+0x54e>
    2c02:	8b e0       	ldi	r24, 0x0B	; 11
    2c04:	80 93 ef 01 	sts	0x01EF, r24	; 0x8001ef <menu_pos>
    2c08:	0e 94 f5 06 	call	0xdea	; 0xdea <LiquidCrystal_I2C::clear() [clone .constprop.46]>
D:\KULIAH SEMESTER 4\LAB PROYEKSI ELEKTRONIKA\smart-drawer\firmware\atmega16\JAM DIGITAL\sketch_mar27a/sketch_mar27a.ino:288
        if (menu_pos==3 && edit_val<1) edit_val=31; if (menu_pos==4 && edit_val<1) edit_val=12;
        if (menu_pos==5 && edit_val<0) edit_val=99; if (menu_pos==6 && edit_val<0) edit_val=23;
        if (menu_pos==7 && edit_val<0) edit_val=59; if (menu_pos==8 && edit_val<0) edit_val=1;
        if (menu_pos==9 && edit_val<1) edit_val=5; if (menu_pos==10 && edit_val<0) edit_val=11;
      }
      update_display(); while(digitalRead(BTN_DOWN) == LOW);
    2c0c:	0e 94 1d 08 	call	0x103a	; 0x103a <update_display()>
    2c10:	82 e0       	ldi	r24, 0x02	; 2
    2c12:	0e 94 2c 03 	call	0x658	; 0x658 <digitalRead>
    2c16:	89 2b       	or	r24, r25
    2c18:	d9 f3       	breq	.-10     	; 0x2c10 <nextbyte206788+0x128>
serialEventRun():
C:\Users\LENOVO\AppData\Local\Arduino15\packages\MightyCore\hardware\avr\3.1.0\cores\MCUdude_corefiles/HardwareSerial.cpp:67
#endif

void serialEventRun(void)
{
#if defined(HAVE_HWSERIAL0)
  if (Serial0_available && serialEvent && Serial0_available()) serialEvent();
    2c1a:	80 e0       	ldi	r24, 0x00	; 0
    2c1c:	90 e0       	ldi	r25, 0x00	; 0
    2c1e:	89 2b       	or	r24, r25
    2c20:	11 f4       	brne	.+4      	; 0x2c26 <nextbyte206788+0x13e>
    2c22:	0c 94 42 0e 	jmp	0x1c84	; 0x1c84 <main+0x3a2>
    2c26:	0e 94 e1 04 	call	0x9c2	; 0x9c2 <Serial0_available()>
    2c2a:	88 23       	and	r24, r24
    2c2c:	11 f4       	brne	.+4      	; 0x2c32 <nextbyte206788+0x14a>
    2c2e:	0c 94 3f 0e 	jmp	0x1c7e	; 0x1c7e <main+0x39c>
    2c32:	0e 94 00 00 	call	0	; 0x0 <__vectors>
    2c36:	0c 94 3b 0e 	jmp	0x1c76	; 0x1c76 <main+0x394>
bunyi_alarm_event():
D:\KULIAH SEMESTER 4\LAB PROYEKSI ELEKTRONIKA\smart-drawer\firmware\atmega16\JAM DIGITAL\sketch_mar27a/sketch_mar27a.ino:510

    if (nada_alarm == 1) {
      digitalWrite(BUZZER, HIGH); delay(120);
      digitalWrite(BUZZER, LOW);  delay(120);
    }
    else if (nada_alarm == 2) {
    2c3a:	82 30       	cpi	r24, 0x02	; 2
    2c3c:	a9 f4       	brne	.+42     	; 0x2c68 <nextbyte206788+0x180>
D:\KULIAH SEMESTER 4\LAB PROYEKSI ELEKTRONIKA\smart-drawer\firmware\atmega16\JAM DIGITAL\sketch_mar27a/sketch_mar27a.ino:511
      digitalWrite(BUZZER, HIGH); delay(60);
    2c3e:	61 e0       	ldi	r22, 0x01	; 1
    2c40:	8e e0       	ldi	r24, 0x0E	; 14
    2c42:	0e 94 55 03 	call	0x6aa	; 0x6aa <digitalWrite>
    2c46:	6c e3       	ldi	r22, 0x3C	; 60
    2c48:	70 e0       	ldi	r23, 0x00	; 0
    2c4a:	80 e0       	ldi	r24, 0x00	; 0
    2c4c:	90 e0       	ldi	r25, 0x00	; 0
    2c4e:	0e 94 1a 04 	call	0x834	; 0x834 <delay>
D:\KULIAH SEMESTER 4\LAB PROYEKSI ELEKTRONIKA\smart-drawer\firmware\atmega16\JAM DIGITAL\sketch_mar27a/sketch_mar27a.ino:512
      digitalWrite(BUZZER, LOW);  delay(60);
    2c52:	60 e0       	ldi	r22, 0x00	; 0
    2c54:	8e e0       	ldi	r24, 0x0E	; 14
    2c56:	0e 94 55 03 	call	0x6aa	; 0x6aa <digitalWrite>
    2c5a:	6c e3       	ldi	r22, 0x3C	; 60
    2c5c:	70 e0       	ldi	r23, 0x00	; 0
    2c5e:	80 e0       	ldi	r24, 0x00	; 0
    2c60:	90 e0       	ldi	r25, 0x00	; 0
D:\KULIAH SEMESTER 4\LAB PROYEKSI ELEKTRONIKA\smart-drawer\firmware\atmega16\JAM DIGITAL\sketch_mar27a/sketch_mar27a.ino:527
    else {
      for (int k = 0; k < 3; k++) {
        digitalWrite(BUZZER, HIGH); delay(100);
        digitalWrite(BUZZER, LOW);  delay(80);
      }
      delay(200);
    2c62:	0e 94 1a 04 	call	0x834	; 0x834 <delay>
    2c66:	a3 cd       	rjmp	.-1210   	; 0x27ae <headD+0x11c>
D:\KULIAH SEMESTER 4\LAB PROYEKSI ELEKTRONIKA\smart-drawer\firmware\atmega16\JAM DIGITAL\sketch_mar27a/sketch_mar27a.ino:514
    }
    else if (nada_alarm == 2) {
      digitalWrite(BUZZER, HIGH); delay(60);
      digitalWrite(BUZZER, LOW);  delay(60);
    }
    else if (nada_alarm == 3) {
    2c68:	83 30       	cpi	r24, 0x03	; 3
    2c6a:	49 f4       	brne	.+18     	; 0x2c7e <nextbyte206788+0x196>
D:\KULIAH SEMESTER 4\LAB PROYEKSI ELEKTRONIKA\smart-drawer\firmware\atmega16\JAM DIGITAL\sketch_mar27a/sketch_mar27a.ino:515
      digitalWrite(BUZZER, HIGH); delay(300);
    2c6c:	61 e0       	ldi	r22, 0x01	; 1
    2c6e:	8e e0       	ldi	r24, 0x0E	; 14
    2c70:	0e 94 55 03 	call	0x6aa	; 0x6aa <digitalWrite>
    2c74:	6c e2       	ldi	r22, 0x2C	; 44
    2c76:	71 e0       	ldi	r23, 0x01	; 1
    2c78:	80 e0       	ldi	r24, 0x00	; 0
    2c7a:	90 e0       	ldi	r25, 0x00	; 0
    2c7c:	b7 cd       	rjmp	.-1170   	; 0x27ec <headD+0x15a>
D:\KULIAH SEMESTER 4\LAB PROYEKSI ELEKTRONIKA\smart-drawer\firmware\atmega16\JAM DIGITAL\sketch_mar27a/sketch_mar27a.ino:518
      digitalWrite(BUZZER, LOW);  delay(120);
    }
    else if (nada_alarm == 4) {
    2c7e:	03 e0       	ldi	r16, 0x03	; 3
    2c80:	10 e0       	ldi	r17, 0x00	; 0
    2c82:	84 30       	cpi	r24, 0x04	; 4
    2c84:	99 f4       	brne	.+38     	; 0x2cac <nextbyte206788+0x1c4>
D:\KULIAH SEMESTER 4\LAB PROYEKSI ELEKTRONIKA\smart-drawer\firmware\atmega16\JAM DIGITAL\sketch_mar27a/sketch_mar27a.ino:519
      digitalWrite(BUZZER, HIGH); delay(500);
    2c86:	61 e0       	ldi	r22, 0x01	; 1
    2c88:	8e e0       	ldi	r24, 0x0E	; 14
    2c8a:	0e 94 55 03 	call	0x6aa	; 0x6aa <digitalWrite>
    2c8e:	64 ef       	ldi	r22, 0xF4	; 244
    2c90:	71 e0       	ldi	r23, 0x01	; 1
    2c92:	80 e0       	ldi	r24, 0x00	; 0
    2c94:	90 e0       	ldi	r25, 0x00	; 0
    2c96:	0e 94 1a 04 	call	0x834	; 0x834 <delay>
D:\KULIAH SEMESTER 4\LAB PROYEKSI ELEKTRONIKA\smart-drawer\firmware\atmega16\JAM DIGITAL\sketch_mar27a/sketch_mar27a.ino:520
      digitalWrite(BUZZER, LOW);  delay(80);
    2c9a:	60 e0       	ldi	r22, 0x00	; 0
    2c9c:	8e e0       	ldi	r24, 0x0E	; 14
    2c9e:	0e 94 55 03 	call	0x6aa	; 0x6aa <digitalWrite>
    2ca2:	60 e5       	ldi	r22, 0x50	; 80
    2ca4:	70 e0       	ldi	r23, 0x00	; 0
    2ca6:	80 e0       	ldi	r24, 0x00	; 0
    2ca8:	90 e0       	ldi	r25, 0x00	; 0
    2caa:	db cf       	rjmp	.-74     	; 0x2c62 <nextbyte206788+0x17a>
D:\KULIAH SEMESTER 4\LAB PROYEKSI ELEKTRONIKA\smart-drawer\firmware\atmega16\JAM DIGITAL\sketch_mar27a/sketch_mar27a.ino:524
    }
    else {
      for (int k = 0; k < 3; k++) {
        digitalWrite(BUZZER, HIGH); delay(100);
    2cac:	61 e0       	ldi	r22, 0x01	; 1
    2cae:	8e e0       	ldi	r24, 0x0E	; 14
    2cb0:	0e 94 55 03 	call	0x6aa	; 0x6aa <digitalWrite>
    2cb4:	64 e6       	ldi	r22, 0x64	; 100
    2cb6:	70 e0       	ldi	r23, 0x00	; 0
    2cb8:	80 e0       	ldi	r24, 0x00	; 0
    2cba:	90 e0       	ldi	r25, 0x00	; 0
    2cbc:	0e 94 1a 04 	call	0x834	; 0x834 <delay>
D:\KULIAH SEMESTER 4\LAB PROYEKSI ELEKTRONIKA\smart-drawer\firmware\atmega16\JAM DIGITAL\sketch_mar27a/sketch_mar27a.ino:525
        digitalWrite(BUZZER, LOW);  delay(80);
    2cc0:	60 e0       	ldi	r22, 0x00	; 0
    2cc2:	8e e0       	ldi	r24, 0x0E	; 14
    2cc4:	0e 94 55 03 	call	0x6aa	; 0x6aa <digitalWrite>
    2cc8:	60 e5       	ldi	r22, 0x50	; 80
    2cca:	70 e0       	ldi	r23, 0x00	; 0
    2ccc:	80 e0       	ldi	r24, 0x00	; 0
    2cce:	90 e0       	ldi	r25, 0x00	; 0
    2cd0:	0e 94 1a 04 	call	0x834	; 0x834 <delay>
    2cd4:	01 50       	subi	r16, 0x01	; 1
    2cd6:	11 09       	sbc	r17, r1
D:\KULIAH SEMESTER 4\LAB PROYEKSI ELEKTRONIKA\smart-drawer\firmware\atmega16\JAM DIGITAL\sketch_mar27a/sketch_mar27a.ino:523
    else if (nada_alarm == 4) {
      digitalWrite(BUZZER, HIGH); delay(500);
      digitalWrite(BUZZER, LOW);  delay(80);
    }
    else {
      for (int k = 0; k < 3; k++) {
    2cd8:	49 f7       	brne	.-46     	; 0x2cac <nextbyte206788+0x1c4>
D:\KULIAH SEMESTER 4\LAB PROYEKSI ELEKTRONIKA\smart-drawer\firmware\atmega16\JAM DIGITAL\sketch_mar27a/sketch_mar27a.ino:527
        digitalWrite(BUZZER, HIGH); delay(100);
        digitalWrite(BUZZER, LOW);  delay(80);
      }
      delay(200);
    2cda:	68 ec       	ldi	r22, 0xC8	; 200
    2cdc:	70 e0       	ldi	r23, 0x00	; 0
    2cde:	80 e0       	ldi	r24, 0x00	; 0
    2ce0:	90 e0       	ldi	r25, 0x00	; 0
    2ce2:	bf cf       	rjmp	.-130    	; 0x2c62 <nextbyte206788+0x17a>
    2ce4:	e8 e6       	ldi	r30, 0x68	; 104
    2ce6:	f0 e0       	ldi	r31, 0x00	; 0
D:\KULIAH SEMESTER 4\LAB PROYEKSI ELEKTRONIKA\smart-drawer\firmware\atmega16\JAM DIGITAL\sketch_mar27a/sketch_mar27a.ino:518
    }
    else if (nada_alarm == 3) {
      digitalWrite(BUZZER, HIGH); delay(300);
      digitalWrite(BUZZER, LOW);  delay(120);
    }
    else if (nada_alarm == 4) {
    2ce8:	10 e0       	ldi	r17, 0x00	; 0
    2cea:	00 e0       	ldi	r16, 0x00	; 0
cek_alarm_dan_sholat():
D:\KULIAH SEMESTER 4\LAB PROYEKSI ELEKTRONIKA\smart-drawer\firmware\atmega16\JAM DIGITAL\sketch_mar27a/sketch_mar27a.ino:315
    return;
  }

  // ===== PERUBAHAN: Cek terhadap jadwal hari ini =====
  for (int i = 0; i < 5; i++) {
    if (jam == jadwal_hari_ini[i][0] &&
    2cec:	40 81       	ld	r20, Z
    2cee:	49 13       	cpse	r20, r25
    2cf0:	58 c0       	rjmp	.+176    	; 0x2da2 <nextbyte206788+0x2ba>
    2cf2:	41 81       	ldd	r20, Z+1	; 0x01
    2cf4:	48 13       	cpse	r20, r24
    2cf6:	55 c0       	rjmp	.+170    	; 0x2da2 <nextbyte206788+0x2ba>
D:\KULIAH SEMESTER 4\LAB PROYEKSI ELEKTRONIKA\smart-drawer\firmware\atmega16\JAM DIGITAL\sketch_mar27a/sketch_mar27a.ino:316
        menit == jadwal_hari_ini[i][1] &&
    2cf8:	21 11       	cpse	r18, r1
    2cfa:	53 c0       	rjmp	.+166    	; 0x2da2 <nextbyte206788+0x2ba>
D:\KULIAH SEMESTER 4\LAB PROYEKSI ELEKTRONIKA\smart-drawer\firmware\atmega16\JAM DIGITAL\sketch_mar27a/sketch_mar27a.ino:317
        detik == 0 &&
    2cfc:	83 17       	cp	r24, r19
    2cfe:	09 f4       	brne	.+2      	; 0x2d02 <nextbyte206788+0x21a>
    2d00:	50 c0       	rjmp	.+160    	; 0x2da2 <nextbyte206788+0x2ba>
D:\KULIAH SEMESTER 4\LAB PROYEKSI ELEKTRONIKA\smart-drawer\firmware\atmega16\JAM DIGITAL\sketch_mar27a/sketch_mar27a.ino:320
        last_event_min != menit) {

      lcd.clear();
    2d02:	0e 94 f5 06 	call	0xdea	; 0xdea <LiquidCrystal_I2C::clear() [clone .constprop.46]>
D:\KULIAH SEMESTER 4\LAB PROYEKSI ELEKTRONIKA\smart-drawer\firmware\atmega16\JAM DIGITAL\sketch_mar27a/sketch_mar27a.ino:321
      lcd.setCursor(1, 0);
    2d06:	60 e0       	ldi	r22, 0x00	; 0
    2d08:	81 e0       	ldi	r24, 0x01	; 1
    2d0a:	0e 94 c2 06 	call	0xd84	; 0xd84 <LiquidCrystal_I2C::setCursor(unsigned char, unsigned char) [clone .constprop.47]>
D:\KULIAH SEMESTER 4\LAB PROYEKSI ELEKTRONIKA\smart-drawer\firmware\atmega16\JAM DIGITAL\sketch_mar27a/sketch_mar27a.ino:322
      lcd.print(F("WAKTU SHOLAT"));
    2d0e:	68 e2       	ldi	r22, 0x28	; 40
    2d10:	73 e0       	ldi	r23, 0x03	; 3
    2d12:	8e ef       	ldi	r24, 0xFE	; 254
    2d14:	92 e0       	ldi	r25, 0x02	; 2
    2d16:	0e 94 53 04 	call	0x8a6	; 0x8a6 <Print::print(__FlashStringHelper const*)>
D:\KULIAH SEMESTER 4\LAB PROYEKSI ELEKTRONIKA\smart-drawer\firmware\atmega16\JAM DIGITAL\sketch_mar27a/sketch_mar27a.ino:323
      lcd.setCursor(3, 1);
    2d1a:	61 e0       	ldi	r22, 0x01	; 1
    2d1c:	83 e0       	ldi	r24, 0x03	; 3
    2d1e:	0e 94 c2 06 	call	0xd84	; 0xd84 <LiquidCrystal_I2C::setCursor(unsigned char, unsigned char) [clone .constprop.47]>
D:\KULIAH SEMESTER 4\LAB PROYEKSI ELEKTRONIKA\smart-drawer\firmware\atmega16\JAM DIGITAL\sketch_mar27a/sketch_mar27a.ino:324
      strcpy_P(buf, nama_sholat[i]);
    2d22:	8a e0       	ldi	r24, 0x0A	; 10
    2d24:	80 9f       	mul	r24, r16
    2d26:	b0 01       	movw	r22, r0
    2d28:	81 9f       	mul	r24, r17
    2d2a:	70 0d       	add	r23, r0
    2d2c:	11 24       	eor	r1, r1
    2d2e:	6a 50       	subi	r22, 0x0A	; 10
    2d30:	7d 4f       	sbci	r23, 0xFD	; 253
    2d32:	8c ed       	ldi	r24, 0xDC	; 220
    2d34:	91 e0       	ldi	r25, 0x01	; 1
    2d36:	0e 94 bc 18 	call	0x3178	; 0x3178 <strcpy_P>
write():
    2d3a:	6c ed       	ldi	r22, 0xDC	; 220
    2d3c:	71 e0       	ldi	r23, 0x01	; 1
    2d3e:	8e ef       	ldi	r24, 0xFE	; 254
    2d40:	92 e0       	ldi	r25, 0x02	; 2
    2d42:	0e 94 98 07 	call	0xf30	; 0xf30 <Print::write(char const*) [clone .part.2]>
bunyi_alarm_solat():
D:\KULIAH SEMESTER 4\LAB PROYEKSI ELEKTRONIKA\smart-drawer\firmware\atmega16\JAM DIGITAL\sketch_mar27a/sketch_mar27a.ino:492
  delay(30); 
  digitalWrite(BUZZER, LOW); 
}

void bunyi_alarm_solat() {
  int repeat = 6 + nada_alarm * 2;
    2d46:	20 90 f5 01 	lds	r2, 0x01F5	; 0x8001f5 <nada_alarm>
    2d4a:	02 2d       	mov	r16, r2
    2d4c:	10 e0       	ldi	r17, 0x00	; 0
    2d4e:	0d 5f       	subi	r16, 0xFD	; 253
    2d50:	1f 4f       	sbci	r17, 0xFF	; 255
    2d52:	00 0f       	add	r16, r16
    2d54:	11 1f       	adc	r17, r17
D:\KULIAH SEMESTER 4\LAB PROYEKSI ELEKTRONIKA\smart-drawer\firmware\atmega16\JAM DIGITAL\sketch_mar27a/sketch_mar27a.ino:495
  for (int i = 0; i < repeat; i++) {
    digitalWrite(BUZZER, HIGH);
    delay(80 + (nada_alarm * 20));
    2d56:	44 e1       	ldi	r20, 0x14	; 20
    2d58:	24 9e       	mul	r2, r20
    2d5a:	10 01       	movw	r2, r0
    2d5c:	11 24       	eor	r1, r1
    2d5e:	60 e5       	ldi	r22, 0x50	; 80
    2d60:	26 0e       	add	r2, r22
    2d62:	31 1c       	adc	r3, r1
    2d64:	03 2c       	mov	r0, r3
    2d66:	00 0c       	add	r0, r0
    2d68:	44 08       	sbc	r4, r4
    2d6a:	55 08       	sbc	r5, r5
main():
D:\KULIAH SEMESTER 4\LAB PROYEKSI ELEKTRONIKA\smart-drawer\firmware\atmega16\JAM DIGITAL\sketch_mar27a/sketch_mar27a.ino:493
  digitalWrite(BUZZER, LOW); 
}

void bunyi_alarm_solat() {
  int repeat = 6 + nada_alarm * 2;
  for (int i = 0; i < repeat; i++) {
    2d6c:	f1 2c       	mov	r15, r1
    2d6e:	e1 2c       	mov	r14, r1
bunyi_alarm_solat():
D:\KULIAH SEMESTER 4\LAB PROYEKSI ELEKTRONIKA\smart-drawer\firmware\atmega16\JAM DIGITAL\sketch_mar27a/sketch_mar27a.ino:494
    digitalWrite(BUZZER, HIGH);
    2d70:	61 e0       	ldi	r22, 0x01	; 1
    2d72:	8e e0       	ldi	r24, 0x0E	; 14
    2d74:	0e 94 55 03 	call	0x6aa	; 0x6aa <digitalWrite>
D:\KULIAH SEMESTER 4\LAB PROYEKSI ELEKTRONIKA\smart-drawer\firmware\atmega16\JAM DIGITAL\sketch_mar27a/sketch_mar27a.ino:495
    delay(80 + (nada_alarm * 20));
    2d78:	c2 01       	movw	r24, r4
    2d7a:	b1 01       	movw	r22, r2
    2d7c:	0e 94 1a 04 	call	0x834	; 0x834 <delay>
D:\KULIAH SEMESTER 4\LAB PROYEKSI ELEKTRONIKA\smart-drawer\firmware\atmega16\JAM DIGITAL\sketch_mar27a/sketch_mar27a.ino:496
    digitalWrite(BUZZER, LOW);
    2d80:	60 e0       	ldi	r22, 0x00	; 0
    2d82:	8e e0       	ldi	r24, 0x0E	; 14
    2d84:	0e 94 55 03 	call	0x6aa	; 0x6aa <digitalWrite>
D:\KULIAH SEMESTER 4\LAB PROYEKSI ELEKTRONIKA\smart-drawer\firmware\atmega16\JAM DIGITAL\sketch_mar27a/sketch_mar27a.ino:497
    delay(60);
    2d88:	6c e3       	ldi	r22, 0x3C	; 60
    2d8a:	70 e0       	ldi	r23, 0x00	; 0
    2d8c:	80 e0       	ldi	r24, 0x00	; 0
    2d8e:	90 e0       	ldi	r25, 0x00	; 0
    2d90:	0e 94 1a 04 	call	0x834	; 0x834 <delay>
D:\KULIAH SEMESTER 4\LAB PROYEKSI ELEKTRONIKA\smart-drawer\firmware\atmega16\JAM DIGITAL\sketch_mar27a/sketch_mar27a.ino:493
  digitalWrite(BUZZER, LOW); 
}

void bunyi_alarm_solat() {
  int repeat = 6 + nada_alarm * 2;
  for (int i = 0; i < repeat; i++) {
    2d94:	8f ef       	ldi	r24, 0xFF	; 255
    2d96:	e8 1a       	sub	r14, r24
    2d98:	f8 0a       	sbc	r15, r24
    2d9a:	0e 15       	cp	r16, r14
    2d9c:	1f 05       	cpc	r17, r15
    2d9e:	41 f7       	brne	.-48     	; 0x2d70 <nextbyte206788+0x288>
    2da0:	bb ce       	rjmp	.-650    	; 0x2b18 <nextbyte206788+0x30>
cek_alarm_dan_sholat():
D:\KULIAH SEMESTER 4\LAB PROYEKSI ELEKTRONIKA\smart-drawer\firmware\atmega16\JAM DIGITAL\sketch_mar27a/sketch_mar27a.ino:314
    update_display();
    return;
  }

  // ===== PERUBAHAN: Cek terhadap jadwal hari ini =====
  for (int i = 0; i < 5; i++) {
    2da2:	0f 5f       	subi	r16, 0xFF	; 255
    2da4:	1f 4f       	sbci	r17, 0xFF	; 255
    2da6:	32 96       	adiw	r30, 0x02	; 2
    2da8:	05 30       	cpi	r16, 0x05	; 5
    2daa:	11 05       	cpc	r17, r1
    2dac:	09 f0       	breq	.+2      	; 0x2db0 <nextbyte206788+0x2c8>
    2dae:	9e cf       	rjmp	.-196    	; 0x2cec <nextbyte206788+0x204>
    2db0:	c1 ce       	rjmp	.-638    	; 0x2b34 <nextbyte206788+0x4c>
loop():
D:\KULIAH SEMESTER 4\LAB PROYEKSI ELEKTRONIKA\smart-drawer\firmware\atmega16\JAM DIGITAL\sketch_mar27a/sketch_mar27a.ino:242
    if (digitalRead(BTN_SET) == LOW) {
      beep();
      if (menu_pos == 0 && menu_aktif == 0) { menu_pos = 1; lcd.clear(); }
      else if (menu_aktif == 0 && menu_pos >= 1 && menu_pos <= 10) {
        menu_aktif = 1;
        if(menu_pos==1) edit_val = jam; else if(menu_pos==2) edit_val = menit;
    2db2:	82 30       	cpi	r24, 0x02	; 2
    2db4:	19 f4       	brne	.+6      	; 0x2dbc <nextbyte206788+0x2d4>
    2db6:	80 91 ff 01 	lds	r24, 0x01FF	; 0x8001ff <menit>
    2dba:	cb c1       	rjmp	.+918    	; 0x3152 <nextbyte206788+0x66a>
D:\KULIAH SEMESTER 4\LAB PROYEKSI ELEKTRONIKA\smart-drawer\firmware\atmega16\JAM DIGITAL\sketch_mar27a/sketch_mar27a.ino:243
        else if(menu_pos==3) edit_val = tgl; else if(menu_pos==4) edit_val = bln;
    2dbc:	83 30       	cpi	r24, 0x03	; 3
    2dbe:	19 f4       	brne	.+6      	; 0x2dc6 <nextbyte206788+0x2de>
    2dc0:	80 91 fd 01 	lds	r24, 0x01FD	; 0x8001fd <tgl>
    2dc4:	c6 c1       	rjmp	.+908    	; 0x3152 <nextbyte206788+0x66a>
    2dc6:	84 30       	cpi	r24, 0x04	; 4
    2dc8:	19 f4       	brne	.+6      	; 0x2dd0 <nextbyte206788+0x2e8>
    2dca:	80 91 fc 01 	lds	r24, 0x01FC	; 0x8001fc <bln>
    2dce:	c1 c1       	rjmp	.+898    	; 0x3152 <nextbyte206788+0x66a>
D:\KULIAH SEMESTER 4\LAB PROYEKSI ELEKTRONIKA\smart-drawer\firmware\atmega16\JAM DIGITAL\sketch_mar27a/sketch_mar27a.ino:244
        else if(menu_pos==5) edit_val = thn; else if(menu_pos==6) edit_val = alm_h;
    2dd0:	85 30       	cpi	r24, 0x05	; 5
    2dd2:	19 f4       	brne	.+6      	; 0x2dda <nextbyte206788+0x2f2>
    2dd4:	80 91 fa 01 	lds	r24, 0x01FA	; 0x8001fa <thn>
    2dd8:	bc c1       	rjmp	.+888    	; 0x3152 <nextbyte206788+0x66a>
    2dda:	86 30       	cpi	r24, 0x06	; 6
    2ddc:	19 f4       	brne	.+6      	; 0x2de4 <nextbyte206788+0x2fc>
    2dde:	80 91 f8 01 	lds	r24, 0x01F8	; 0x8001f8 <alm_h>
    2de2:	b7 c1       	rjmp	.+878    	; 0x3152 <nextbyte206788+0x66a>
D:\KULIAH SEMESTER 4\LAB PROYEKSI ELEKTRONIKA\smart-drawer\firmware\atmega16\JAM DIGITAL\sketch_mar27a/sketch_mar27a.ino:245
        else if(menu_pos==7) edit_val = alm_m; else if(menu_pos==8) edit_val = alm_on;
    2de4:	87 30       	cpi	r24, 0x07	; 7
    2de6:	19 f4       	brne	.+6      	; 0x2dee <nextbyte206788+0x306>
    2de8:	80 91 f7 01 	lds	r24, 0x01F7	; 0x8001f7 <alm_m>
    2dec:	b2 c1       	rjmp	.+868    	; 0x3152 <nextbyte206788+0x66a>
    2dee:	88 30       	cpi	r24, 0x08	; 8
    2df0:	19 f4       	brne	.+6      	; 0x2df8 <nextbyte206788+0x310>
    2df2:	80 91 f4 01 	lds	r24, 0x01F4	; 0x8001f4 <alm_on>
    2df6:	ad c1       	rjmp	.+858    	; 0x3152 <nextbyte206788+0x66a>
D:\KULIAH SEMESTER 4\LAB PROYEKSI ELEKTRONIKA\smart-drawer\firmware\atmega16\JAM DIGITAL\sketch_mar27a/sketch_mar27a.ino:246
        else if(menu_pos==9) edit_val = nada_alarm; else if(menu_pos==10) edit_val = mode_lampu;
    2df8:	89 30       	cpi	r24, 0x09	; 9
    2dfa:	19 f4       	brne	.+6      	; 0x2e02 <nextbyte206788+0x31a>
    2dfc:	80 91 f5 01 	lds	r24, 0x01F5	; 0x8001f5 <nada_alarm>
    2e00:	a8 c1       	rjmp	.+848    	; 0x3152 <nextbyte206788+0x66a>
    2e02:	80 91 f6 01 	lds	r24, 0x01F6	; 0x8001f6 <mode_lampu>
    2e06:	a5 c1       	rjmp	.+842    	; 0x3152 <nextbyte206788+0x66a>
D:\KULIAH SEMESTER 4\LAB PROYEKSI ELEKTRONIKA\smart-drawer\firmware\atmega16\JAM DIGITAL\sketch_mar27a/sketch_mar27a.ino:249
        lcd.clear();
      }
      else if (menu_aktif == 1) {
    2e08:	91 30       	cpi	r25, 0x01	; 1
    2e0a:	09 f0       	breq	.+2      	; 0x2e0e <nextbyte206788+0x326>
    2e0c:	d5 c0       	rjmp	.+426    	; 0x2fb8 <nextbyte206788+0x4d0>
simpan_data():
D:\KULIAH SEMESTER 4\LAB PROYEKSI ELEKTRONIKA\smart-drawer\firmware\atmega16\JAM DIGITAL\sketch_mar27a/sketch_mar27a.ino:397
    lcd.print(F("      "));
  }
}

void simpan_data() {
  if (menu_pos == 1) rtc.adjust(DateTime(2000+thn, bln, tgl, edit_val, menit, 0));
    2e0e:	81 30       	cpi	r24, 0x01	; 1
    2e10:	a9 f4       	brne	.+42     	; 0x2e3c <nextbyte206788+0x354>
    2e12:	40 91 ff 01 	lds	r20, 0x01FF	; 0x8001ff <menit>
    2e16:	50 91 ed 01 	lds	r21, 0x01ED	; 0x8001ed <edit_val>
    2e1a:	60 91 fd 01 	lds	r22, 0x01FD	; 0x8001fd <tgl>
    2e1e:	70 91 fc 01 	lds	r23, 0x01FC	; 0x8001fc <bln>
    2e22:	20 91 fa 01 	lds	r18, 0x01FA	; 0x8001fa <thn>
    2e26:	30 91 fb 01 	lds	r19, 0x01FB	; 0x8001fb <thn+0x1>
    2e2a:	c9 01       	movw	r24, r18
    2e2c:	80 53       	subi	r24, 0x30	; 48
    2e2e:	98 4f       	sbci	r25, 0xF8	; 248
__base_ctor ():
c:\Users\LENOVO\Documents\Arduino\libraries\RTClib\src/RTClib.cpp:204
    @param hour,min,sec Hour (0--23), minute (0--59) and second (0--59).
*/
/**************************************************************************/
DateTime::DateTime(uint16_t year, uint8_t month, uint8_t day, uint8_t hour,
                   uint8_t min, uint8_t sec) {
  if (year >= 2000U)
    2e30:	80 3d       	cpi	r24, 0xD0	; 208
    2e32:	a7 e0       	ldi	r26, 0x07	; 7
    2e34:	9a 07       	cpc	r25, r26
    2e36:	c0 f0       	brcs	.+48     	; 0x2e68 <nextbyte206788+0x380>
c:\Users\LENOVO\Documents\Arduino\libraries\RTClib\src/RTClib.cpp:205
    year -= 2000U;
    2e38:	c9 01       	movw	r24, r18
    2e3a:	16 c0       	rjmp	.+44     	; 0x2e68 <nextbyte206788+0x380>
simpan_data():
D:\KULIAH SEMESTER 4\LAB PROYEKSI ELEKTRONIKA\smart-drawer\firmware\atmega16\JAM DIGITAL\sketch_mar27a/sketch_mar27a.ino:398
  else if (menu_pos == 2) rtc.adjust(DateTime(2000+thn, bln, tgl, jam, edit_val, 0));
    2e3c:	82 30       	cpi	r24, 0x02	; 2
    2e3e:	09 f0       	breq	.+2      	; 0x2e42 <nextbyte206788+0x35a>
    2e40:	50 c0       	rjmp	.+160    	; 0x2ee2 <nextbyte206788+0x3fa>
    2e42:	40 91 ed 01 	lds	r20, 0x01ED	; 0x8001ed <edit_val>
    2e46:	50 91 00 02 	lds	r21, 0x0200	; 0x800200 <jam>
    2e4a:	60 91 fd 01 	lds	r22, 0x01FD	; 0x8001fd <tgl>
    2e4e:	70 91 fc 01 	lds	r23, 0x01FC	; 0x8001fc <bln>
    2e52:	20 91 fa 01 	lds	r18, 0x01FA	; 0x8001fa <thn>
    2e56:	30 91 fb 01 	lds	r19, 0x01FB	; 0x8001fb <thn+0x1>
    2e5a:	c9 01       	movw	r24, r18
    2e5c:	80 53       	subi	r24, 0x30	; 48
    2e5e:	98 4f       	sbci	r25, 0xF8	; 248
__base_ctor ():
c:\Users\LENOVO\Documents\Arduino\libraries\RTClib\src/RTClib.cpp:204
    @param hour,min,sec Hour (0--23), minute (0--59) and second (0--59).
*/
/**************************************************************************/
DateTime::DateTime(uint16_t year, uint8_t month, uint8_t day, uint8_t hour,
                   uint8_t min, uint8_t sec) {
  if (year >= 2000U)
    2e60:	80 3d       	cpi	r24, 0xD0	; 208
    2e62:	b7 e0       	ldi	r27, 0x07	; 7
    2e64:	9b 07       	cpc	r25, r27
    2e66:	40 f7       	brcc	.-48     	; 0x2e38 <nextbyte206788+0x350>
c:\Users\LENOVO\Documents\Arduino\libraries\RTClib\src/RTClib.cpp:206
    year -= 2000U;
  yOff = year;
    2e68:	89 83       	std	Y+1, r24	; 0x01
c:\Users\LENOVO\Documents\Arduino\libraries\RTClib\src/RTClib.cpp:207
  m = month;
    2e6a:	7a 83       	std	Y+2, r23	; 0x02
c:\Users\LENOVO\Documents\Arduino\libraries\RTClib\src/RTClib.cpp:208
  d = day;
    2e6c:	6b 83       	std	Y+3, r22	; 0x03
c:\Users\LENOVO\Documents\Arduino\libraries\RTClib\src/RTClib.cpp:209
  hh = hour;
    2e6e:	5c 83       	std	Y+4, r21	; 0x04
c:\Users\LENOVO\Documents\Arduino\libraries\RTClib\src/RTClib.cpp:210
  mm = min;
    2e70:	4d 83       	std	Y+5, r20	; 0x05
c:\Users\LENOVO\Documents\Arduino\libraries\RTClib\src/RTClib.cpp:211
  ss = sec;
    2e72:	1e 82       	std	Y+6, r1	; 0x06
simpan_data():
D:\KULIAH SEMESTER 4\LAB PROYEKSI ELEKTRONIKA\smart-drawer\firmware\atmega16\JAM DIGITAL\sketch_mar27a/sketch_mar27a.ino:401
  else if (menu_pos == 3) rtc.adjust(DateTime(2000+thn, bln, edit_val, jam, menit, 0));
  else if (menu_pos == 4) rtc.adjust(DateTime(2000+thn, edit_val, tgl, jam, menit, 0));
  else if (menu_pos == 5) rtc.adjust(DateTime(2000+edit_val, bln, tgl, jam, menit, 0));
    2e74:	ce 01       	movw	r24, r28
    2e76:	01 96       	adiw	r24, 0x01	; 1
    2e78:	0e 94 16 07 	call	0xe2c	; 0xe2c <RTC_DS1307::adjust(DateTime const&) [clone .constprop.44]>
D:\KULIAH SEMESTER 4\LAB PROYEKSI ELEKTRONIKA\smart-drawer\firmware\atmega16\JAM DIGITAL\sketch_mar27a/sketch_mar27a.ino:408
  else if (menu_pos == 7) alm_m = edit_val;
  else if (menu_pos == 8) alm_on = edit_val;
  else if (menu_pos == 9) nada_alarm = edit_val;
  else if (menu_pos == 10) mode_lampu = edit_val;

  EEPROM.write(10, mode_lampu); EEPROM.write(11, alm_h);
    2e7c:	60 91 f6 01 	lds	r22, 0x01F6	; 0x8001f6 <mode_lampu>
    2e80:	8a e0       	ldi	r24, 0x0A	; 10
    2e82:	90 e0       	ldi	r25, 0x00	; 0
    2e84:	0e 94 e3 09 	call	0x13c6	; 0x13c6 <EEPROMClass::write(int, unsigned char) [clone .isra.9]>
    2e88:	60 91 f8 01 	lds	r22, 0x01F8	; 0x8001f8 <alm_h>
    2e8c:	8b e0       	ldi	r24, 0x0B	; 11
    2e8e:	90 e0       	ldi	r25, 0x00	; 0
    2e90:	0e 94 e3 09 	call	0x13c6	; 0x13c6 <EEPROMClass::write(int, unsigned char) [clone .isra.9]>
D:\KULIAH SEMESTER 4\LAB PROYEKSI ELEKTRONIKA\smart-drawer\firmware\atmega16\JAM DIGITAL\sketch_mar27a/sketch_mar27a.ino:409
  EEPROM.write(12, alm_m); EEPROM.write(13, alm_on);
    2e94:	60 91 f7 01 	lds	r22, 0x01F7	; 0x8001f7 <alm_m>
    2e98:	8c e0       	ldi	r24, 0x0C	; 12
    2e9a:	90 e0       	ldi	r25, 0x00	; 0
    2e9c:	0e 94 e3 09 	call	0x13c6	; 0x13c6 <EEPROMClass::write(int, unsigned char) [clone .isra.9]>
    2ea0:	60 91 f4 01 	lds	r22, 0x01F4	; 0x8001f4 <alm_on>
    2ea4:	8d e0       	ldi	r24, 0x0D	; 13
    2ea6:	90 e0       	ldi	r25, 0x00	; 0
    2ea8:	0e 94 e3 09 	call	0x13c6	; 0x13c6 <EEPROMClass::write(int, unsigned char) [clone .isra.9]>
D:\KULIAH SEMESTER 4\LAB PROYEKSI ELEKTRONIKA\smart-drawer\firmware\atmega16\JAM DIGITAL\sketch_mar27a/sketch_mar27a.ino:410
  EEPROM.write(14, nada_alarm);
    2eac:	60 91 f5 01 	lds	r22, 0x01F5	; 0x8001f5 <nada_alarm>
    2eb0:	8e e0       	ldi	r24, 0x0E	; 14
    2eb2:	90 e0       	ldi	r25, 0x00	; 0
    2eb4:	0e 94 e3 09 	call	0x13c6	; 0x13c6 <EEPROMClass::write(int, unsigned char) [clone .isra.9]>
D:\KULIAH SEMESTER 4\LAB PROYEKSI ELEKTRONIKA\smart-drawer\firmware\atmega16\JAM DIGITAL\sketch_mar27a/sketch_mar27a.ino:411
  lcd.clear(); lcd.setCursor(4, 0); lcd.print(F("SAVED!")); delay(800);
    2eb8:	0e 94 f5 06 	call	0xdea	; 0xdea <LiquidCrystal_I2C::clear() [clone .constprop.46]>
    2ebc:	60 e0       	ldi	r22, 0x00	; 0
    2ebe:	84 e0       	ldi	r24, 0x04	; 4
    2ec0:	0e 94 c2 06 	call	0xd84	; 0xd84 <LiquidCrystal_I2C::setCursor(unsigned char, unsigned char) [clone .constprop.47]>
    2ec4:	6c e4       	ldi	r22, 0x4C	; 76
    2ec6:	73 e0       	ldi	r23, 0x03	; 3
    2ec8:	8e ef       	ldi	r24, 0xFE	; 254
    2eca:	92 e0       	ldi	r25, 0x02	; 2
    2ecc:	0e 94 53 04 	call	0x8a6	; 0x8a6 <Print::print(__FlashStringHelper const*)>
    2ed0:	60 e2       	ldi	r22, 0x20	; 32
    2ed2:	73 e0       	ldi	r23, 0x03	; 3
    2ed4:	80 e0       	ldi	r24, 0x00	; 0
    2ed6:	90 e0       	ldi	r25, 0x00	; 0
    2ed8:	0e 94 1a 04 	call	0x834	; 0x834 <delay>
loop():
D:\KULIAH SEMESTER 4\LAB PROYEKSI ELEKTRONIKA\smart-drawer\firmware\atmega16\JAM DIGITAL\sketch_mar27a/sketch_mar27a.ino:252
        lcd.clear();
      }
      else if (menu_aktif == 1) {
        simpan_data(); menu_aktif = 0; lcd.clear();
      }
      else if (menu_pos == 11) { menu_pos = 0; menu_aktif = 0; lcd.clear(); }
    2edc:	10 92 ee 01 	sts	0x01EE, r1	; 0x8001ee <menu_aktif>
    2ee0:	46 ce       	rjmp	.-884    	; 0x2b6e <nextbyte206788+0x86>
simpan_data():
D:\KULIAH SEMESTER 4\LAB PROYEKSI ELEKTRONIKA\smart-drawer\firmware\atmega16\JAM DIGITAL\sketch_mar27a/sketch_mar27a.ino:399
}

void simpan_data() {
  if (menu_pos == 1) rtc.adjust(DateTime(2000+thn, bln, tgl, edit_val, menit, 0));
  else if (menu_pos == 2) rtc.adjust(DateTime(2000+thn, bln, tgl, jam, edit_val, 0));
  else if (menu_pos == 3) rtc.adjust(DateTime(2000+thn, bln, edit_val, jam, menit, 0));
    2ee2:	83 30       	cpi	r24, 0x03	; 3
    2ee4:	a9 f4       	brne	.+42     	; 0x2f10 <nextbyte206788+0x428>
    2ee6:	40 91 ff 01 	lds	r20, 0x01FF	; 0x8001ff <menit>
    2eea:	50 91 00 02 	lds	r21, 0x0200	; 0x800200 <jam>
    2eee:	60 91 ed 01 	lds	r22, 0x01ED	; 0x8001ed <edit_val>
    2ef2:	70 91 fc 01 	lds	r23, 0x01FC	; 0x8001fc <bln>
    2ef6:	20 91 fa 01 	lds	r18, 0x01FA	; 0x8001fa <thn>
    2efa:	30 91 fb 01 	lds	r19, 0x01FB	; 0x8001fb <thn+0x1>
    2efe:	c9 01       	movw	r24, r18
    2f00:	80 53       	subi	r24, 0x30	; 48
    2f02:	98 4f       	sbci	r25, 0xF8	; 248
__base_ctor ():
c:\Users\LENOVO\Documents\Arduino\libraries\RTClib\src/RTClib.cpp:204
    @param hour,min,sec Hour (0--23), minute (0--59) and second (0--59).
*/
/**************************************************************************/
DateTime::DateTime(uint16_t year, uint8_t month, uint8_t day, uint8_t hour,
                   uint8_t min, uint8_t sec) {
  if (year >= 2000U)
    2f04:	80 3d       	cpi	r24, 0xD0	; 208
    2f06:	e7 e0       	ldi	r30, 0x07	; 7
    2f08:	9e 07       	cpc	r25, r30
    2f0a:	08 f0       	brcs	.+2      	; 0x2f0e <nextbyte206788+0x426>
    2f0c:	95 cf       	rjmp	.-214    	; 0x2e38 <nextbyte206788+0x350>
    2f0e:	ac cf       	rjmp	.-168    	; 0x2e68 <nextbyte206788+0x380>
simpan_data():
D:\KULIAH SEMESTER 4\LAB PROYEKSI ELEKTRONIKA\smart-drawer\firmware\atmega16\JAM DIGITAL\sketch_mar27a/sketch_mar27a.ino:400
  else if (menu_pos == 4) rtc.adjust(DateTime(2000+thn, edit_val, tgl, jam, menit, 0));
    2f10:	84 30       	cpi	r24, 0x04	; 4
    2f12:	a9 f4       	brne	.+42     	; 0x2f3e <nextbyte206788+0x456>
    2f14:	40 91 ff 01 	lds	r20, 0x01FF	; 0x8001ff <menit>
    2f18:	50 91 00 02 	lds	r21, 0x0200	; 0x800200 <jam>
    2f1c:	60 91 fd 01 	lds	r22, 0x01FD	; 0x8001fd <tgl>
    2f20:	70 91 ed 01 	lds	r23, 0x01ED	; 0x8001ed <edit_val>
    2f24:	20 91 fa 01 	lds	r18, 0x01FA	; 0x8001fa <thn>
    2f28:	30 91 fb 01 	lds	r19, 0x01FB	; 0x8001fb <thn+0x1>
    2f2c:	c9 01       	movw	r24, r18
    2f2e:	80 53       	subi	r24, 0x30	; 48
    2f30:	98 4f       	sbci	r25, 0xF8	; 248
__base_ctor ():
c:\Users\LENOVO\Documents\Arduino\libraries\RTClib\src/RTClib.cpp:204
    2f32:	80 3d       	cpi	r24, 0xD0	; 208
    2f34:	f7 e0       	ldi	r31, 0x07	; 7
    2f36:	9f 07       	cpc	r25, r31
    2f38:	08 f0       	brcs	.+2      	; 0x2f3c <nextbyte206788+0x454>
    2f3a:	7e cf       	rjmp	.-260    	; 0x2e38 <nextbyte206788+0x350>
    2f3c:	95 cf       	rjmp	.-214    	; 0x2e68 <nextbyte206788+0x380>
simpan_data():
D:\KULIAH SEMESTER 4\LAB PROYEKSI ELEKTRONIKA\smart-drawer\firmware\atmega16\JAM DIGITAL\sketch_mar27a/sketch_mar27a.ino:401
  else if (menu_pos == 5) rtc.adjust(DateTime(2000+edit_val, bln, tgl, jam, menit, 0));
    2f3e:	85 30       	cpi	r24, 0x05	; 5
    2f40:	b9 f4       	brne	.+46     	; 0x2f70 <nextbyte206788+0x488>
    2f42:	40 91 ff 01 	lds	r20, 0x01FF	; 0x8001ff <menit>
    2f46:	50 91 00 02 	lds	r21, 0x0200	; 0x800200 <jam>
    2f4a:	60 91 fd 01 	lds	r22, 0x01FD	; 0x8001fd <tgl>
    2f4e:	70 91 fc 01 	lds	r23, 0x01FC	; 0x8001fc <bln>
    2f52:	80 91 ed 01 	lds	r24, 0x01ED	; 0x8001ed <edit_val>
    2f56:	08 2e       	mov	r0, r24
    2f58:	00 0c       	add	r0, r0
    2f5a:	99 0b       	sbc	r25, r25
    2f5c:	9c 01       	movw	r18, r24
    2f5e:	20 53       	subi	r18, 0x30	; 48
    2f60:	38 4f       	sbci	r19, 0xF8	; 248
__base_ctor ():
c:\Users\LENOVO\Documents\Arduino\libraries\RTClib\src/RTClib.cpp:204
    2f62:	20 3d       	cpi	r18, 0xD0	; 208
    2f64:	a7 e0       	ldi	r26, 0x07	; 7
    2f66:	3a 07       	cpc	r19, r26
    2f68:	0c f0       	brlt	.+2      	; 0x2f6c <nextbyte206788+0x484>
c:\Users\LENOVO\Documents\Arduino\libraries\RTClib\src/RTClib.cpp:205
    year -= 2000U;
    2f6a:	9c 01       	movw	r18, r24
c:\Users\LENOVO\Documents\Arduino\libraries\RTClib\src/RTClib.cpp:206
  yOff = year;
    2f6c:	29 83       	std	Y+1, r18	; 0x01
    2f6e:	7d cf       	rjmp	.-262    	; 0x2e6a <nextbyte206788+0x382>
simpan_data():
D:\KULIAH SEMESTER 4\LAB PROYEKSI ELEKTRONIKA\smart-drawer\firmware\atmega16\JAM DIGITAL\sketch_mar27a/sketch_mar27a.ino:402
  else if (menu_pos == 6) alm_h = edit_val;
    2f70:	86 30       	cpi	r24, 0x06	; 6
    2f72:	29 f4       	brne	.+10     	; 0x2f7e <nextbyte206788+0x496>
    2f74:	80 91 ed 01 	lds	r24, 0x01ED	; 0x8001ed <edit_val>
    2f78:	80 93 f8 01 	sts	0x01F8, r24	; 0x8001f8 <alm_h>
    2f7c:	7f cf       	rjmp	.-258    	; 0x2e7c <nextbyte206788+0x394>
D:\KULIAH SEMESTER 4\LAB PROYEKSI ELEKTRONIKA\smart-drawer\firmware\atmega16\JAM DIGITAL\sketch_mar27a/sketch_mar27a.ino:403
  else if (menu_pos == 7) alm_m = edit_val;
    2f7e:	87 30       	cpi	r24, 0x07	; 7
    2f80:	29 f4       	brne	.+10     	; 0x2f8c <nextbyte206788+0x4a4>
    2f82:	80 91 ed 01 	lds	r24, 0x01ED	; 0x8001ed <edit_val>
    2f86:	80 93 f7 01 	sts	0x01F7, r24	; 0x8001f7 <alm_m>
    2f8a:	78 cf       	rjmp	.-272    	; 0x2e7c <nextbyte206788+0x394>
D:\KULIAH SEMESTER 4\LAB PROYEKSI ELEKTRONIKA\smart-drawer\firmware\atmega16\JAM DIGITAL\sketch_mar27a/sketch_mar27a.ino:404
  else if (menu_pos == 8) alm_on = edit_val;
    2f8c:	88 30       	cpi	r24, 0x08	; 8
    2f8e:	29 f4       	brne	.+10     	; 0x2f9a <nextbyte206788+0x4b2>
    2f90:	80 91 ed 01 	lds	r24, 0x01ED	; 0x8001ed <edit_val>
    2f94:	80 93 f4 01 	sts	0x01F4, r24	; 0x8001f4 <alm_on>
    2f98:	71 cf       	rjmp	.-286    	; 0x2e7c <nextbyte206788+0x394>
D:\KULIAH SEMESTER 4\LAB PROYEKSI ELEKTRONIKA\smart-drawer\firmware\atmega16\JAM DIGITAL\sketch_mar27a/sketch_mar27a.ino:405
  else if (menu_pos == 9) nada_alarm = edit_val;
    2f9a:	89 30       	cpi	r24, 0x09	; 9
    2f9c:	29 f4       	brne	.+10     	; 0x2fa8 <nextbyte206788+0x4c0>
    2f9e:	80 91 ed 01 	lds	r24, 0x01ED	; 0x8001ed <edit_val>
    2fa2:	80 93 f5 01 	sts	0x01F5, r24	; 0x8001f5 <nada_alarm>
    2fa6:	6a cf       	rjmp	.-300    	; 0x2e7c <nextbyte206788+0x394>
D:\KULIAH SEMESTER 4\LAB PROYEKSI ELEKTRONIKA\smart-drawer\firmware\atmega16\JAM DIGITAL\sketch_mar27a/sketch_mar27a.ino:406
  else if (menu_pos == 10) mode_lampu = edit_val;
    2fa8:	8a 30       	cpi	r24, 0x0A	; 10
    2faa:	09 f0       	breq	.+2      	; 0x2fae <nextbyte206788+0x4c6>
    2fac:	67 cf       	rjmp	.-306    	; 0x2e7c <nextbyte206788+0x394>
    2fae:	80 91 ed 01 	lds	r24, 0x01ED	; 0x8001ed <edit_val>
    2fb2:	80 93 f6 01 	sts	0x01F6, r24	; 0x8001f6 <mode_lampu>
    2fb6:	62 cf       	rjmp	.-316    	; 0x2e7c <nextbyte206788+0x394>
loop():
D:\KULIAH SEMESTER 4\LAB PROYEKSI ELEKTRONIKA\smart-drawer\firmware\atmega16\JAM DIGITAL\sketch_mar27a/sketch_mar27a.ino:252
        lcd.clear();
      }
      else if (menu_aktif == 1) {
        simpan_data(); menu_aktif = 0; lcd.clear();
      }
      else if (menu_pos == 11) { menu_pos = 0; menu_aktif = 0; lcd.clear(); }
    2fb8:	8b 30       	cpi	r24, 0x0B	; 11
    2fba:	09 f0       	breq	.+2      	; 0x2fbe <nextbyte206788+0x4d6>
    2fbc:	da cd       	rjmp	.-1100   	; 0x2b72 <nextbyte206788+0x8a>
    2fbe:	10 92 ef 01 	sts	0x01EF, r1	; 0x8001ef <menu_pos>
    2fc2:	8c cf       	rjmp	.-232    	; 0x2edc <nextbyte206788+0x3f4>
D:\KULIAH SEMESTER 4\LAB PROYEKSI ELEKTRONIKA\smart-drawer\firmware\atmega16\JAM DIGITAL\sketch_mar27a/sketch_mar27a.ino:262
//tombol up
  if (digitalRead(BTN_UP) == LOW) {
    delay(30); if(digitalRead(BTN_UP) == LOW){
      beep();
      if(menu_aktif == 0){
        menu_pos++; if (menu_pos > 11) menu_pos = 0; lcd.clear();
    2fc4:	10 92 ef 01 	sts	0x01EF, r1	; 0x8001ef <menu_pos>
    2fc8:	f9 cd       	rjmp	.-1038   	; 0x2bbc <nextbyte206788+0xd4>
D:\KULIAH SEMESTER 4\LAB PROYEKSI ELEKTRONIKA\smart-drawer\firmware\atmega16\JAM DIGITAL\sketch_mar27a/sketch_mar27a.ino:264
      } else {
        edit_val++; 
    2fca:	90 91 ed 01 	lds	r25, 0x01ED	; 0x8001ed <edit_val>
    2fce:	9f 5f       	subi	r25, 0xFF	; 255
    2fd0:	90 93 ed 01 	sts	0x01ED, r25	; 0x8001ed <edit_val>
D:\KULIAH SEMESTER 4\LAB PROYEKSI ELEKTRONIKA\smart-drawer\firmware\atmega16\JAM DIGITAL\sketch_mar27a/sketch_mar27a.ino:265
        if (menu_pos==1 && edit_val>23) edit_val=0; if (menu_pos==2 && edit_val>59) edit_val=0;
    2fd4:	81 30       	cpi	r24, 0x01	; 1
    2fd6:	21 f4       	brne	.+8      	; 0x2fe0 <nextbyte206788+0x4f8>
D:\KULIAH SEMESTER 4\LAB PROYEKSI ELEKTRONIKA\smart-drawer\firmware\atmega16\JAM DIGITAL\sketch_mar27a/sketch_mar27a.ino:267
        if (menu_pos==3 && edit_val>31) edit_val=1; if (menu_pos==4 && edit_val>12) edit_val=1;
        if (menu_pos==5 && edit_val>99) edit_val=0; if (menu_pos==6 && edit_val>23) edit_val=0;
    2fd8:	98 31       	cpi	r25, 0x18	; 24
    2fda:	0c f4       	brge	.+2      	; 0x2fde <nextbyte206788+0x4f6>
    2fdc:	f1 cd       	rjmp	.-1054   	; 0x2bc0 <nextbyte206788+0xd8>
    2fde:	05 c0       	rjmp	.+10     	; 0x2fea <nextbyte206788+0x502>
D:\KULIAH SEMESTER 4\LAB PROYEKSI ELEKTRONIKA\smart-drawer\firmware\atmega16\JAM DIGITAL\sketch_mar27a/sketch_mar27a.ino:265
      beep();
      if(menu_aktif == 0){
        menu_pos++; if (menu_pos > 11) menu_pos = 0; lcd.clear();
      } else {
        edit_val++; 
        if (menu_pos==1 && edit_val>23) edit_val=0; if (menu_pos==2 && edit_val>59) edit_val=0;
    2fe0:	82 30       	cpi	r24, 0x02	; 2
    2fe2:	31 f4       	brne	.+12     	; 0x2ff0 <nextbyte206788+0x508>
    2fe4:	9c 33       	cpi	r25, 0x3C	; 60
    2fe6:	0c f4       	brge	.+2      	; 0x2fea <nextbyte206788+0x502>
    2fe8:	eb cd       	rjmp	.-1066   	; 0x2bc0 <nextbyte206788+0xd8>
D:\KULIAH SEMESTER 4\LAB PROYEKSI ELEKTRONIKA\smart-drawer\firmware\atmega16\JAM DIGITAL\sketch_mar27a/sketch_mar27a.ino:269
        if (menu_pos==3 && edit_val>31) edit_val=1; if (menu_pos==4 && edit_val>12) edit_val=1;
        if (menu_pos==5 && edit_val>99) edit_val=0; if (menu_pos==6 && edit_val>23) edit_val=0;
        if (menu_pos==7 && edit_val>59) edit_val=0; if (menu_pos==8 && edit_val>1) edit_val=0;
        if (menu_pos==9 && edit_val>5) edit_val=1; if (menu_pos==10 && edit_val>11) edit_val=0;
    2fea:	10 92 ed 01 	sts	0x01ED, r1	; 0x8001ed <edit_val>
    2fee:	e8 cd       	rjmp	.-1072   	; 0x2bc0 <nextbyte206788+0xd8>
D:\KULIAH SEMESTER 4\LAB PROYEKSI ELEKTRONIKA\smart-drawer\firmware\atmega16\JAM DIGITAL\sketch_mar27a/sketch_mar27a.ino:266
      if(menu_aktif == 0){
        menu_pos++; if (menu_pos > 11) menu_pos = 0; lcd.clear();
      } else {
        edit_val++; 
        if (menu_pos==1 && edit_val>23) edit_val=0; if (menu_pos==2 && edit_val>59) edit_val=0;
        if (menu_pos==3 && edit_val>31) edit_val=1; if (menu_pos==4 && edit_val>12) edit_val=1;
    2ff0:	83 30       	cpi	r24, 0x03	; 3
    2ff2:	09 f0       	breq	.+2      	; 0x2ff6 <nextbyte206788+0x50e>
    2ff4:	6b c0       	rjmp	.+214    	; 0x30cc <nextbyte206788+0x5e4>
    2ff6:	90 32       	cpi	r25, 0x20	; 32
    2ff8:	0c f4       	brge	.+2      	; 0x2ffc <nextbyte206788+0x514>
    2ffa:	e2 cd       	rjmp	.-1084   	; 0x2bc0 <nextbyte206788+0xd8>
D:\KULIAH SEMESTER 4\LAB PROYEKSI ELEKTRONIKA\smart-drawer\firmware\atmega16\JAM DIGITAL\sketch_mar27a/sketch_mar27a.ino:269
        if (menu_pos==5 && edit_val>99) edit_val=0; if (menu_pos==6 && edit_val>23) edit_val=0;
        if (menu_pos==7 && edit_val>59) edit_val=0; if (menu_pos==8 && edit_val>1) edit_val=0;
        if (menu_pos==9 && edit_val>5) edit_val=1; if (menu_pos==10 && edit_val>11) edit_val=0;
    2ffc:	81 e0       	ldi	r24, 0x01	; 1
    2ffe:	80 93 ed 01 	sts	0x01ED, r24	; 0x8001ed <edit_val>
    3002:	de cd       	rjmp	.-1092   	; 0x2bc0 <nextbyte206788+0xd8>
D:\KULIAH SEMESTER 4\LAB PROYEKSI ELEKTRONIKA\smart-drawer\firmware\atmega16\JAM DIGITAL\sketch_mar27a/sketch_mar27a.ino:266
      if(menu_aktif == 0){
        menu_pos++; if (menu_pos > 11) menu_pos = 0; lcd.clear();
      } else {
        edit_val++; 
        if (menu_pos==1 && edit_val>23) edit_val=0; if (menu_pos==2 && edit_val>59) edit_val=0;
        if (menu_pos==3 && edit_val>31) edit_val=1; if (menu_pos==4 && edit_val>12) edit_val=1;
    3004:	9d 30       	cpi	r25, 0x0D	; 13
    3006:	0c f4       	brge	.+2      	; 0x300a <nextbyte206788+0x522>
    3008:	db cd       	rjmp	.-1098   	; 0x2bc0 <nextbyte206788+0xd8>
    300a:	f8 cf       	rjmp	.-16     	; 0x2ffc <nextbyte206788+0x514>
D:\KULIAH SEMESTER 4\LAB PROYEKSI ELEKTRONIKA\smart-drawer\firmware\atmega16\JAM DIGITAL\sketch_mar27a/sketch_mar27a.ino:267
        if (menu_pos==5 && edit_val>99) edit_val=0; if (menu_pos==6 && edit_val>23) edit_val=0;
    300c:	94 36       	cpi	r25, 0x64	; 100
    300e:	0c f4       	brge	.+2      	; 0x3012 <nextbyte206788+0x52a>
    3010:	d7 cd       	rjmp	.-1106   	; 0x2bc0 <nextbyte206788+0xd8>
    3012:	eb cf       	rjmp	.-42     	; 0x2fea <nextbyte206788+0x502>
D:\KULIAH SEMESTER 4\LAB PROYEKSI ELEKTRONIKA\smart-drawer\firmware\atmega16\JAM DIGITAL\sketch_mar27a/sketch_mar27a.ino:268
        if (menu_pos==7 && edit_val>59) edit_val=0; if (menu_pos==8 && edit_val>1) edit_val=0;
    3014:	80 91 ed 01 	lds	r24, 0x01ED	; 0x8001ed <edit_val>
    3018:	8c 33       	cpi	r24, 0x3C	; 60
    301a:	0c f4       	brge	.+2      	; 0x301e <nextbyte206788+0x536>
    301c:	d1 cd       	rjmp	.-1118   	; 0x2bc0 <nextbyte206788+0xd8>
    301e:	e5 cf       	rjmp	.-54     	; 0x2fea <nextbyte206788+0x502>
    3020:	80 91 ed 01 	lds	r24, 0x01ED	; 0x8001ed <edit_val>
    3024:	82 30       	cpi	r24, 0x02	; 2
    3026:	0c f7       	brge	.-62     	; 0x2fea <nextbyte206788+0x502>
    3028:	cb cd       	rjmp	.-1130   	; 0x2bc0 <nextbyte206788+0xd8>
D:\KULIAH SEMESTER 4\LAB PROYEKSI ELEKTRONIKA\smart-drawer\firmware\atmega16\JAM DIGITAL\sketch_mar27a/sketch_mar27a.ino:269
        if (menu_pos==9 && edit_val>5) edit_val=1; if (menu_pos==10 && edit_val>11) edit_val=0;
    302a:	80 91 ed 01 	lds	r24, 0x01ED	; 0x8001ed <edit_val>
    302e:	86 30       	cpi	r24, 0x06	; 6
    3030:	0c f4       	brge	.+2      	; 0x3034 <nextbyte206788+0x54c>
    3032:	c6 cd       	rjmp	.-1140   	; 0x2bc0 <nextbyte206788+0xd8>
    3034:	e3 cf       	rjmp	.-58     	; 0x2ffc <nextbyte206788+0x514>
D:\KULIAH SEMESTER 4\LAB PROYEKSI ELEKTRONIKA\smart-drawer\firmware\atmega16\JAM DIGITAL\sketch_mar27a/sketch_mar27a.ino:279
//tombol down
  if (digitalRead(BTN_DOWN) == LOW) {
    delay(30); if(digitalRead(BTN_DOWN) == LOW){
      beep();
      if(menu_aktif == 0){
        if (menu_pos == 0) menu_pos = 11; else menu_pos--; lcd.clear();
    3036:	81 50       	subi	r24, 0x01	; 1
    3038:	e5 cd       	rjmp	.-1078   	; 0x2c04 <nextbyte206788+0x11c>
D:\KULIAH SEMESTER 4\LAB PROYEKSI ELEKTRONIKA\smart-drawer\firmware\atmega16\JAM DIGITAL\sketch_mar27a/sketch_mar27a.ino:281
      } else {
        edit_val--;
    303a:	90 91 ed 01 	lds	r25, 0x01ED	; 0x8001ed <edit_val>
    303e:	91 50       	subi	r25, 0x01	; 1
    3040:	90 93 ed 01 	sts	0x01ED, r25	; 0x8001ed <edit_val>
D:\KULIAH SEMESTER 4\LAB PROYEKSI ELEKTRONIKA\smart-drawer\firmware\atmega16\JAM DIGITAL\sketch_mar27a/sketch_mar27a.ino:282
        if (menu_pos==1 && edit_val<0) edit_val=23; if (menu_pos==2 && edit_val<0) edit_val=59;
    3044:	81 30       	cpi	r24, 0x01	; 1
    3046:	21 f4       	brne	.+8      	; 0x3050 <nextbyte206788+0x568>
D:\KULIAH SEMESTER 4\LAB PROYEKSI ELEKTRONIKA\smart-drawer\firmware\atmega16\JAM DIGITAL\sketch_mar27a/sketch_mar27a.ino:284
        if (menu_pos==3 && edit_val<1) edit_val=31; if (menu_pos==4 && edit_val<1) edit_val=12;
        if (menu_pos==5 && edit_val<0) edit_val=99; if (menu_pos==6 && edit_val<0) edit_val=23;
    3048:	87 e1       	ldi	r24, 0x17	; 23
    304a:	97 fd       	sbrc	r25, 7
    304c:	0e c0       	rjmp	.+28     	; 0x306a <nextbyte206788+0x582>
    304e:	de cd       	rjmp	.-1092   	; 0x2c0c <nextbyte206788+0x124>
D:\KULIAH SEMESTER 4\LAB PROYEKSI ELEKTRONIKA\smart-drawer\firmware\atmega16\JAM DIGITAL\sketch_mar27a/sketch_mar27a.ino:282
      beep();
      if(menu_aktif == 0){
        if (menu_pos == 0) menu_pos = 11; else menu_pos--; lcd.clear();
      } else {
        edit_val--;
        if (menu_pos==1 && edit_val<0) edit_val=23; if (menu_pos==2 && edit_val<0) edit_val=59;
    3050:	82 30       	cpi	r24, 0x02	; 2
    3052:	21 f4       	brne	.+8      	; 0x305c <nextbyte206788+0x574>
    3054:	97 ff       	sbrs	r25, 7
    3056:	da cd       	rjmp	.-1100   	; 0x2c0c <nextbyte206788+0x124>
D:\KULIAH SEMESTER 4\LAB PROYEKSI ELEKTRONIKA\smart-drawer\firmware\atmega16\JAM DIGITAL\sketch_mar27a/sketch_mar27a.ino:285
        if (menu_pos==3 && edit_val<1) edit_val=31; if (menu_pos==4 && edit_val<1) edit_val=12;
        if (menu_pos==5 && edit_val<0) edit_val=99; if (menu_pos==6 && edit_val<0) edit_val=23;
        if (menu_pos==7 && edit_val<0) edit_val=59; if (menu_pos==8 && edit_val<0) edit_val=1;
    3058:	8b e3       	ldi	r24, 0x3B	; 59
    305a:	07 c0       	rjmp	.+14     	; 0x306a <nextbyte206788+0x582>
D:\KULIAH SEMESTER 4\LAB PROYEKSI ELEKTRONIKA\smart-drawer\firmware\atmega16\JAM DIGITAL\sketch_mar27a/sketch_mar27a.ino:283
      if(menu_aktif == 0){
        if (menu_pos == 0) menu_pos = 11; else menu_pos--; lcd.clear();
      } else {
        edit_val--;
        if (menu_pos==1 && edit_val<0) edit_val=23; if (menu_pos==2 && edit_val<0) edit_val=59;
        if (menu_pos==3 && edit_val<1) edit_val=31; if (menu_pos==4 && edit_val<1) edit_val=12;
    305c:	83 30       	cpi	r24, 0x03	; 3
    305e:	09 f0       	breq	.+2      	; 0x3062 <nextbyte206788+0x57a>
    3060:	50 c0       	rjmp	.+160    	; 0x3102 <nextbyte206788+0x61a>
    3062:	8f e1       	ldi	r24, 0x1F	; 31
    3064:	19 16       	cp	r1, r25
    3066:	0c f4       	brge	.+2      	; 0x306a <nextbyte206788+0x582>
    3068:	d1 cd       	rjmp	.-1118   	; 0x2c0c <nextbyte206788+0x124>
D:\KULIAH SEMESTER 4\LAB PROYEKSI ELEKTRONIKA\smart-drawer\firmware\atmega16\JAM DIGITAL\sketch_mar27a/sketch_mar27a.ino:286
        if (menu_pos==5 && edit_val<0) edit_val=99; if (menu_pos==6 && edit_val<0) edit_val=23;
        if (menu_pos==7 && edit_val<0) edit_val=59; if (menu_pos==8 && edit_val<0) edit_val=1;
        if (menu_pos==9 && edit_val<1) edit_val=5; if (menu_pos==10 && edit_val<0) edit_val=11;
    306a:	80 93 ed 01 	sts	0x01ED, r24	; 0x8001ed <edit_val>
    306e:	ce cd       	rjmp	.-1124   	; 0x2c0c <nextbyte206788+0x124>
D:\KULIAH SEMESTER 4\LAB PROYEKSI ELEKTRONIKA\smart-drawer\firmware\atmega16\JAM DIGITAL\sketch_mar27a/sketch_mar27a.ino:283
      if(menu_aktif == 0){
        if (menu_pos == 0) menu_pos = 11; else menu_pos--; lcd.clear();
      } else {
        edit_val--;
        if (menu_pos==1 && edit_val<0) edit_val=23; if (menu_pos==2 && edit_val<0) edit_val=59;
        if (menu_pos==3 && edit_val<1) edit_val=31; if (menu_pos==4 && edit_val<1) edit_val=12;
    3070:	8c e0       	ldi	r24, 0x0C	; 12
    3072:	19 16       	cp	r1, r25
    3074:	0c f4       	brge	.+2      	; 0x3078 <nextbyte206788+0x590>
    3076:	ca cd       	rjmp	.-1132   	; 0x2c0c <nextbyte206788+0x124>
    3078:	f8 cf       	rjmp	.-16     	; 0x306a <nextbyte206788+0x582>
D:\KULIAH SEMESTER 4\LAB PROYEKSI ELEKTRONIKA\smart-drawer\firmware\atmega16\JAM DIGITAL\sketch_mar27a/sketch_mar27a.ino:284
        if (menu_pos==5 && edit_val<0) edit_val=99; if (menu_pos==6 && edit_val<0) edit_val=23;
    307a:	83 e6       	ldi	r24, 0x63	; 99
    307c:	97 fd       	sbrc	r25, 7
    307e:	f5 cf       	rjmp	.-22     	; 0x306a <nextbyte206788+0x582>
    3080:	c5 cd       	rjmp	.-1142   	; 0x2c0c <nextbyte206788+0x124>
D:\KULIAH SEMESTER 4\LAB PROYEKSI ELEKTRONIKA\smart-drawer\firmware\atmega16\JAM DIGITAL\sketch_mar27a/sketch_mar27a.ino:285
        if (menu_pos==7 && edit_val<0) edit_val=59; if (menu_pos==8 && edit_val<0) edit_val=1;
    3082:	80 91 ed 01 	lds	r24, 0x01ED	; 0x8001ed <edit_val>
    3086:	87 ff       	sbrs	r24, 7
    3088:	c1 cd       	rjmp	.-1150   	; 0x2c0c <nextbyte206788+0x124>
    308a:	e6 cf       	rjmp	.-52     	; 0x3058 <nextbyte206788+0x570>
    308c:	80 91 ed 01 	lds	r24, 0x01ED	; 0x8001ed <edit_val>
    3090:	87 ff       	sbrs	r24, 7
    3092:	bc cd       	rjmp	.-1160   	; 0x2c0c <nextbyte206788+0x124>
    3094:	81 e0       	ldi	r24, 0x01	; 1
    3096:	e9 cf       	rjmp	.-46     	; 0x306a <nextbyte206788+0x582>
D:\KULIAH SEMESTER 4\LAB PROYEKSI ELEKTRONIKA\smart-drawer\firmware\atmega16\JAM DIGITAL\sketch_mar27a/sketch_mar27a.ino:286
        if (menu_pos==9 && edit_val<1) edit_val=5; if (menu_pos==10 && edit_val<0) edit_val=11;
    3098:	80 91 ed 01 	lds	r24, 0x01ED	; 0x8001ed <edit_val>
    309c:	18 16       	cp	r1, r24
    309e:	0c f4       	brge	.+2      	; 0x30a2 <nextbyte206788+0x5ba>
    30a0:	b5 cd       	rjmp	.-1174   	; 0x2c0c <nextbyte206788+0x124>
    30a2:	85 e0       	ldi	r24, 0x05	; 5
    30a4:	e2 cf       	rjmp	.-60     	; 0x306a <nextbyte206788+0x582>
readBytesUntil():
C:\Users\LENOVO\AppData\Local\Arduino15\packages\MightyCore\hardware\avr\3.1.0\cores\MCUdude_corefiles/Stream.cpp:224
size_t Stream::readBytesUntil(char terminator, char *buffer, size_t length)
{
  size_t index = 0;
  while (index < length) {
    int c = timedRead();
    if (c < 0 || c == terminator) break;
    30a6:	8a 30       	cpi	r24, 0x0A	; 10
    30a8:	91 05       	cpc	r25, r1
    30aa:	11 f4       	brne	.+4      	; 0x30b0 <nextbyte206788+0x5c8>
    30ac:	0c 94 cf 0f 	jmp	0x1f9e	; 0x1f9e <main+0x6bc>
C:\Users\LENOVO\AppData\Local\Arduino15\packages\MightyCore\hardware\avr\3.1.0\cores\MCUdude_corefiles/Stream.cpp:225
    *buffer++ = (char)c;
    30b0:	d6 01       	movw	r26, r12
    30b2:	8d 93       	st	X+, r24
    30b4:	6d 01       	movw	r12, r26
C:\Users\LENOVO\AppData\Local\Arduino15\packages\MightyCore\hardware\avr\3.1.0\cores\MCUdude_corefiles/Stream.cpp:226
    index++;
    30b6:	bf ef       	ldi	r27, 0xFF	; 255
    30b8:	eb 1a       	sub	r14, r27
    30ba:	fb 0a       	sbc	r15, r27
C:\Users\LENOVO\AppData\Local\Arduino15\packages\MightyCore\hardware\avr\3.1.0\cores\MCUdude_corefiles/Stream.cpp:222
// returns the number of characters placed in the buffer (0 means no valid data found)

size_t Stream::readBytesUntil(char terminator, char *buffer, size_t length)
{
  size_t index = 0;
  while (index < length) {
    30bc:	e7 e2       	ldi	r30, 0x27	; 39
    30be:	ee 16       	cp	r14, r30
    30c0:	f1 04       	cpc	r15, r1
    30c2:	11 f0       	breq	.+4      	; 0x30c8 <nextbyte206788+0x5e0>
    30c4:	0c 94 90 0f 	jmp	0x1f20	; 0x1f20 <main+0x63e>
    30c8:	0c 94 cf 0f 	jmp	0x1f9e	; 0x1f9e <main+0x6bc>
loop():
D:\KULIAH SEMESTER 4\LAB PROYEKSI ELEKTRONIKA\smart-drawer\firmware\atmega16\JAM DIGITAL\sketch_mar27a/sketch_mar27a.ino:266
      if(menu_aktif == 0){
        menu_pos++; if (menu_pos > 11) menu_pos = 0; lcd.clear();
      } else {
        edit_val++; 
        if (menu_pos==1 && edit_val>23) edit_val=0; if (menu_pos==2 && edit_val>59) edit_val=0;
        if (menu_pos==3 && edit_val>31) edit_val=1; if (menu_pos==4 && edit_val>12) edit_val=1;
    30cc:	84 30       	cpi	r24, 0x04	; 4
    30ce:	09 f4       	brne	.+2      	; 0x30d2 <nextbyte206788+0x5ea>
    30d0:	99 cf       	rjmp	.-206    	; 0x3004 <nextbyte206788+0x51c>
D:\KULIAH SEMESTER 4\LAB PROYEKSI ELEKTRONIKA\smart-drawer\firmware\atmega16\JAM DIGITAL\sketch_mar27a/sketch_mar27a.ino:267
        if (menu_pos==5 && edit_val>99) edit_val=0; if (menu_pos==6 && edit_val>23) edit_val=0;
    30d2:	85 30       	cpi	r24, 0x05	; 5
    30d4:	09 f4       	brne	.+2      	; 0x30d8 <nextbyte206788+0x5f0>
    30d6:	9a cf       	rjmp	.-204    	; 0x300c <nextbyte206788+0x524>
    30d8:	86 30       	cpi	r24, 0x06	; 6
    30da:	09 f4       	brne	.+2      	; 0x30de <nextbyte206788+0x5f6>
    30dc:	7d cf       	rjmp	.-262    	; 0x2fd8 <nextbyte206788+0x4f0>
D:\KULIAH SEMESTER 4\LAB PROYEKSI ELEKTRONIKA\smart-drawer\firmware\atmega16\JAM DIGITAL\sketch_mar27a/sketch_mar27a.ino:268
        if (menu_pos==7 && edit_val>59) edit_val=0; if (menu_pos==8 && edit_val>1) edit_val=0;
    30de:	87 30       	cpi	r24, 0x07	; 7
    30e0:	09 f4       	brne	.+2      	; 0x30e4 <nextbyte206788+0x5fc>
    30e2:	98 cf       	rjmp	.-208    	; 0x3014 <nextbyte206788+0x52c>
    30e4:	88 30       	cpi	r24, 0x08	; 8
    30e6:	09 f4       	brne	.+2      	; 0x30ea <nextbyte206788+0x602>
    30e8:	9b cf       	rjmp	.-202    	; 0x3020 <nextbyte206788+0x538>
D:\KULIAH SEMESTER 4\LAB PROYEKSI ELEKTRONIKA\smart-drawer\firmware\atmega16\JAM DIGITAL\sketch_mar27a/sketch_mar27a.ino:269
        if (menu_pos==9 && edit_val>5) edit_val=1; if (menu_pos==10 && edit_val>11) edit_val=0;
    30ea:	89 30       	cpi	r24, 0x09	; 9
    30ec:	09 f4       	brne	.+2      	; 0x30f0 <nextbyte206788+0x608>
    30ee:	9d cf       	rjmp	.-198    	; 0x302a <nextbyte206788+0x542>
    30f0:	8a 30       	cpi	r24, 0x0A	; 10
    30f2:	09 f0       	breq	.+2      	; 0x30f6 <nextbyte206788+0x60e>
    30f4:	65 cd       	rjmp	.-1334   	; 0x2bc0 <nextbyte206788+0xd8>
    30f6:	80 91 ed 01 	lds	r24, 0x01ED	; 0x8001ed <edit_val>
    30fa:	8c 30       	cpi	r24, 0x0C	; 12
    30fc:	0c f4       	brge	.+2      	; 0x3100 <nextbyte206788+0x618>
    30fe:	60 cd       	rjmp	.-1344   	; 0x2bc0 <nextbyte206788+0xd8>
    3100:	74 cf       	rjmp	.-280    	; 0x2fea <nextbyte206788+0x502>
D:\KULIAH SEMESTER 4\LAB PROYEKSI ELEKTRONIKA\smart-drawer\firmware\atmega16\JAM DIGITAL\sketch_mar27a/sketch_mar27a.ino:283
      if(menu_aktif == 0){
        if (menu_pos == 0) menu_pos = 11; else menu_pos--; lcd.clear();
      } else {
        edit_val--;
        if (menu_pos==1 && edit_val<0) edit_val=23; if (menu_pos==2 && edit_val<0) edit_val=59;
        if (menu_pos==3 && edit_val<1) edit_val=31; if (menu_pos==4 && edit_val<1) edit_val=12;
    3102:	84 30       	cpi	r24, 0x04	; 4
    3104:	09 f4       	brne	.+2      	; 0x3108 <nextbyte206788+0x620>
    3106:	b4 cf       	rjmp	.-152    	; 0x3070 <nextbyte206788+0x588>
D:\KULIAH SEMESTER 4\LAB PROYEKSI ELEKTRONIKA\smart-drawer\firmware\atmega16\JAM DIGITAL\sketch_mar27a/sketch_mar27a.ino:284
        if (menu_pos==5 && edit_val<0) edit_val=99; if (menu_pos==6 && edit_val<0) edit_val=23;
    3108:	85 30       	cpi	r24, 0x05	; 5
    310a:	09 f4       	brne	.+2      	; 0x310e <nextbyte206788+0x626>
    310c:	b6 cf       	rjmp	.-148    	; 0x307a <nextbyte206788+0x592>
    310e:	86 30       	cpi	r24, 0x06	; 6
    3110:	09 f4       	brne	.+2      	; 0x3114 <nextbyte206788+0x62c>
    3112:	9a cf       	rjmp	.-204    	; 0x3048 <nextbyte206788+0x560>
D:\KULIAH SEMESTER 4\LAB PROYEKSI ELEKTRONIKA\smart-drawer\firmware\atmega16\JAM DIGITAL\sketch_mar27a/sketch_mar27a.ino:285
        if (menu_pos==7 && edit_val<0) edit_val=59; if (menu_pos==8 && edit_val<0) edit_val=1;
    3114:	87 30       	cpi	r24, 0x07	; 7
    3116:	09 f4       	brne	.+2      	; 0x311a <nextbyte206788+0x632>
    3118:	b4 cf       	rjmp	.-152    	; 0x3082 <nextbyte206788+0x59a>
    311a:	88 30       	cpi	r24, 0x08	; 8
    311c:	09 f4       	brne	.+2      	; 0x3120 <nextbyte206788+0x638>
    311e:	b6 cf       	rjmp	.-148    	; 0x308c <nextbyte206788+0x5a4>
D:\KULIAH SEMESTER 4\LAB PROYEKSI ELEKTRONIKA\smart-drawer\firmware\atmega16\JAM DIGITAL\sketch_mar27a/sketch_mar27a.ino:286
        if (menu_pos==9 && edit_val<1) edit_val=5; if (menu_pos==10 && edit_val<0) edit_val=11;
    3120:	89 30       	cpi	r24, 0x09	; 9
    3122:	09 f4       	brne	.+2      	; 0x3126 <nextbyte206788+0x63e>
    3124:	b9 cf       	rjmp	.-142    	; 0x3098 <nextbyte206788+0x5b0>
    3126:	8a 30       	cpi	r24, 0x0A	; 10
    3128:	09 f0       	breq	.+2      	; 0x312c <nextbyte206788+0x644>
    312a:	70 cd       	rjmp	.-1312   	; 0x2c0c <nextbyte206788+0x124>
    312c:	80 91 ed 01 	lds	r24, 0x01ED	; 0x8001ed <edit_val>
    3130:	87 ff       	sbrs	r24, 7
    3132:	6c cd       	rjmp	.-1320   	; 0x2c0c <nextbyte206788+0x124>
    3134:	8b e0       	ldi	r24, 0x0B	; 11
    3136:	99 cf       	rjmp	.-206    	; 0x306a <nextbyte206788+0x582>
D:\KULIAH SEMESTER 4\LAB PROYEKSI ELEKTRONIKA\smart-drawer\firmware\atmega16\JAM DIGITAL\sketch_mar27a/sketch_mar27a.ino:240
  if (digitalRead(BTN_SET) == LOW) {
    delay(30);
    if (digitalRead(BTN_SET) == LOW) {
      beep();
      if (menu_pos == 0 && menu_aktif == 0) { menu_pos = 1; lcd.clear(); }
      else if (menu_aktif == 0 && menu_pos >= 1 && menu_pos <= 10) {
    3138:	91 11       	cpse	r25, r1
    313a:	66 ce       	rjmp	.-820    	; 0x2e08 <nextbyte206788+0x320>
    313c:	8b 30       	cpi	r24, 0x0B	; 11
    313e:	08 f0       	brcs	.+2      	; 0x3142 <nextbyte206788+0x65a>
    3140:	3b cf       	rjmp	.-394    	; 0x2fb8 <nextbyte206788+0x4d0>
D:\KULIAH SEMESTER 4\LAB PROYEKSI ELEKTRONIKA\smart-drawer\firmware\atmega16\JAM DIGITAL\sketch_mar27a/sketch_mar27a.ino:241
        menu_aktif = 1;
    3142:	91 e0       	ldi	r25, 0x01	; 1
    3144:	90 93 ee 01 	sts	0x01EE, r25	; 0x8001ee <menu_aktif>
D:\KULIAH SEMESTER 4\LAB PROYEKSI ELEKTRONIKA\smart-drawer\firmware\atmega16\JAM DIGITAL\sketch_mar27a/sketch_mar27a.ino:242
        if(menu_pos==1) edit_val = jam; else if(menu_pos==2) edit_val = menit;
    3148:	81 30       	cpi	r24, 0x01	; 1
    314a:	09 f0       	breq	.+2      	; 0x314e <nextbyte206788+0x666>
    314c:	32 ce       	rjmp	.-924    	; 0x2db2 <nextbyte206788+0x2ca>
    314e:	80 91 00 02 	lds	r24, 0x0200	; 0x800200 <jam>
D:\KULIAH SEMESTER 4\LAB PROYEKSI ELEKTRONIKA\smart-drawer\firmware\atmega16\JAM DIGITAL\sketch_mar27a/sketch_mar27a.ino:246
        else if(menu_pos==3) edit_val = tgl; else if(menu_pos==4) edit_val = bln;
        else if(menu_pos==5) edit_val = thn; else if(menu_pos==6) edit_val = alm_h;
        else if(menu_pos==7) edit_val = alm_m; else if(menu_pos==8) edit_val = alm_on;
        else if(menu_pos==9) edit_val = nada_alarm; else if(menu_pos==10) edit_val = mode_lampu;
    3152:	80 93 ed 01 	sts	0x01ED, r24	; 0x8001ed <edit_val>
    3156:	0b cd       	rjmp	.-1514   	; 0x2b6e <nextbyte206788+0x86>

00003158 <_GLOBAL__sub_D_rtc>:
_GLOBAL__sub_D_rtc():
c:\Users\LENOVO\Documents\Arduino\libraries\Adafruit_NeoPixel/Adafruit_NeoPixel.cpp:135
#if defined(ARDUINO_ARCH_RP2040)
  // Release any PIO
  rp2040releasePIO();
#endif

  free(pixels);
    3158:	80 91 f1 02 	lds	r24, 0x02F1	; 0x8002f1 <strip+0x9>
    315c:	90 91 f2 02 	lds	r25, 0x02F2	; 0x8002f2 <strip+0xa>
    3160:	0e 94 32 1a 	call	0x3464	; 0x3464 <free>
c:\Users\LENOVO\Documents\Arduino\libraries\Adafruit_NeoPixel/Adafruit_NeoPixel.cpp:136
  if (pin >= 0)
    3164:	80 91 ee 02 	lds	r24, 0x02EE	; 0x8002ee <strip+0x6>
    3168:	90 91 ef 02 	lds	r25, 0x02EF	; 0x8002ef <strip+0x7>
    316c:	97 fd       	sbrc	r25, 7
    316e:	03 c0       	rjmp	.+6      	; 0x3176 <_GLOBAL__sub_D_rtc+0x1e>
c:\Users\LENOVO\Documents\Arduino\libraries\Adafruit_NeoPixel/Adafruit_NeoPixel.cpp:137
    pinMode(pin, INPUT);
    3170:	60 e0       	ldi	r22, 0x00	; 0
    3172:	0c 94 ad 03 	jmp	0x75a	; 0x75a <pinMode>
D:\KULIAH SEMESTER 4\LAB PROYEKSI ELEKTRONIKA\smart-drawer\firmware\atmega16\JAM DIGITAL\sketch_mar27a/sketch_mar27a.ino:532
      delay(200);
    }
  }
  // pastikan buzzer mati setelah tombol ditekan
  digitalWrite(BUZZER, LOW);
  }
    3176:	08 95       	ret

00003178 <strcpy_P>:
strcpy_P():
    3178:	fb 01       	movw	r30, r22
    317a:	dc 01       	movw	r26, r24
    317c:	05 90       	lpm	r0, Z+
    317e:	0d 92       	st	X+, r0
    3180:	00 20       	and	r0, r0
    3182:	e1 f7       	brne	.-8      	; 0x317c <strcpy_P+0x4>
    3184:	08 95       	ret

00003186 <isspace>:
isspace():
    3186:	91 11       	cpse	r25, r1
    3188:	0c 94 cc 18 	jmp	0x3198	; 0x3198 <__ctype_isfalse>
    318c:	80 32       	cpi	r24, 0x20	; 32
    318e:	19 f0       	breq	.+6      	; 0x3196 <isspace+0x10>
    3190:	89 50       	subi	r24, 0x09	; 9
    3192:	85 50       	subi	r24, 0x05	; 5
    3194:	c8 f7       	brcc	.-14     	; 0x3188 <isspace+0x2>
    3196:	08 95       	ret

00003198 <__ctype_isfalse>:
__ctype_isfalse():
    3198:	99 27       	eor	r25, r25
    319a:	88 27       	eor	r24, r24

0000319c <__ctype_istrue>:
__ctype_istrue():
    319c:	08 95       	ret

0000319e <eeprom_read_byte>:
eeprom_read_byte():
    319e:	e1 99       	sbic	0x1c, 1	; 28
    31a0:	fe cf       	rjmp	.-4      	; 0x319e <eeprom_read_byte>
    31a2:	9f bb       	out	0x1f, r25	; 31
    31a4:	8e bb       	out	0x1e, r24	; 30
    31a6:	e0 9a       	sbi	0x1c, 0	; 28
    31a8:	99 27       	eor	r25, r25
    31aa:	8d b3       	in	r24, 0x1d	; 29
    31ac:	08 95       	ret

000031ae <eeprom_write_byte>:
eeprom_write_byte():
    31ae:	26 2f       	mov	r18, r22

000031b0 <eeprom_write_r18>:
    31b0:	e1 99       	sbic	0x1c, 1	; 28
    31b2:	fe cf       	rjmp	.-4      	; 0x31b0 <eeprom_write_r18>
    31b4:	9f bb       	out	0x1f, r25	; 31
    31b6:	8e bb       	out	0x1e, r24	; 30
    31b8:	2d bb       	out	0x1d, r18	; 29
    31ba:	0f b6       	in	r0, 0x3f	; 63
    31bc:	f8 94       	cli
    31be:	e2 9a       	sbi	0x1c, 2	; 28
    31c0:	e1 9a       	sbi	0x1c, 1	; 28
    31c2:	0f be       	out	0x3f, r0	; 63
    31c4:	01 96       	adiw	r24, 0x01	; 1
    31c6:	08 95       	ret

000031c8 <__prologue_saves__>:
__prologue_saves__():
/home/jenkins-mingw32/workspace/avr-gcc-staging/label/Ubuntu14.04x64-mingw32/gcc-build/avr/avr5/libgcc/../../../../gcc/libgcc/config/avr/lib1funcs.S:2169
    31c8:	2f 92       	push	r2
/home/jenkins-mingw32/workspace/avr-gcc-staging/label/Ubuntu14.04x64-mingw32/gcc-build/avr/avr5/libgcc/../../../../gcc/libgcc/config/avr/lib1funcs.S:2170
    31ca:	3f 92       	push	r3
/home/jenkins-mingw32/workspace/avr-gcc-staging/label/Ubuntu14.04x64-mingw32/gcc-build/avr/avr5/libgcc/../../../../gcc/libgcc/config/avr/lib1funcs.S:2171
    31cc:	4f 92       	push	r4
/home/jenkins-mingw32/workspace/avr-gcc-staging/label/Ubuntu14.04x64-mingw32/gcc-build/avr/avr5/libgcc/../../../../gcc/libgcc/config/avr/lib1funcs.S:2172
    31ce:	5f 92       	push	r5
/home/jenkins-mingw32/workspace/avr-gcc-staging/label/Ubuntu14.04x64-mingw32/gcc-build/avr/avr5/libgcc/../../../../gcc/libgcc/config/avr/lib1funcs.S:2173
    31d0:	6f 92       	push	r6
/home/jenkins-mingw32/workspace/avr-gcc-staging/label/Ubuntu14.04x64-mingw32/gcc-build/avr/avr5/libgcc/../../../../gcc/libgcc/config/avr/lib1funcs.S:2174
    31d2:	7f 92       	push	r7
/home/jenkins-mingw32/workspace/avr-gcc-staging/label/Ubuntu14.04x64-mingw32/gcc-build/avr/avr5/libgcc/../../../../gcc/libgcc/config/avr/lib1funcs.S:2175
    31d4:	8f 92       	push	r8
/home/jenkins-mingw32/workspace/avr-gcc-staging/label/Ubuntu14.04x64-mingw32/gcc-build/avr/avr5/libgcc/../../../../gcc/libgcc/config/avr/lib1funcs.S:2176
    31d6:	9f 92       	push	r9
/home/jenkins-mingw32/workspace/avr-gcc-staging/label/Ubuntu14.04x64-mingw32/gcc-build/avr/avr5/libgcc/../../../../gcc/libgcc/config/avr/lib1funcs.S:2177
    31d8:	af 92       	push	r10
/home/jenkins-mingw32/workspace/avr-gcc-staging/label/Ubuntu14.04x64-mingw32/gcc-build/avr/avr5/libgcc/../../../../gcc/libgcc/config/avr/lib1funcs.S:2178
    31da:	bf 92       	push	r11
/home/jenkins-mingw32/workspace/avr-gcc-staging/label/Ubuntu14.04x64-mingw32/gcc-build/avr/avr5/libgcc/../../../../gcc/libgcc/config/avr/lib1funcs.S:2179
    31dc:	cf 92       	push	r12
/home/jenkins-mingw32/workspace/avr-gcc-staging/label/Ubuntu14.04x64-mingw32/gcc-build/avr/avr5/libgcc/../../../../gcc/libgcc/config/avr/lib1funcs.S:2180
    31de:	df 92       	push	r13
/home/jenkins-mingw32/workspace/avr-gcc-staging/label/Ubuntu14.04x64-mingw32/gcc-build/avr/avr5/libgcc/../../../../gcc/libgcc/config/avr/lib1funcs.S:2181
    31e0:	ef 92       	push	r14
/home/jenkins-mingw32/workspace/avr-gcc-staging/label/Ubuntu14.04x64-mingw32/gcc-build/avr/avr5/libgcc/../../../../gcc/libgcc/config/avr/lib1funcs.S:2182
    31e2:	ff 92       	push	r15
/home/jenkins-mingw32/workspace/avr-gcc-staging/label/Ubuntu14.04x64-mingw32/gcc-build/avr/avr5/libgcc/../../../../gcc/libgcc/config/avr/lib1funcs.S:2183
    31e4:	0f 93       	push	r16
/home/jenkins-mingw32/workspace/avr-gcc-staging/label/Ubuntu14.04x64-mingw32/gcc-build/avr/avr5/libgcc/../../../../gcc/libgcc/config/avr/lib1funcs.S:2184
    31e6:	1f 93       	push	r17
/home/jenkins-mingw32/workspace/avr-gcc-staging/label/Ubuntu14.04x64-mingw32/gcc-build/avr/avr5/libgcc/../../../../gcc/libgcc/config/avr/lib1funcs.S:2185
    31e8:	cf 93       	push	r28
/home/jenkins-mingw32/workspace/avr-gcc-staging/label/Ubuntu14.04x64-mingw32/gcc-build/avr/avr5/libgcc/../../../../gcc/libgcc/config/avr/lib1funcs.S:2186
    31ea:	df 93       	push	r29
/home/jenkins-mingw32/workspace/avr-gcc-staging/label/Ubuntu14.04x64-mingw32/gcc-build/avr/avr5/libgcc/../../../../gcc/libgcc/config/avr/lib1funcs.S:2200
    31ec:	cd b7       	in	r28, 0x3d	; 61
/home/jenkins-mingw32/workspace/avr-gcc-staging/label/Ubuntu14.04x64-mingw32/gcc-build/avr/avr5/libgcc/../../../../gcc/libgcc/config/avr/lib1funcs.S:2201
    31ee:	de b7       	in	r29, 0x3e	; 62
/home/jenkins-mingw32/workspace/avr-gcc-staging/label/Ubuntu14.04x64-mingw32/gcc-build/avr/avr5/libgcc/../../../../gcc/libgcc/config/avr/lib1funcs.S:2202
    31f0:	ca 1b       	sub	r28, r26
/home/jenkins-mingw32/workspace/avr-gcc-staging/label/Ubuntu14.04x64-mingw32/gcc-build/avr/avr5/libgcc/../../../../gcc/libgcc/config/avr/lib1funcs.S:2203
    31f2:	db 0b       	sbc	r29, r27
/home/jenkins-mingw32/workspace/avr-gcc-staging/label/Ubuntu14.04x64-mingw32/gcc-build/avr/avr5/libgcc/../../../../gcc/libgcc/config/avr/lib1funcs.S:2204
    31f4:	0f b6       	in	r0, 0x3f	; 63
/home/jenkins-mingw32/workspace/avr-gcc-staging/label/Ubuntu14.04x64-mingw32/gcc-build/avr/avr5/libgcc/../../../../gcc/libgcc/config/avr/lib1funcs.S:2205
    31f6:	f8 94       	cli
/home/jenkins-mingw32/workspace/avr-gcc-staging/label/Ubuntu14.04x64-mingw32/gcc-build/avr/avr5/libgcc/../../../../gcc/libgcc/config/avr/lib1funcs.S:2206
    31f8:	de bf       	out	0x3e, r29	; 62
/home/jenkins-mingw32/workspace/avr-gcc-staging/label/Ubuntu14.04x64-mingw32/gcc-build/avr/avr5/libgcc/../../../../gcc/libgcc/config/avr/lib1funcs.S:2207
    31fa:	0f be       	out	0x3f, r0	; 63
/home/jenkins-mingw32/workspace/avr-gcc-staging/label/Ubuntu14.04x64-mingw32/gcc-build/avr/avr5/libgcc/../../../../gcc/libgcc/config/avr/lib1funcs.S:2208
    31fc:	cd bf       	out	0x3d, r28	; 61
/home/jenkins-mingw32/workspace/avr-gcc-staging/label/Ubuntu14.04x64-mingw32/gcc-build/avr/avr5/libgcc/../../../../gcc/libgcc/config/avr/lib1funcs.S:2211
    31fe:	09 94       	ijmp

00003200 <__epilogue_restores__>:
__epilogue_restores__():
/home/jenkins-mingw32/workspace/avr-gcc-staging/label/Ubuntu14.04x64-mingw32/gcc-build/avr/avr5/libgcc/../../../../gcc/libgcc/config/avr/lib1funcs.S:2222
    3200:	2a 88       	ldd	r2, Y+18	; 0x12
/home/jenkins-mingw32/workspace/avr-gcc-staging/label/Ubuntu14.04x64-mingw32/gcc-build/avr/avr5/libgcc/../../../../gcc/libgcc/config/avr/lib1funcs.S:2223
    3202:	39 88       	ldd	r3, Y+17	; 0x11
/home/jenkins-mingw32/workspace/avr-gcc-staging/label/Ubuntu14.04x64-mingw32/gcc-build/avr/avr5/libgcc/../../../../gcc/libgcc/config/avr/lib1funcs.S:2224
    3204:	48 88       	ldd	r4, Y+16	; 0x10
/home/jenkins-mingw32/workspace/avr-gcc-staging/label/Ubuntu14.04x64-mingw32/gcc-build/avr/avr5/libgcc/../../../../gcc/libgcc/config/avr/lib1funcs.S:2225
    3206:	5f 84       	ldd	r5, Y+15	; 0x0f
/home/jenkins-mingw32/workspace/avr-gcc-staging/label/Ubuntu14.04x64-mingw32/gcc-build/avr/avr5/libgcc/../../../../gcc/libgcc/config/avr/lib1funcs.S:2226
    3208:	6e 84       	ldd	r6, Y+14	; 0x0e
/home/jenkins-mingw32/workspace/avr-gcc-staging/label/Ubuntu14.04x64-mingw32/gcc-build/avr/avr5/libgcc/../../../../gcc/libgcc/config/avr/lib1funcs.S:2227
    320a:	7d 84       	ldd	r7, Y+13	; 0x0d
/home/jenkins-mingw32/workspace/avr-gcc-staging/label/Ubuntu14.04x64-mingw32/gcc-build/avr/avr5/libgcc/../../../../gcc/libgcc/config/avr/lib1funcs.S:2228
    320c:	8c 84       	ldd	r8, Y+12	; 0x0c
/home/jenkins-mingw32/workspace/avr-gcc-staging/label/Ubuntu14.04x64-mingw32/gcc-build/avr/avr5/libgcc/../../../../gcc/libgcc/config/avr/lib1funcs.S:2229
    320e:	9b 84       	ldd	r9, Y+11	; 0x0b
/home/jenkins-mingw32/workspace/avr-gcc-staging/label/Ubuntu14.04x64-mingw32/gcc-build/avr/avr5/libgcc/../../../../gcc/libgcc/config/avr/lib1funcs.S:2230
    3210:	aa 84       	ldd	r10, Y+10	; 0x0a
/home/jenkins-mingw32/workspace/avr-gcc-staging/label/Ubuntu14.04x64-mingw32/gcc-build/avr/avr5/libgcc/../../../../gcc/libgcc/config/avr/lib1funcs.S:2231
    3212:	b9 84       	ldd	r11, Y+9	; 0x09
/home/jenkins-mingw32/workspace/avr-gcc-staging/label/Ubuntu14.04x64-mingw32/gcc-build/avr/avr5/libgcc/../../../../gcc/libgcc/config/avr/lib1funcs.S:2232
    3214:	c8 84       	ldd	r12, Y+8	; 0x08
/home/jenkins-mingw32/workspace/avr-gcc-staging/label/Ubuntu14.04x64-mingw32/gcc-build/avr/avr5/libgcc/../../../../gcc/libgcc/config/avr/lib1funcs.S:2233
    3216:	df 80       	ldd	r13, Y+7	; 0x07
/home/jenkins-mingw32/workspace/avr-gcc-staging/label/Ubuntu14.04x64-mingw32/gcc-build/avr/avr5/libgcc/../../../../gcc/libgcc/config/avr/lib1funcs.S:2234
    3218:	ee 80       	ldd	r14, Y+6	; 0x06
/home/jenkins-mingw32/workspace/avr-gcc-staging/label/Ubuntu14.04x64-mingw32/gcc-build/avr/avr5/libgcc/../../../../gcc/libgcc/config/avr/lib1funcs.S:2235
    321a:	fd 80       	ldd	r15, Y+5	; 0x05
/home/jenkins-mingw32/workspace/avr-gcc-staging/label/Ubuntu14.04x64-mingw32/gcc-build/avr/avr5/libgcc/../../../../gcc/libgcc/config/avr/lib1funcs.S:2236
    321c:	0c 81       	ldd	r16, Y+4	; 0x04
/home/jenkins-mingw32/workspace/avr-gcc-staging/label/Ubuntu14.04x64-mingw32/gcc-build/avr/avr5/libgcc/../../../../gcc/libgcc/config/avr/lib1funcs.S:2237
    321e:	1b 81       	ldd	r17, Y+3	; 0x03
/home/jenkins-mingw32/workspace/avr-gcc-staging/label/Ubuntu14.04x64-mingw32/gcc-build/avr/avr5/libgcc/../../../../gcc/libgcc/config/avr/lib1funcs.S:2238
    3220:	aa 81       	ldd	r26, Y+2	; 0x02
/home/jenkins-mingw32/workspace/avr-gcc-staging/label/Ubuntu14.04x64-mingw32/gcc-build/avr/avr5/libgcc/../../../../gcc/libgcc/config/avr/lib1funcs.S:2252
    3222:	b9 81       	ldd	r27, Y+1	; 0x01
/home/jenkins-mingw32/workspace/avr-gcc-staging/label/Ubuntu14.04x64-mingw32/gcc-build/avr/avr5/libgcc/../../../../gcc/libgcc/config/avr/lib1funcs.S:2253
    3224:	ce 0f       	add	r28, r30
/home/jenkins-mingw32/workspace/avr-gcc-staging/label/Ubuntu14.04x64-mingw32/gcc-build/avr/avr5/libgcc/../../../../gcc/libgcc/config/avr/lib1funcs.S:2254
    3226:	d1 1d       	adc	r29, r1
/home/jenkins-mingw32/workspace/avr-gcc-staging/label/Ubuntu14.04x64-mingw32/gcc-build/avr/avr5/libgcc/../../../../gcc/libgcc/config/avr/lib1funcs.S:2255
    3228:	0f b6       	in	r0, 0x3f	; 63
/home/jenkins-mingw32/workspace/avr-gcc-staging/label/Ubuntu14.04x64-mingw32/gcc-build/avr/avr5/libgcc/../../../../gcc/libgcc/config/avr/lib1funcs.S:2256
    322a:	f8 94       	cli
/home/jenkins-mingw32/workspace/avr-gcc-staging/label/Ubuntu14.04x64-mingw32/gcc-build/avr/avr5/libgcc/../../../../gcc/libgcc/config/avr/lib1funcs.S:2257
    322c:	de bf       	out	0x3e, r29	; 62
/home/jenkins-mingw32/workspace/avr-gcc-staging/label/Ubuntu14.04x64-mingw32/gcc-build/avr/avr5/libgcc/../../../../gcc/libgcc/config/avr/lib1funcs.S:2258
    322e:	0f be       	out	0x3f, r0	; 63
/home/jenkins-mingw32/workspace/avr-gcc-staging/label/Ubuntu14.04x64-mingw32/gcc-build/avr/avr5/libgcc/../../../../gcc/libgcc/config/avr/lib1funcs.S:2259
    3230:	cd bf       	out	0x3d, r28	; 61
/home/jenkins-mingw32/workspace/avr-gcc-staging/label/Ubuntu14.04x64-mingw32/gcc-build/avr/avr5/libgcc/../../../../gcc/libgcc/config/avr/lib1funcs.S:2260
    3232:	ed 01       	movw	r28, r26
/home/jenkins-mingw32/workspace/avr-gcc-staging/label/Ubuntu14.04x64-mingw32/gcc-build/avr/avr5/libgcc/../../../../gcc/libgcc/config/avr/lib1funcs.S:2263
    3234:	08 95       	ret

00003236 <__udivmodqi4>:
__udivmodqi4():
/home/jenkins-mingw32/workspace/avr-gcc-staging/label/Ubuntu14.04x64-mingw32/gcc-build/avr/avr5/libgcc/../../../../gcc/libgcc/config/avr/lib1funcs.S:1346
    3236:	99 1b       	sub	r25, r25
/home/jenkins-mingw32/workspace/avr-gcc-staging/label/Ubuntu14.04x64-mingw32/gcc-build/avr/avr5/libgcc/../../../../gcc/libgcc/config/avr/lib1funcs.S:1347
    3238:	79 e0       	ldi	r23, 0x09	; 9
/home/jenkins-mingw32/workspace/avr-gcc-staging/label/Ubuntu14.04x64-mingw32/gcc-build/avr/avr5/libgcc/../../../../gcc/libgcc/config/avr/lib1funcs.S:1348
    323a:	04 c0       	rjmp	.+8      	; 0x3244 <__udivmodqi4_ep>

0000323c <__udivmodqi4_loop>:
/home/jenkins-mingw32/workspace/avr-gcc-staging/label/Ubuntu14.04x64-mingw32/gcc-build/avr/avr5/libgcc/../../../../gcc/libgcc/config/avr/lib1funcs.S:1350
    323c:	99 1f       	adc	r25, r25
/home/jenkins-mingw32/workspace/avr-gcc-staging/label/Ubuntu14.04x64-mingw32/gcc-build/avr/avr5/libgcc/../../../../gcc/libgcc/config/avr/lib1funcs.S:1351
    323e:	96 17       	cp	r25, r22
/home/jenkins-mingw32/workspace/avr-gcc-staging/label/Ubuntu14.04x64-mingw32/gcc-build/avr/avr5/libgcc/../../../../gcc/libgcc/config/avr/lib1funcs.S:1352
    3240:	08 f0       	brcs	.+2      	; 0x3244 <__udivmodqi4_ep>
/home/jenkins-mingw32/workspace/avr-gcc-staging/label/Ubuntu14.04x64-mingw32/gcc-build/avr/avr5/libgcc/../../../../gcc/libgcc/config/avr/lib1funcs.S:1353
    3242:	96 1b       	sub	r25, r22

00003244 <__udivmodqi4_ep>:
/home/jenkins-mingw32/workspace/avr-gcc-staging/label/Ubuntu14.04x64-mingw32/gcc-build/avr/avr5/libgcc/../../../../gcc/libgcc/config/avr/lib1funcs.S:1355
    3244:	88 1f       	adc	r24, r24
/home/jenkins-mingw32/workspace/avr-gcc-staging/label/Ubuntu14.04x64-mingw32/gcc-build/avr/avr5/libgcc/../../../../gcc/libgcc/config/avr/lib1funcs.S:1356
    3246:	7a 95       	dec	r23
/home/jenkins-mingw32/workspace/avr-gcc-staging/label/Ubuntu14.04x64-mingw32/gcc-build/avr/avr5/libgcc/../../../../gcc/libgcc/config/avr/lib1funcs.S:1357
    3248:	c9 f7       	brne	.-14     	; 0x323c <__udivmodqi4_loop>
/home/jenkins-mingw32/workspace/avr-gcc-staging/label/Ubuntu14.04x64-mingw32/gcc-build/avr/avr5/libgcc/../../../../gcc/libgcc/config/avr/lib1funcs.S:1358
    324a:	80 95       	com	r24
/home/jenkins-mingw32/workspace/avr-gcc-staging/label/Ubuntu14.04x64-mingw32/gcc-build/avr/avr5/libgcc/../../../../gcc/libgcc/config/avr/lib1funcs.S:1360
    324c:	08 95       	ret

0000324e <__udivmodhi4>:
__udivmodhi4():
/home/jenkins-mingw32/workspace/avr-gcc-staging/label/Ubuntu14.04x64-mingw32/gcc-build/avr/avr5/libgcc/../../../../gcc/libgcc/config/avr/lib1funcs.S:1408
    324e:	aa 1b       	sub	r26, r26
/home/jenkins-mingw32/workspace/avr-gcc-staging/label/Ubuntu14.04x64-mingw32/gcc-build/avr/avr5/libgcc/../../../../gcc/libgcc/config/avr/lib1funcs.S:1409
    3250:	bb 1b       	sub	r27, r27
/home/jenkins-mingw32/workspace/avr-gcc-staging/label/Ubuntu14.04x64-mingw32/gcc-build/avr/avr5/libgcc/../../../../gcc/libgcc/config/avr/lib1funcs.S:1410
    3252:	51 e1       	ldi	r21, 0x11	; 17
/home/jenkins-mingw32/workspace/avr-gcc-staging/label/Ubuntu14.04x64-mingw32/gcc-build/avr/avr5/libgcc/../../../../gcc/libgcc/config/avr/lib1funcs.S:1411
    3254:	07 c0       	rjmp	.+14     	; 0x3264 <__udivmodhi4_ep>

00003256 <__udivmodhi4_loop>:
/home/jenkins-mingw32/workspace/avr-gcc-staging/label/Ubuntu14.04x64-mingw32/gcc-build/avr/avr5/libgcc/../../../../gcc/libgcc/config/avr/lib1funcs.S:1413
    3256:	aa 1f       	adc	r26, r26
/home/jenkins-mingw32/workspace/avr-gcc-staging/label/Ubuntu14.04x64-mingw32/gcc-build/avr/avr5/libgcc/../../../../gcc/libgcc/config/avr/lib1funcs.S:1414
    3258:	bb 1f       	adc	r27, r27
/home/jenkins-mingw32/workspace/avr-gcc-staging/label/Ubuntu14.04x64-mingw32/gcc-build/avr/avr5/libgcc/../../../../gcc/libgcc/config/avr/lib1funcs.S:1415
    325a:	a6 17       	cp	r26, r22
/home/jenkins-mingw32/workspace/avr-gcc-staging/label/Ubuntu14.04x64-mingw32/gcc-build/avr/avr5/libgcc/../../../../gcc/libgcc/config/avr/lib1funcs.S:1416
    325c:	b7 07       	cpc	r27, r23
/home/jenkins-mingw32/workspace/avr-gcc-staging/label/Ubuntu14.04x64-mingw32/gcc-build/avr/avr5/libgcc/../../../../gcc/libgcc/config/avr/lib1funcs.S:1417
    325e:	10 f0       	brcs	.+4      	; 0x3264 <__udivmodhi4_ep>
/home/jenkins-mingw32/workspace/avr-gcc-staging/label/Ubuntu14.04x64-mingw32/gcc-build/avr/avr5/libgcc/../../../../gcc/libgcc/config/avr/lib1funcs.S:1418
    3260:	a6 1b       	sub	r26, r22
/home/jenkins-mingw32/workspace/avr-gcc-staging/label/Ubuntu14.04x64-mingw32/gcc-build/avr/avr5/libgcc/../../../../gcc/libgcc/config/avr/lib1funcs.S:1419
    3262:	b7 0b       	sbc	r27, r23

00003264 <__udivmodhi4_ep>:
/home/jenkins-mingw32/workspace/avr-gcc-staging/label/Ubuntu14.04x64-mingw32/gcc-build/avr/avr5/libgcc/../../../../gcc/libgcc/config/avr/lib1funcs.S:1421
    3264:	88 1f       	adc	r24, r24
/home/jenkins-mingw32/workspace/avr-gcc-staging/label/Ubuntu14.04x64-mingw32/gcc-build/avr/avr5/libgcc/../../../../gcc/libgcc/config/avr/lib1funcs.S:1422
    3266:	99 1f       	adc	r25, r25
/home/jenkins-mingw32/workspace/avr-gcc-staging/label/Ubuntu14.04x64-mingw32/gcc-build/avr/avr5/libgcc/../../../../gcc/libgcc/config/avr/lib1funcs.S:1423
    3268:	5a 95       	dec	r21
/home/jenkins-mingw32/workspace/avr-gcc-staging/label/Ubuntu14.04x64-mingw32/gcc-build/avr/avr5/libgcc/../../../../gcc/libgcc/config/avr/lib1funcs.S:1424
    326a:	a9 f7       	brne	.-22     	; 0x3256 <__udivmodhi4_loop>
/home/jenkins-mingw32/workspace/avr-gcc-staging/label/Ubuntu14.04x64-mingw32/gcc-build/avr/avr5/libgcc/../../../../gcc/libgcc/config/avr/lib1funcs.S:1425
    326c:	80 95       	com	r24
/home/jenkins-mingw32/workspace/avr-gcc-staging/label/Ubuntu14.04x64-mingw32/gcc-build/avr/avr5/libgcc/../../../../gcc/libgcc/config/avr/lib1funcs.S:1426
    326e:	90 95       	com	r25
/home/jenkins-mingw32/workspace/avr-gcc-staging/label/Ubuntu14.04x64-mingw32/gcc-build/avr/avr5/libgcc/../../../../gcc/libgcc/config/avr/lib1funcs.S:1428
    3270:	bc 01       	movw	r22, r24
/home/jenkins-mingw32/workspace/avr-gcc-staging/label/Ubuntu14.04x64-mingw32/gcc-build/avr/avr5/libgcc/../../../../gcc/libgcc/config/avr/lib1funcs.S:1430
    3272:	cd 01       	movw	r24, r26
/home/jenkins-mingw32/workspace/avr-gcc-staging/label/Ubuntu14.04x64-mingw32/gcc-build/avr/avr5/libgcc/../../../../gcc/libgcc/config/avr/lib1funcs.S:1432
    3274:	08 95       	ret

00003276 <__divmodhi4>:
__divmodhi4():
/home/jenkins-mingw32/workspace/avr-gcc-staging/label/Ubuntu14.04x64-mingw32/gcc-build/avr/avr5/libgcc/../../../../gcc/libgcc/config/avr/lib1funcs.S:1440
    3276:	97 fb       	bst	r25, 7
/home/jenkins-mingw32/workspace/avr-gcc-staging/label/Ubuntu14.04x64-mingw32/gcc-build/avr/avr5/libgcc/../../../../gcc/libgcc/config/avr/lib1funcs.S:1441
    3278:	07 2e       	mov	r0, r23
/home/jenkins-mingw32/workspace/avr-gcc-staging/label/Ubuntu14.04x64-mingw32/gcc-build/avr/avr5/libgcc/../../../../gcc/libgcc/config/avr/lib1funcs.S:1442
    327a:	16 f4       	brtc	.+4      	; 0x3280 <__divmodhi4+0xa>
/home/jenkins-mingw32/workspace/avr-gcc-staging/label/Ubuntu14.04x64-mingw32/gcc-build/avr/avr5/libgcc/../../../../gcc/libgcc/config/avr/lib1funcs.S:1443
    327c:	00 94       	com	r0
/home/jenkins-mingw32/workspace/avr-gcc-staging/label/Ubuntu14.04x64-mingw32/gcc-build/avr/avr5/libgcc/../../../../gcc/libgcc/config/avr/lib1funcs.S:1444
    327e:	07 d0       	rcall	.+14     	; 0x328e <__divmodhi4_neg1>
/home/jenkins-mingw32/workspace/avr-gcc-staging/label/Ubuntu14.04x64-mingw32/gcc-build/avr/avr5/libgcc/../../../../gcc/libgcc/config/avr/lib1funcs.S:1446
    3280:	77 fd       	sbrc	r23, 7
/home/jenkins-mingw32/workspace/avr-gcc-staging/label/Ubuntu14.04x64-mingw32/gcc-build/avr/avr5/libgcc/../../../../gcc/libgcc/config/avr/lib1funcs.S:1447
    3282:	09 d0       	rcall	.+18     	; 0x3296 <__divmodhi4_neg2>
/home/jenkins-mingw32/workspace/avr-gcc-staging/label/Ubuntu14.04x64-mingw32/gcc-build/avr/avr5/libgcc/../../../../gcc/libgcc/config/avr/lib1funcs.S:1448
    3284:	0e 94 27 19 	call	0x324e	; 0x324e <__udivmodhi4>
/home/jenkins-mingw32/workspace/avr-gcc-staging/label/Ubuntu14.04x64-mingw32/gcc-build/avr/avr5/libgcc/../../../../gcc/libgcc/config/avr/lib1funcs.S:1449
    3288:	07 fc       	sbrc	r0, 7
/home/jenkins-mingw32/workspace/avr-gcc-staging/label/Ubuntu14.04x64-mingw32/gcc-build/avr/avr5/libgcc/../../../../gcc/libgcc/config/avr/lib1funcs.S:1450
    328a:	05 d0       	rcall	.+10     	; 0x3296 <__divmodhi4_neg2>
/home/jenkins-mingw32/workspace/avr-gcc-staging/label/Ubuntu14.04x64-mingw32/gcc-build/avr/avr5/libgcc/../../../../gcc/libgcc/config/avr/lib1funcs.S:1451
    328c:	3e f4       	brtc	.+14     	; 0x329c <__divmodhi4_exit>

0000328e <__divmodhi4_neg1>:
/home/jenkins-mingw32/workspace/avr-gcc-staging/label/Ubuntu14.04x64-mingw32/gcc-build/avr/avr5/libgcc/../../../../gcc/libgcc/config/avr/lib1funcs.S:1454
    328e:	90 95       	com	r25
/home/jenkins-mingw32/workspace/avr-gcc-staging/label/Ubuntu14.04x64-mingw32/gcc-build/avr/avr5/libgcc/../../../../gcc/libgcc/config/avr/lib1funcs.S:1455
    3290:	81 95       	neg	r24
/home/jenkins-mingw32/workspace/avr-gcc-staging/label/Ubuntu14.04x64-mingw32/gcc-build/avr/avr5/libgcc/../../../../gcc/libgcc/config/avr/lib1funcs.S:1456
    3292:	9f 4f       	sbci	r25, 0xFF	; 255
/home/jenkins-mingw32/workspace/avr-gcc-staging/label/Ubuntu14.04x64-mingw32/gcc-build/avr/avr5/libgcc/../../../../gcc/libgcc/config/avr/lib1funcs.S:1457
    3294:	08 95       	ret

00003296 <__divmodhi4_neg2>:
/home/jenkins-mingw32/workspace/avr-gcc-staging/label/Ubuntu14.04x64-mingw32/gcc-build/avr/avr5/libgcc/../../../../gcc/libgcc/config/avr/lib1funcs.S:1460
    3296:	70 95       	com	r23
/home/jenkins-mingw32/workspace/avr-gcc-staging/label/Ubuntu14.04x64-mingw32/gcc-build/avr/avr5/libgcc/../../../../gcc/libgcc/config/avr/lib1funcs.S:1461
    3298:	61 95       	neg	r22
/home/jenkins-mingw32/workspace/avr-gcc-staging/label/Ubuntu14.04x64-mingw32/gcc-build/avr/avr5/libgcc/../../../../gcc/libgcc/config/avr/lib1funcs.S:1462
    329a:	7f 4f       	sbci	r23, 0xFF	; 255

0000329c <__divmodhi4_exit>:
/home/jenkins-mingw32/workspace/avr-gcc-staging/label/Ubuntu14.04x64-mingw32/gcc-build/avr/avr5/libgcc/../../../../gcc/libgcc/config/avr/lib1funcs.S:1464
    329c:	08 95       	ret

0000329e <__udivmodsi4>:
__udivmodsi4():
/home/jenkins-mingw32/workspace/avr-gcc-staging/label/Ubuntu14.04x64-mingw32/gcc-build/avr/avr5/libgcc/../../../../gcc/libgcc/config/avr/lib1funcs.S:1638
    329e:	a1 e2       	ldi	r26, 0x21	; 33
/home/jenkins-mingw32/workspace/avr-gcc-staging/label/Ubuntu14.04x64-mingw32/gcc-build/avr/avr5/libgcc/../../../../gcc/libgcc/config/avr/lib1funcs.S:1639
    32a0:	1a 2e       	mov	r1, r26
/home/jenkins-mingw32/workspace/avr-gcc-staging/label/Ubuntu14.04x64-mingw32/gcc-build/avr/avr5/libgcc/../../../../gcc/libgcc/config/avr/lib1funcs.S:1640
    32a2:	aa 1b       	sub	r26, r26
/home/jenkins-mingw32/workspace/avr-gcc-staging/label/Ubuntu14.04x64-mingw32/gcc-build/avr/avr5/libgcc/../../../../gcc/libgcc/config/avr/lib1funcs.S:1641
    32a4:	bb 1b       	sub	r27, r27
/home/jenkins-mingw32/workspace/avr-gcc-staging/label/Ubuntu14.04x64-mingw32/gcc-build/avr/avr5/libgcc/../../../../gcc/libgcc/config/avr/lib1funcs.S:1642
    32a6:	fd 01       	movw	r30, r26
/home/jenkins-mingw32/workspace/avr-gcc-staging/label/Ubuntu14.04x64-mingw32/gcc-build/avr/avr5/libgcc/../../../../gcc/libgcc/config/avr/lib1funcs.S:1644
    32a8:	0d c0       	rjmp	.+26     	; 0x32c4 <__udivmodsi4_ep>

000032aa <__udivmodsi4_loop>:
/home/jenkins-mingw32/workspace/avr-gcc-staging/label/Ubuntu14.04x64-mingw32/gcc-build/avr/avr5/libgcc/../../../../gcc/libgcc/config/avr/lib1funcs.S:1646
    32aa:	aa 1f       	adc	r26, r26
/home/jenkins-mingw32/workspace/avr-gcc-staging/label/Ubuntu14.04x64-mingw32/gcc-build/avr/avr5/libgcc/../../../../gcc/libgcc/config/avr/lib1funcs.S:1647
    32ac:	bb 1f       	adc	r27, r27
/home/jenkins-mingw32/workspace/avr-gcc-staging/label/Ubuntu14.04x64-mingw32/gcc-build/avr/avr5/libgcc/../../../../gcc/libgcc/config/avr/lib1funcs.S:1648
    32ae:	ee 1f       	adc	r30, r30
/home/jenkins-mingw32/workspace/avr-gcc-staging/label/Ubuntu14.04x64-mingw32/gcc-build/avr/avr5/libgcc/../../../../gcc/libgcc/config/avr/lib1funcs.S:1649
    32b0:	ff 1f       	adc	r31, r31
/home/jenkins-mingw32/workspace/avr-gcc-staging/label/Ubuntu14.04x64-mingw32/gcc-build/avr/avr5/libgcc/../../../../gcc/libgcc/config/avr/lib1funcs.S:1650
    32b2:	a2 17       	cp	r26, r18
/home/jenkins-mingw32/workspace/avr-gcc-staging/label/Ubuntu14.04x64-mingw32/gcc-build/avr/avr5/libgcc/../../../../gcc/libgcc/config/avr/lib1funcs.S:1651
    32b4:	b3 07       	cpc	r27, r19
/home/jenkins-mingw32/workspace/avr-gcc-staging/label/Ubuntu14.04x64-mingw32/gcc-build/avr/avr5/libgcc/../../../../gcc/libgcc/config/avr/lib1funcs.S:1652
    32b6:	e4 07       	cpc	r30, r20
/home/jenkins-mingw32/workspace/avr-gcc-staging/label/Ubuntu14.04x64-mingw32/gcc-build/avr/avr5/libgcc/../../../../gcc/libgcc/config/avr/lib1funcs.S:1653
    32b8:	f5 07       	cpc	r31, r21
/home/jenkins-mingw32/workspace/avr-gcc-staging/label/Ubuntu14.04x64-mingw32/gcc-build/avr/avr5/libgcc/../../../../gcc/libgcc/config/avr/lib1funcs.S:1654
    32ba:	20 f0       	brcs	.+8      	; 0x32c4 <__udivmodsi4_ep>
/home/jenkins-mingw32/workspace/avr-gcc-staging/label/Ubuntu14.04x64-mingw32/gcc-build/avr/avr5/libgcc/../../../../gcc/libgcc/config/avr/lib1funcs.S:1655
    32bc:	a2 1b       	sub	r26, r18
/home/jenkins-mingw32/workspace/avr-gcc-staging/label/Ubuntu14.04x64-mingw32/gcc-build/avr/avr5/libgcc/../../../../gcc/libgcc/config/avr/lib1funcs.S:1656
    32be:	b3 0b       	sbc	r27, r19
/home/jenkins-mingw32/workspace/avr-gcc-staging/label/Ubuntu14.04x64-mingw32/gcc-build/avr/avr5/libgcc/../../../../gcc/libgcc/config/avr/lib1funcs.S:1657
    32c0:	e4 0b       	sbc	r30, r20
/home/jenkins-mingw32/workspace/avr-gcc-staging/label/Ubuntu14.04x64-mingw32/gcc-build/avr/avr5/libgcc/../../../../gcc/libgcc/config/avr/lib1funcs.S:1658
    32c2:	f5 0b       	sbc	r31, r21

000032c4 <__udivmodsi4_ep>:
/home/jenkins-mingw32/workspace/avr-gcc-staging/label/Ubuntu14.04x64-mingw32/gcc-build/avr/avr5/libgcc/../../../../gcc/libgcc/config/avr/lib1funcs.S:1660
    32c4:	66 1f       	adc	r22, r22
/home/jenkins-mingw32/workspace/avr-gcc-staging/label/Ubuntu14.04x64-mingw32/gcc-build/avr/avr5/libgcc/../../../../gcc/libgcc/config/avr/lib1funcs.S:1661
    32c6:	77 1f       	adc	r23, r23
/home/jenkins-mingw32/workspace/avr-gcc-staging/label/Ubuntu14.04x64-mingw32/gcc-build/avr/avr5/libgcc/../../../../gcc/libgcc/config/avr/lib1funcs.S:1662
    32c8:	88 1f       	adc	r24, r24
/home/jenkins-mingw32/workspace/avr-gcc-staging/label/Ubuntu14.04x64-mingw32/gcc-build/avr/avr5/libgcc/../../../../gcc/libgcc/config/avr/lib1funcs.S:1663
    32ca:	99 1f       	adc	r25, r25
/home/jenkins-mingw32/workspace/avr-gcc-staging/label/Ubuntu14.04x64-mingw32/gcc-build/avr/avr5/libgcc/../../../../gcc/libgcc/config/avr/lib1funcs.S:1664
    32cc:	1a 94       	dec	r1
/home/jenkins-mingw32/workspace/avr-gcc-staging/label/Ubuntu14.04x64-mingw32/gcc-build/avr/avr5/libgcc/../../../../gcc/libgcc/config/avr/lib1funcs.S:1665
    32ce:	69 f7       	brne	.-38     	; 0x32aa <__udivmodsi4_loop>
/home/jenkins-mingw32/workspace/avr-gcc-staging/label/Ubuntu14.04x64-mingw32/gcc-build/avr/avr5/libgcc/../../../../gcc/libgcc/config/avr/lib1funcs.S:1667
    32d0:	60 95       	com	r22
/home/jenkins-mingw32/workspace/avr-gcc-staging/label/Ubuntu14.04x64-mingw32/gcc-build/avr/avr5/libgcc/../../../../gcc/libgcc/config/avr/lib1funcs.S:1668
    32d2:	70 95       	com	r23
/home/jenkins-mingw32/workspace/avr-gcc-staging/label/Ubuntu14.04x64-mingw32/gcc-build/avr/avr5/libgcc/../../../../gcc/libgcc/config/avr/lib1funcs.S:1669
    32d4:	80 95       	com	r24
/home/jenkins-mingw32/workspace/avr-gcc-staging/label/Ubuntu14.04x64-mingw32/gcc-build/avr/avr5/libgcc/../../../../gcc/libgcc/config/avr/lib1funcs.S:1670
    32d6:	90 95       	com	r25
/home/jenkins-mingw32/workspace/avr-gcc-staging/label/Ubuntu14.04x64-mingw32/gcc-build/avr/avr5/libgcc/../../../../gcc/libgcc/config/avr/lib1funcs.S:1672
    32d8:	9b 01       	movw	r18, r22
/home/jenkins-mingw32/workspace/avr-gcc-staging/label/Ubuntu14.04x64-mingw32/gcc-build/avr/avr5/libgcc/../../../../gcc/libgcc/config/avr/lib1funcs.S:1674
    32da:	ac 01       	movw	r20, r24
/home/jenkins-mingw32/workspace/avr-gcc-staging/label/Ubuntu14.04x64-mingw32/gcc-build/avr/avr5/libgcc/../../../../gcc/libgcc/config/avr/lib1funcs.S:1676
    32dc:	bd 01       	movw	r22, r26
/home/jenkins-mingw32/workspace/avr-gcc-staging/label/Ubuntu14.04x64-mingw32/gcc-build/avr/avr5/libgcc/../../../../gcc/libgcc/config/avr/lib1funcs.S:1678
    32de:	cf 01       	movw	r24, r30
/home/jenkins-mingw32/workspace/avr-gcc-staging/label/Ubuntu14.04x64-mingw32/gcc-build/avr/avr5/libgcc/../../../../gcc/libgcc/config/avr/lib1funcs.S:1680
    32e0:	08 95       	ret

000032e2 <__divmodsi4>:
__divmodsi4():
/home/jenkins-mingw32/workspace/avr-gcc-staging/label/Ubuntu14.04x64-mingw32/gcc-build/avr/avr5/libgcc/../../../../gcc/libgcc/config/avr/lib1funcs.S:1686
    32e2:	05 2e       	mov	r0, r21
/home/jenkins-mingw32/workspace/avr-gcc-staging/label/Ubuntu14.04x64-mingw32/gcc-build/avr/avr5/libgcc/../../../../gcc/libgcc/config/avr/lib1funcs.S:1687
    32e4:	97 fb       	bst	r25, 7
/home/jenkins-mingw32/workspace/avr-gcc-staging/label/Ubuntu14.04x64-mingw32/gcc-build/avr/avr5/libgcc/../../../../gcc/libgcc/config/avr/lib1funcs.S:1688
    32e6:	1e f4       	brtc	.+6      	; 0x32ee <__divmodsi4+0xc>
/home/jenkins-mingw32/workspace/avr-gcc-staging/label/Ubuntu14.04x64-mingw32/gcc-build/avr/avr5/libgcc/../../../../gcc/libgcc/config/avr/lib1funcs.S:1689
    32e8:	00 94       	com	r0
/home/jenkins-mingw32/workspace/avr-gcc-staging/label/Ubuntu14.04x64-mingw32/gcc-build/avr/avr5/libgcc/../../../../gcc/libgcc/config/avr/lib1funcs.S:1690
    32ea:	0e 94 88 19 	call	0x3310	; 0x3310 <__negsi2>
/home/jenkins-mingw32/workspace/avr-gcc-staging/label/Ubuntu14.04x64-mingw32/gcc-build/avr/avr5/libgcc/../../../../gcc/libgcc/config/avr/lib1funcs.S:1692
    32ee:	57 fd       	sbrc	r21, 7
/home/jenkins-mingw32/workspace/avr-gcc-staging/label/Ubuntu14.04x64-mingw32/gcc-build/avr/avr5/libgcc/../../../../gcc/libgcc/config/avr/lib1funcs.S:1693
    32f0:	07 d0       	rcall	.+14     	; 0x3300 <__divmodsi4_neg2>
/home/jenkins-mingw32/workspace/avr-gcc-staging/label/Ubuntu14.04x64-mingw32/gcc-build/avr/avr5/libgcc/../../../../gcc/libgcc/config/avr/lib1funcs.S:1694
    32f2:	0e 94 4f 19 	call	0x329e	; 0x329e <__udivmodsi4>
/home/jenkins-mingw32/workspace/avr-gcc-staging/label/Ubuntu14.04x64-mingw32/gcc-build/avr/avr5/libgcc/../../../../gcc/libgcc/config/avr/lib1funcs.S:1695
    32f6:	07 fc       	sbrc	r0, 7
/home/jenkins-mingw32/workspace/avr-gcc-staging/label/Ubuntu14.04x64-mingw32/gcc-build/avr/avr5/libgcc/../../../../gcc/libgcc/config/avr/lib1funcs.S:1696
    32f8:	03 d0       	rcall	.+6      	; 0x3300 <__divmodsi4_neg2>
/home/jenkins-mingw32/workspace/avr-gcc-staging/label/Ubuntu14.04x64-mingw32/gcc-build/avr/avr5/libgcc/../../../../gcc/libgcc/config/avr/lib1funcs.S:1697
    32fa:	4e f4       	brtc	.+18     	; 0x330e <__divmodsi4_exit>
/home/jenkins-mingw32/workspace/avr-gcc-staging/label/Ubuntu14.04x64-mingw32/gcc-build/avr/avr5/libgcc/../../../../gcc/libgcc/config/avr/lib1funcs.S:1698
    32fc:	0c 94 88 19 	jmp	0x3310	; 0x3310 <__negsi2>

00003300 <__divmodsi4_neg2>:
/home/jenkins-mingw32/workspace/avr-gcc-staging/label/Ubuntu14.04x64-mingw32/gcc-build/avr/avr5/libgcc/../../../../gcc/libgcc/config/avr/lib1funcs.S:1701
    3300:	50 95       	com	r21
/home/jenkins-mingw32/workspace/avr-gcc-staging/label/Ubuntu14.04x64-mingw32/gcc-build/avr/avr5/libgcc/../../../../gcc/libgcc/config/avr/lib1funcs.S:1702
    3302:	40 95       	com	r20
/home/jenkins-mingw32/workspace/avr-gcc-staging/label/Ubuntu14.04x64-mingw32/gcc-build/avr/avr5/libgcc/../../../../gcc/libgcc/config/avr/lib1funcs.S:1703
    3304:	30 95       	com	r19
/home/jenkins-mingw32/workspace/avr-gcc-staging/label/Ubuntu14.04x64-mingw32/gcc-build/avr/avr5/libgcc/../../../../gcc/libgcc/config/avr/lib1funcs.S:1704
    3306:	21 95       	neg	r18
/home/jenkins-mingw32/workspace/avr-gcc-staging/label/Ubuntu14.04x64-mingw32/gcc-build/avr/avr5/libgcc/../../../../gcc/libgcc/config/avr/lib1funcs.S:1705
    3308:	3f 4f       	sbci	r19, 0xFF	; 255
/home/jenkins-mingw32/workspace/avr-gcc-staging/label/Ubuntu14.04x64-mingw32/gcc-build/avr/avr5/libgcc/../../../../gcc/libgcc/config/avr/lib1funcs.S:1706
    330a:	4f 4f       	sbci	r20, 0xFF	; 255
/home/jenkins-mingw32/workspace/avr-gcc-staging/label/Ubuntu14.04x64-mingw32/gcc-build/avr/avr5/libgcc/../../../../gcc/libgcc/config/avr/lib1funcs.S:1707
    330c:	5f 4f       	sbci	r21, 0xFF	; 255

0000330e <__divmodsi4_exit>:
/home/jenkins-mingw32/workspace/avr-gcc-staging/label/Ubuntu14.04x64-mingw32/gcc-build/avr/avr5/libgcc/../../../../gcc/libgcc/config/avr/lib1funcs.S:1709
    330e:	08 95       	ret

00003310 <__negsi2>:
__negsi2():
/home/jenkins-mingw32/workspace/avr-gcc-staging/label/Ubuntu14.04x64-mingw32/gcc-build/avr/avr5/libgcc/../../../../gcc/libgcc/config/avr/lib1funcs.S:1718
    3310:	90 95       	com	r25
    3312:	80 95       	com	r24
    3314:	70 95       	com	r23
    3316:	61 95       	neg	r22
    3318:	7f 4f       	sbci	r23, 0xFF	; 255
    331a:	8f 4f       	sbci	r24, 0xFF	; 255
    331c:	9f 4f       	sbci	r25, 0xFF	; 255
/home/jenkins-mingw32/workspace/avr-gcc-staging/label/Ubuntu14.04x64-mingw32/gcc-build/avr/avr5/libgcc/../../../../gcc/libgcc/config/avr/lib1funcs.S:1719
    331e:	08 95       	ret

00003320 <__tablejump2__>:
__tablejump2__():
/home/jenkins-mingw32/workspace/avr-gcc-staging/label/Ubuntu14.04x64-mingw32/gcc-build/avr/avr5/libgcc/../../../../gcc/libgcc/config/avr/lib1funcs.S:2296
    3320:	ee 0f       	add	r30, r30
/home/jenkins-mingw32/workspace/avr-gcc-staging/label/Ubuntu14.04x64-mingw32/gcc-build/avr/avr5/libgcc/../../../../gcc/libgcc/config/avr/lib1funcs.S:2297
    3322:	ff 1f       	adc	r31, r31
/home/jenkins-mingw32/workspace/avr-gcc-staging/label/Ubuntu14.04x64-mingw32/gcc-build/avr/avr5/libgcc/../../../../gcc/libgcc/config/avr/lib1funcs.S:2328
    3324:	05 90       	lpm	r0, Z+
/home/jenkins-mingw32/workspace/avr-gcc-staging/label/Ubuntu14.04x64-mingw32/gcc-build/avr/avr5/libgcc/../../../../gcc/libgcc/config/avr/lib1funcs.S:2329
    3326:	f4 91       	lpm	r31, Z
/home/jenkins-mingw32/workspace/avr-gcc-staging/label/Ubuntu14.04x64-mingw32/gcc-build/avr/avr5/libgcc/../../../../gcc/libgcc/config/avr/lib1funcs.S:2330
    3328:	e0 2d       	mov	r30, r0
/home/jenkins-mingw32/workspace/avr-gcc-staging/label/Ubuntu14.04x64-mingw32/gcc-build/avr/avr5/libgcc/../../../../gcc/libgcc/config/avr/lib1funcs.S:2331
    332a:	09 94       	ijmp

0000332c <malloc>:
malloc():
    332c:	0f 93       	push	r16
    332e:	1f 93       	push	r17
    3330:	cf 93       	push	r28
    3332:	df 93       	push	r29
    3334:	82 30       	cpi	r24, 0x02	; 2
    3336:	91 05       	cpc	r25, r1
    3338:	10 f4       	brcc	.+4      	; 0x333e <malloc+0x12>
    333a:	82 e0       	ldi	r24, 0x02	; 2
    333c:	90 e0       	ldi	r25, 0x00	; 0
    333e:	e0 91 0c 03 	lds	r30, 0x030C	; 0x80030c <__flp>
    3342:	f0 91 0d 03 	lds	r31, 0x030D	; 0x80030d <__flp+0x1>
    3346:	30 e0       	ldi	r19, 0x00	; 0
    3348:	20 e0       	ldi	r18, 0x00	; 0
    334a:	b0 e0       	ldi	r27, 0x00	; 0
    334c:	a0 e0       	ldi	r26, 0x00	; 0
    334e:	30 97       	sbiw	r30, 0x00	; 0
    3350:	99 f4       	brne	.+38     	; 0x3378 <malloc+0x4c>
    3352:	21 15       	cp	r18, r1
    3354:	31 05       	cpc	r19, r1
    3356:	09 f4       	brne	.+2      	; 0x335a <malloc+0x2e>
    3358:	4a c0       	rjmp	.+148    	; 0x33ee <malloc+0xc2>
    335a:	28 1b       	sub	r18, r24
    335c:	39 0b       	sbc	r19, r25
    335e:	24 30       	cpi	r18, 0x04	; 4
    3360:	31 05       	cpc	r19, r1
    3362:	d8 f5       	brcc	.+118    	; 0x33da <malloc+0xae>
    3364:	8a 81       	ldd	r24, Y+2	; 0x02
    3366:	9b 81       	ldd	r25, Y+3	; 0x03
    3368:	61 15       	cp	r22, r1
    336a:	71 05       	cpc	r23, r1
    336c:	89 f1       	breq	.+98     	; 0x33d0 <malloc+0xa4>
    336e:	fb 01       	movw	r30, r22
    3370:	93 83       	std	Z+3, r25	; 0x03
    3372:	82 83       	std	Z+2, r24	; 0x02
    3374:	fe 01       	movw	r30, r28
    3376:	11 c0       	rjmp	.+34     	; 0x339a <malloc+0x6e>
    3378:	40 81       	ld	r20, Z
    337a:	51 81       	ldd	r21, Z+1	; 0x01
    337c:	02 81       	ldd	r16, Z+2	; 0x02
    337e:	13 81       	ldd	r17, Z+3	; 0x03
    3380:	48 17       	cp	r20, r24
    3382:	59 07       	cpc	r21, r25
    3384:	e0 f0       	brcs	.+56     	; 0x33be <malloc+0x92>
    3386:	48 17       	cp	r20, r24
    3388:	59 07       	cpc	r21, r25
    338a:	99 f4       	brne	.+38     	; 0x33b2 <malloc+0x86>
    338c:	10 97       	sbiw	r26, 0x00	; 0
    338e:	61 f0       	breq	.+24     	; 0x33a8 <malloc+0x7c>
    3390:	12 96       	adiw	r26, 0x02	; 2
    3392:	0c 93       	st	X, r16
    3394:	12 97       	sbiw	r26, 0x02	; 2
    3396:	13 96       	adiw	r26, 0x03	; 3
    3398:	1c 93       	st	X, r17
    339a:	32 96       	adiw	r30, 0x02	; 2
    339c:	cf 01       	movw	r24, r30
    339e:	df 91       	pop	r29
    33a0:	cf 91       	pop	r28
    33a2:	1f 91       	pop	r17
    33a4:	0f 91       	pop	r16
    33a6:	08 95       	ret
    33a8:	00 93 0c 03 	sts	0x030C, r16	; 0x80030c <__flp>
    33ac:	10 93 0d 03 	sts	0x030D, r17	; 0x80030d <__flp+0x1>
    33b0:	f4 cf       	rjmp	.-24     	; 0x339a <malloc+0x6e>
    33b2:	21 15       	cp	r18, r1
    33b4:	31 05       	cpc	r19, r1
    33b6:	51 f0       	breq	.+20     	; 0x33cc <malloc+0xa0>
    33b8:	42 17       	cp	r20, r18
    33ba:	53 07       	cpc	r21, r19
    33bc:	38 f0       	brcs	.+14     	; 0x33cc <malloc+0xa0>
    33be:	a9 01       	movw	r20, r18
    33c0:	db 01       	movw	r26, r22
    33c2:	9a 01       	movw	r18, r20
    33c4:	bd 01       	movw	r22, r26
    33c6:	df 01       	movw	r26, r30
    33c8:	f8 01       	movw	r30, r16
    33ca:	c1 cf       	rjmp	.-126    	; 0x334e <malloc+0x22>
    33cc:	ef 01       	movw	r28, r30
    33ce:	f9 cf       	rjmp	.-14     	; 0x33c2 <malloc+0x96>
    33d0:	90 93 0d 03 	sts	0x030D, r25	; 0x80030d <__flp+0x1>
    33d4:	80 93 0c 03 	sts	0x030C, r24	; 0x80030c <__flp>
    33d8:	cd cf       	rjmp	.-102    	; 0x3374 <malloc+0x48>
    33da:	fe 01       	movw	r30, r28
    33dc:	e2 0f       	add	r30, r18
    33de:	f3 1f       	adc	r31, r19
    33e0:	81 93       	st	Z+, r24
    33e2:	91 93       	st	Z+, r25
    33e4:	22 50       	subi	r18, 0x02	; 2
    33e6:	31 09       	sbc	r19, r1
    33e8:	39 83       	std	Y+1, r19	; 0x01
    33ea:	28 83       	st	Y, r18
    33ec:	d7 cf       	rjmp	.-82     	; 0x339c <malloc+0x70>
    33ee:	20 91 0a 03 	lds	r18, 0x030A	; 0x80030a <__brkval>
    33f2:	30 91 0b 03 	lds	r19, 0x030B	; 0x80030b <__brkval+0x1>
    33f6:	23 2b       	or	r18, r19
    33f8:	41 f4       	brne	.+16     	; 0x340a <malloc+0xde>
    33fa:	20 91 74 00 	lds	r18, 0x0074	; 0x800074 <__malloc_heap_start>
    33fe:	30 91 75 00 	lds	r19, 0x0075	; 0x800075 <__malloc_heap_start+0x1>
    3402:	30 93 0b 03 	sts	0x030B, r19	; 0x80030b <__brkval+0x1>
    3406:	20 93 0a 03 	sts	0x030A, r18	; 0x80030a <__brkval>
    340a:	20 91 72 00 	lds	r18, 0x0072	; 0x800072 <__malloc_heap_end>
    340e:	30 91 73 00 	lds	r19, 0x0073	; 0x800073 <__malloc_heap_end+0x1>
    3412:	21 15       	cp	r18, r1
    3414:	31 05       	cpc	r19, r1
    3416:	41 f4       	brne	.+16     	; 0x3428 <malloc+0xfc>
    3418:	2d b7       	in	r18, 0x3d	; 61
    341a:	3e b7       	in	r19, 0x3e	; 62
    341c:	40 91 76 00 	lds	r20, 0x0076	; 0x800076 <__malloc_margin>
    3420:	50 91 77 00 	lds	r21, 0x0077	; 0x800077 <__malloc_margin+0x1>
    3424:	24 1b       	sub	r18, r20
    3426:	35 0b       	sbc	r19, r21
    3428:	e0 91 0a 03 	lds	r30, 0x030A	; 0x80030a <__brkval>
    342c:	f0 91 0b 03 	lds	r31, 0x030B	; 0x80030b <__brkval+0x1>
    3430:	e2 17       	cp	r30, r18
    3432:	f3 07       	cpc	r31, r19
    3434:	a0 f4       	brcc	.+40     	; 0x345e <malloc+0x132>
    3436:	2e 1b       	sub	r18, r30
    3438:	3f 0b       	sbc	r19, r31
    343a:	28 17       	cp	r18, r24
    343c:	39 07       	cpc	r19, r25
    343e:	78 f0       	brcs	.+30     	; 0x345e <malloc+0x132>
    3440:	ac 01       	movw	r20, r24
    3442:	4e 5f       	subi	r20, 0xFE	; 254
    3444:	5f 4f       	sbci	r21, 0xFF	; 255
    3446:	24 17       	cp	r18, r20
    3448:	35 07       	cpc	r19, r21
    344a:	48 f0       	brcs	.+18     	; 0x345e <malloc+0x132>
    344c:	4e 0f       	add	r20, r30
    344e:	5f 1f       	adc	r21, r31
    3450:	50 93 0b 03 	sts	0x030B, r21	; 0x80030b <__brkval+0x1>
    3454:	40 93 0a 03 	sts	0x030A, r20	; 0x80030a <__brkval>
    3458:	81 93       	st	Z+, r24
    345a:	91 93       	st	Z+, r25
    345c:	9f cf       	rjmp	.-194    	; 0x339c <malloc+0x70>
    345e:	f0 e0       	ldi	r31, 0x00	; 0
    3460:	e0 e0       	ldi	r30, 0x00	; 0
    3462:	9c cf       	rjmp	.-200    	; 0x339c <malloc+0x70>

00003464 <free>:
free():
    3464:	cf 93       	push	r28
    3466:	df 93       	push	r29
    3468:	00 97       	sbiw	r24, 0x00	; 0
    346a:	e9 f0       	breq	.+58     	; 0x34a6 <free+0x42>
    346c:	fc 01       	movw	r30, r24
    346e:	32 97       	sbiw	r30, 0x02	; 2
    3470:	13 82       	std	Z+3, r1	; 0x03
    3472:	12 82       	std	Z+2, r1	; 0x02
    3474:	a0 91 0c 03 	lds	r26, 0x030C	; 0x80030c <__flp>
    3478:	b0 91 0d 03 	lds	r27, 0x030D	; 0x80030d <__flp+0x1>
    347c:	ed 01       	movw	r28, r26
    347e:	30 e0       	ldi	r19, 0x00	; 0
    3480:	20 e0       	ldi	r18, 0x00	; 0
    3482:	10 97       	sbiw	r26, 0x00	; 0
    3484:	a1 f4       	brne	.+40     	; 0x34ae <free+0x4a>
    3486:	20 81       	ld	r18, Z
    3488:	31 81       	ldd	r19, Z+1	; 0x01
    348a:	82 0f       	add	r24, r18
    348c:	93 1f       	adc	r25, r19
    348e:	20 91 0a 03 	lds	r18, 0x030A	; 0x80030a <__brkval>
    3492:	30 91 0b 03 	lds	r19, 0x030B	; 0x80030b <__brkval+0x1>
    3496:	28 17       	cp	r18, r24
    3498:	39 07       	cpc	r19, r25
    349a:	09 f0       	breq	.+2      	; 0x349e <free+0x3a>
    349c:	61 c0       	rjmp	.+194    	; 0x3560 <free+0xfc>
    349e:	f0 93 0b 03 	sts	0x030B, r31	; 0x80030b <__brkval+0x1>
    34a2:	e0 93 0a 03 	sts	0x030A, r30	; 0x80030a <__brkval>
    34a6:	df 91       	pop	r29
    34a8:	cf 91       	pop	r28
    34aa:	08 95       	ret
    34ac:	ea 01       	movw	r28, r20
    34ae:	ce 17       	cp	r28, r30
    34b0:	df 07       	cpc	r29, r31
    34b2:	e8 f5       	brcc	.+122    	; 0x352e <free+0xca>
    34b4:	4a 81       	ldd	r20, Y+2	; 0x02
    34b6:	5b 81       	ldd	r21, Y+3	; 0x03
    34b8:	9e 01       	movw	r18, r28
    34ba:	41 15       	cp	r20, r1
    34bc:	51 05       	cpc	r21, r1
    34be:	b1 f7       	brne	.-20     	; 0x34ac <free+0x48>
    34c0:	e9 01       	movw	r28, r18
    34c2:	fb 83       	std	Y+3, r31	; 0x03
    34c4:	ea 83       	std	Y+2, r30	; 0x02
    34c6:	49 91       	ld	r20, Y+
    34c8:	59 91       	ld	r21, Y+
    34ca:	c4 0f       	add	r28, r20
    34cc:	d5 1f       	adc	r29, r21
    34ce:	ec 17       	cp	r30, r28
    34d0:	fd 07       	cpc	r31, r29
    34d2:	61 f4       	brne	.+24     	; 0x34ec <free+0x88>
    34d4:	80 81       	ld	r24, Z
    34d6:	91 81       	ldd	r25, Z+1	; 0x01
    34d8:	02 96       	adiw	r24, 0x02	; 2
    34da:	84 0f       	add	r24, r20
    34dc:	95 1f       	adc	r25, r21
    34de:	e9 01       	movw	r28, r18
    34e0:	99 83       	std	Y+1, r25	; 0x01
    34e2:	88 83       	st	Y, r24
    34e4:	82 81       	ldd	r24, Z+2	; 0x02
    34e6:	93 81       	ldd	r25, Z+3	; 0x03
    34e8:	9b 83       	std	Y+3, r25	; 0x03
    34ea:	8a 83       	std	Y+2, r24	; 0x02
    34ec:	f0 e0       	ldi	r31, 0x00	; 0
    34ee:	e0 e0       	ldi	r30, 0x00	; 0
    34f0:	12 96       	adiw	r26, 0x02	; 2
    34f2:	8d 91       	ld	r24, X+
    34f4:	9c 91       	ld	r25, X
    34f6:	13 97       	sbiw	r26, 0x03	; 3
    34f8:	00 97       	sbiw	r24, 0x00	; 0
    34fa:	b9 f5       	brne	.+110    	; 0x356a <free+0x106>
    34fc:	2d 91       	ld	r18, X+
    34fe:	3c 91       	ld	r19, X
    3500:	11 97       	sbiw	r26, 0x01	; 1
    3502:	cd 01       	movw	r24, r26
    3504:	02 96       	adiw	r24, 0x02	; 2
    3506:	82 0f       	add	r24, r18
    3508:	93 1f       	adc	r25, r19
    350a:	20 91 0a 03 	lds	r18, 0x030A	; 0x80030a <__brkval>
    350e:	30 91 0b 03 	lds	r19, 0x030B	; 0x80030b <__brkval+0x1>
    3512:	28 17       	cp	r18, r24
    3514:	39 07       	cpc	r19, r25
    3516:	39 f6       	brne	.-114    	; 0x34a6 <free+0x42>
    3518:	30 97       	sbiw	r30, 0x00	; 0
    351a:	51 f5       	brne	.+84     	; 0x3570 <free+0x10c>
    351c:	10 92 0d 03 	sts	0x030D, r1	; 0x80030d <__flp+0x1>
    3520:	10 92 0c 03 	sts	0x030C, r1	; 0x80030c <__flp>
    3524:	b0 93 0b 03 	sts	0x030B, r27	; 0x80030b <__brkval+0x1>
    3528:	a0 93 0a 03 	sts	0x030A, r26	; 0x80030a <__brkval>
    352c:	bc cf       	rjmp	.-136    	; 0x34a6 <free+0x42>
    352e:	d3 83       	std	Z+3, r29	; 0x03
    3530:	c2 83       	std	Z+2, r28	; 0x02
    3532:	40 81       	ld	r20, Z
    3534:	51 81       	ldd	r21, Z+1	; 0x01
    3536:	84 0f       	add	r24, r20
    3538:	95 1f       	adc	r25, r21
    353a:	c8 17       	cp	r28, r24
    353c:	d9 07       	cpc	r29, r25
    353e:	61 f4       	brne	.+24     	; 0x3558 <free+0xf4>
    3540:	4e 5f       	subi	r20, 0xFE	; 254
    3542:	5f 4f       	sbci	r21, 0xFF	; 255
    3544:	88 81       	ld	r24, Y
    3546:	99 81       	ldd	r25, Y+1	; 0x01
    3548:	48 0f       	add	r20, r24
    354a:	59 1f       	adc	r21, r25
    354c:	51 83       	std	Z+1, r21	; 0x01
    354e:	40 83       	st	Z, r20
    3550:	8a 81       	ldd	r24, Y+2	; 0x02
    3552:	9b 81       	ldd	r25, Y+3	; 0x03
    3554:	93 83       	std	Z+3, r25	; 0x03
    3556:	82 83       	std	Z+2, r24	; 0x02
    3558:	21 15       	cp	r18, r1
    355a:	31 05       	cpc	r19, r1
    355c:	09 f0       	breq	.+2      	; 0x3560 <free+0xfc>
    355e:	b0 cf       	rjmp	.-160    	; 0x34c0 <free+0x5c>
    3560:	f0 93 0d 03 	sts	0x030D, r31	; 0x80030d <__flp+0x1>
    3564:	e0 93 0c 03 	sts	0x030C, r30	; 0x80030c <__flp>
    3568:	9e cf       	rjmp	.-196    	; 0x34a6 <free+0x42>
    356a:	fd 01       	movw	r30, r26
    356c:	dc 01       	movw	r26, r24
    356e:	c0 cf       	rjmp	.-128    	; 0x34f0 <free+0x8c>
    3570:	13 82       	std	Z+3, r1	; 0x03
    3572:	12 82       	std	Z+2, r1	; 0x02
    3574:	d7 cf       	rjmp	.-82     	; 0x3524 <free+0xc0>

00003576 <strcspn>:
strcspn():
    3576:	dc 01       	movw	r26, r24
    3578:	5d 91       	ld	r21, X+
    357a:	55 23       	and	r21, r21
    357c:	31 f0       	breq	.+12     	; 0x358a <strcspn+0x14>
    357e:	fb 01       	movw	r30, r22
    3580:	01 90       	ld	r0, Z+
    3582:	05 16       	cp	r0, r21
    3584:	01 10       	cpse	r0, r1
    3586:	e1 f7       	brne	.-8      	; 0x3580 <strcspn+0xa>
    3588:	b9 f7       	brne	.-18     	; 0x3578 <strcspn+0x2>
    358a:	80 95       	com	r24
    358c:	90 95       	com	r25
    358e:	8a 0f       	add	r24, r26
    3590:	9b 1f       	adc	r25, r27
    3592:	08 95       	ret

00003594 <strncmp>:
strncmp():
    3594:	fb 01       	movw	r30, r22
    3596:	dc 01       	movw	r26, r24
    3598:	41 50       	subi	r20, 0x01	; 1
    359a:	50 40       	sbci	r21, 0x00	; 0
    359c:	30 f0       	brcs	.+12     	; 0x35aa <strncmp+0x16>
    359e:	8d 91       	ld	r24, X+
    35a0:	01 90       	ld	r0, Z+
    35a2:	80 19       	sub	r24, r0
    35a4:	19 f4       	brne	.+6      	; 0x35ac <strncmp+0x18>
    35a6:	00 20       	and	r0, r0
    35a8:	b9 f7       	brne	.-18     	; 0x3598 <strncmp+0x4>
    35aa:	88 1b       	sub	r24, r24
    35ac:	99 0b       	sbc	r25, r25
    35ae:	08 95       	ret

000035b0 <sscanf>:
sscanf():
    35b0:	ae e0       	ldi	r26, 0x0E	; 14
    35b2:	b0 e0       	ldi	r27, 0x00	; 0
    35b4:	ee ed       	ldi	r30, 0xDE	; 222
    35b6:	fa e1       	ldi	r31, 0x1A	; 26
    35b8:	0c 94 f4 18 	jmp	0x31e8	; 0x31e8 <__prologue_saves__+0x20>
    35bc:	85 e0       	ldi	r24, 0x05	; 5
    35be:	8c 83       	std	Y+4, r24	; 0x04
    35c0:	8b 89       	ldd	r24, Y+19	; 0x13
    35c2:	9c 89       	ldd	r25, Y+20	; 0x14
    35c4:	9a 83       	std	Y+2, r25	; 0x02
    35c6:	89 83       	std	Y+1, r24	; 0x01
    35c8:	ae 01       	movw	r20, r28
    35ca:	49 5e       	subi	r20, 0xE9	; 233
    35cc:	5f 4f       	sbci	r21, 0xFF	; 255
    35ce:	6d 89       	ldd	r22, Y+21	; 0x15
    35d0:	7e 89       	ldd	r23, Y+22	; 0x16
    35d2:	ce 01       	movw	r24, r28
    35d4:	01 96       	adiw	r24, 0x01	; 1
    35d6:	0e 94 7c 1c 	call	0x38f8	; 0x38f8 <vfscanf>
    35da:	2e 96       	adiw	r28, 0x0e	; 14
    35dc:	e2 e0       	ldi	r30, 0x02	; 2
    35de:	0c 94 10 19 	jmp	0x3220	; 0x3220 <__epilogue_restores__+0x20>

000035e2 <putval>:
putval():
    35e2:	20 fd       	sbrc	r18, 0
    35e4:	09 c0       	rjmp	.+18     	; 0x35f8 <putval+0x16>
    35e6:	fc 01       	movw	r30, r24
    35e8:	23 fd       	sbrc	r18, 3
    35ea:	05 c0       	rjmp	.+10     	; 0x35f6 <putval+0x14>
    35ec:	22 ff       	sbrs	r18, 2
    35ee:	02 c0       	rjmp	.+4      	; 0x35f4 <putval+0x12>
    35f0:	73 83       	std	Z+3, r23	; 0x03
    35f2:	62 83       	std	Z+2, r22	; 0x02
    35f4:	51 83       	std	Z+1, r21	; 0x01
    35f6:	40 83       	st	Z, r20
    35f8:	08 95       	ret

000035fa <mulacc>:
mulacc():
    35fa:	44 fd       	sbrc	r20, 4
    35fc:	17 c0       	rjmp	.+46     	; 0x362c <mulacc+0x32>
    35fe:	46 fd       	sbrc	r20, 6
    3600:	1d c0       	rjmp	.+58     	; 0x363c <mulacc+0x42>
    3602:	db 01       	movw	r26, r22
    3604:	fc 01       	movw	r30, r24
    3606:	aa 0f       	add	r26, r26
    3608:	bb 1f       	adc	r27, r27
    360a:	ee 1f       	adc	r30, r30
    360c:	ff 1f       	adc	r31, r31
    360e:	10 94       	com	r1
    3610:	d1 f7       	brne	.-12     	; 0x3606 <mulacc+0xc>
    3612:	6a 0f       	add	r22, r26
    3614:	7b 1f       	adc	r23, r27
    3616:	8e 1f       	adc	r24, r30
    3618:	9f 1f       	adc	r25, r31
    361a:	66 0f       	add	r22, r22
    361c:	77 1f       	adc	r23, r23
    361e:	88 1f       	adc	r24, r24
    3620:	99 1f       	adc	r25, r25
    3622:	62 0f       	add	r22, r18
    3624:	71 1d       	adc	r23, r1
    3626:	81 1d       	adc	r24, r1
    3628:	91 1d       	adc	r25, r1
    362a:	08 95       	ret
    362c:	33 e0       	ldi	r19, 0x03	; 3
    362e:	66 0f       	add	r22, r22
    3630:	77 1f       	adc	r23, r23
    3632:	88 1f       	adc	r24, r24
    3634:	99 1f       	adc	r25, r25
    3636:	31 50       	subi	r19, 0x01	; 1
    3638:	d1 f7       	brne	.-12     	; 0x362e <mulacc+0x34>
    363a:	f3 cf       	rjmp	.-26     	; 0x3622 <mulacc+0x28>
    363c:	34 e0       	ldi	r19, 0x04	; 4
    363e:	f7 cf       	rjmp	.-18     	; 0x362e <mulacc+0x34>

00003640 <skip_spaces>:
skip_spaces():
    3640:	0f 93       	push	r16
    3642:	1f 93       	push	r17
    3644:	cf 93       	push	r28
    3646:	df 93       	push	r29
    3648:	8c 01       	movw	r16, r24
    364a:	c8 01       	movw	r24, r16
    364c:	0e 94 8c 1d 	call	0x3b18	; 0x3b18 <fgetc>
    3650:	ec 01       	movw	r28, r24
    3652:	97 fd       	sbrc	r25, 7
    3654:	08 c0       	rjmp	.+16     	; 0x3666 <skip_spaces+0x26>
    3656:	0e 94 c3 18 	call	0x3186	; 0x3186 <isspace>
    365a:	89 2b       	or	r24, r25
    365c:	b1 f7       	brne	.-20     	; 0x364a <skip_spaces+0xa>
    365e:	b8 01       	movw	r22, r16
    3660:	ce 01       	movw	r24, r28
    3662:	0e 94 c8 1d 	call	0x3b90	; 0x3b90 <ungetc>
    3666:	ce 01       	movw	r24, r28
    3668:	df 91       	pop	r29
    366a:	cf 91       	pop	r28
    366c:	1f 91       	pop	r17
    366e:	0f 91       	pop	r16
    3670:	08 95       	ret

00003672 <conv_int>:
conv_int():
    3672:	8f 92       	push	r8
    3674:	9f 92       	push	r9
    3676:	af 92       	push	r10
    3678:	bf 92       	push	r11
    367a:	ef 92       	push	r14
    367c:	ff 92       	push	r15
    367e:	0f 93       	push	r16
    3680:	1f 93       	push	r17
    3682:	cf 93       	push	r28
    3684:	df 93       	push	r29
    3686:	8c 01       	movw	r16, r24
    3688:	d6 2f       	mov	r29, r22
    368a:	7a 01       	movw	r14, r20
    368c:	b2 2e       	mov	r11, r18
    368e:	0e 94 8c 1d 	call	0x3b18	; 0x3b18 <fgetc>
    3692:	9c 01       	movw	r18, r24
    3694:	33 27       	eor	r19, r19
    3696:	2b 32       	cpi	r18, 0x2B	; 43
    3698:	31 05       	cpc	r19, r1
    369a:	29 f0       	breq	.+10     	; 0x36a6 <conv_int+0x34>
    369c:	2d 32       	cpi	r18, 0x2D	; 45
    369e:	31 05       	cpc	r19, r1
    36a0:	a9 f4       	brne	.+42     	; 0x36cc <conv_int+0x5a>
    36a2:	68 94       	set
    36a4:	b7 f8       	bld	r11, 7
    36a6:	d1 50       	subi	r29, 0x01	; 1
    36a8:	61 f4       	brne	.+24     	; 0x36c2 <conv_int+0x50>
    36aa:	80 e0       	ldi	r24, 0x00	; 0
    36ac:	df 91       	pop	r29
    36ae:	cf 91       	pop	r28
    36b0:	1f 91       	pop	r17
    36b2:	0f 91       	pop	r16
    36b4:	ff 90       	pop	r15
    36b6:	ef 90       	pop	r14
    36b8:	bf 90       	pop	r11
    36ba:	af 90       	pop	r10
    36bc:	9f 90       	pop	r9
    36be:	8f 90       	pop	r8
    36c0:	08 95       	ret
    36c2:	c8 01       	movw	r24, r16
    36c4:	0e 94 8c 1d 	call	0x3b18	; 0x3b18 <fgetc>
    36c8:	97 fd       	sbrc	r25, 7
    36ca:	ef cf       	rjmp	.-34     	; 0x36aa <conv_int+0x38>
    36cc:	cb 2d       	mov	r28, r11
    36ce:	cd 7f       	andi	r28, 0xFD	; 253
    36d0:	2b 2d       	mov	r18, r11
    36d2:	20 73       	andi	r18, 0x30	; 48
    36d4:	f9 f4       	brne	.+62     	; 0x3714 <conv_int+0xa2>
    36d6:	80 33       	cpi	r24, 0x30	; 48
    36d8:	e9 f4       	brne	.+58     	; 0x3714 <conv_int+0xa2>
    36da:	aa 24       	eor	r10, r10
    36dc:	aa 94       	dec	r10
    36de:	ad 0e       	add	r10, r29
    36e0:	89 f0       	breq	.+34     	; 0x3704 <conv_int+0x92>
    36e2:	c8 01       	movw	r24, r16
    36e4:	0e 94 8c 1d 	call	0x3b18	; 0x3b18 <fgetc>
    36e8:	97 fd       	sbrc	r25, 7
    36ea:	0c c0       	rjmp	.+24     	; 0x3704 <conv_int+0x92>
    36ec:	28 2f       	mov	r18, r24
    36ee:	2f 7d       	andi	r18, 0xDF	; 223
    36f0:	28 35       	cpi	r18, 0x58	; 88
    36f2:	61 f4       	brne	.+24     	; 0x370c <conv_int+0x9a>
    36f4:	c2 64       	ori	r28, 0x42	; 66
    36f6:	d2 50       	subi	r29, 0x02	; 2
    36f8:	29 f0       	breq	.+10     	; 0x3704 <conv_int+0x92>
    36fa:	c8 01       	movw	r24, r16
    36fc:	0e 94 8c 1d 	call	0x3b18	; 0x3b18 <fgetc>
    3700:	97 ff       	sbrs	r25, 7
    3702:	08 c0       	rjmp	.+16     	; 0x3714 <conv_int+0xa2>
    3704:	81 2c       	mov	r8, r1
    3706:	91 2c       	mov	r9, r1
    3708:	54 01       	movw	r10, r8
    370a:	1b c0       	rjmp	.+54     	; 0x3742 <conv_int+0xd0>
    370c:	b6 fe       	sbrs	r11, 6
    370e:	2b c0       	rjmp	.+86     	; 0x3766 <conv_int+0xf4>
    3710:	c2 60       	ori	r28, 0x02	; 2
    3712:	da 2d       	mov	r29, r10
    3714:	81 2c       	mov	r8, r1
    3716:	91 2c       	mov	r9, r1
    3718:	54 01       	movw	r10, r8
    371a:	20 ed       	ldi	r18, 0xD0	; 208
    371c:	28 0f       	add	r18, r24
    371e:	28 30       	cpi	r18, 0x08	; 8
    3720:	28 f1       	brcs	.+74     	; 0x376c <conv_int+0xfa>
    3722:	c4 fd       	sbrc	r28, 4
    3724:	09 c0       	rjmp	.+18     	; 0x3738 <conv_int+0xc6>
    3726:	2a 30       	cpi	r18, 0x0A	; 10
    3728:	08 f1       	brcs	.+66     	; 0x376c <conv_int+0xfa>
    372a:	c6 ff       	sbrs	r28, 6
    372c:	05 c0       	rjmp	.+10     	; 0x3738 <conv_int+0xc6>
    372e:	2f 7d       	andi	r18, 0xDF	; 223
    3730:	3f ee       	ldi	r19, 0xEF	; 239
    3732:	32 0f       	add	r19, r18
    3734:	36 30       	cpi	r19, 0x06	; 6
    3736:	c8 f0       	brcs	.+50     	; 0x376a <conv_int+0xf8>
    3738:	b8 01       	movw	r22, r16
    373a:	0e 94 c8 1d 	call	0x3b90	; 0x3b90 <ungetc>
    373e:	c1 ff       	sbrs	r28, 1
    3740:	b4 cf       	rjmp	.-152    	; 0x36aa <conv_int+0x38>
    3742:	c7 ff       	sbrs	r28, 7
    3744:	08 c0       	rjmp	.+16     	; 0x3756 <conv_int+0xe4>
    3746:	b0 94       	com	r11
    3748:	a0 94       	com	r10
    374a:	90 94       	com	r9
    374c:	80 94       	com	r8
    374e:	81 1c       	adc	r8, r1
    3750:	91 1c       	adc	r9, r1
    3752:	a1 1c       	adc	r10, r1
    3754:	b1 1c       	adc	r11, r1
    3756:	2c 2f       	mov	r18, r28
    3758:	b5 01       	movw	r22, r10
    375a:	a4 01       	movw	r20, r8
    375c:	c7 01       	movw	r24, r14
    375e:	0e 94 f1 1a 	call	0x35e2	; 0x35e2 <putval>
    3762:	81 e0       	ldi	r24, 0x01	; 1
    3764:	a3 cf       	rjmp	.-186    	; 0x36ac <conv_int+0x3a>
    3766:	c2 61       	ori	r28, 0x12	; 18
    3768:	d4 cf       	rjmp	.-88     	; 0x3712 <conv_int+0xa0>
    376a:	27 50       	subi	r18, 0x07	; 7
    376c:	4c 2f       	mov	r20, r28
    376e:	c5 01       	movw	r24, r10
    3770:	b4 01       	movw	r22, r8
    3772:	0e 94 fd 1a 	call	0x35fa	; 0x35fa <mulacc>
    3776:	4b 01       	movw	r8, r22
    3778:	5c 01       	movw	r10, r24
    377a:	c2 60       	ori	r28, 0x02	; 2
    377c:	d1 50       	subi	r29, 0x01	; 1
    377e:	09 f3       	breq	.-62     	; 0x3742 <conv_int+0xd0>
    3780:	c8 01       	movw	r24, r16
    3782:	0e 94 8c 1d 	call	0x3b18	; 0x3b18 <fgetc>
    3786:	97 ff       	sbrs	r25, 7
    3788:	c8 cf       	rjmp	.-112    	; 0x371a <conv_int+0xa8>
    378a:	d9 cf       	rjmp	.-78     	; 0x373e <conv_int+0xcc>

0000378c <conv_brk>:
conv_brk():
    378c:	a0 e2       	ldi	r26, 0x20	; 32
    378e:	b0 e0       	ldi	r27, 0x00	; 0
    3790:	ec ec       	ldi	r30, 0xCC	; 204
    3792:	fb e1       	ldi	r31, 0x1B	; 27
    3794:	0c 94 e9 18 	jmp	0x31d2	; 0x31d2 <__prologue_saves__+0xa>
    3798:	5c 01       	movw	r10, r24
    379a:	96 2e       	mov	r9, r22
    379c:	7a 01       	movw	r14, r20
    379e:	ce 01       	movw	r24, r28
    37a0:	01 96       	adiw	r24, 0x01	; 1
    37a2:	6c 01       	movw	r12, r24
    37a4:	80 e2       	ldi	r24, 0x20	; 32
    37a6:	f6 01       	movw	r30, r12
    37a8:	11 92       	st	Z+, r1
    37aa:	8a 95       	dec	r24
    37ac:	e9 f7       	brne	.-6      	; 0x37a8 <conv_brk+0x1c>
    37ae:	f5 01       	movw	r30, r10
    37b0:	b3 81       	ldd	r27, Z+3	; 0x03
    37b2:	89 01       	movw	r16, r18
    37b4:	30 e0       	ldi	r19, 0x00	; 0
    37b6:	20 e0       	ldi	r18, 0x00	; 0
    37b8:	71 2c       	mov	r7, r1
    37ba:	81 2c       	mov	r8, r1
    37bc:	a0 e0       	ldi	r26, 0x00	; 0
    37be:	41 e0       	ldi	r20, 0x01	; 1
    37c0:	50 e0       	ldi	r21, 0x00	; 0
    37c2:	f8 01       	movw	r30, r16
    37c4:	b3 fd       	sbrc	r27, 3
    37c6:	85 91       	lpm	r24, Z+
    37c8:	b3 ff       	sbrs	r27, 3
    37ca:	81 91       	ld	r24, Z+
    37cc:	98 2f       	mov	r25, r24
    37ce:	8f 01       	movw	r16, r30
    37d0:	81 11       	cpse	r24, r1
    37d2:	07 c0       	rjmp	.+14     	; 0x37e2 <conv_brk+0x56>
    37d4:	10 e0       	ldi	r17, 0x00	; 0
    37d6:	00 e0       	ldi	r16, 0x00	; 0
    37d8:	c8 01       	movw	r24, r16
    37da:	a0 96       	adiw	r28, 0x20	; 32
    37dc:	ed e0       	ldi	r30, 0x0D	; 13
    37de:	0c 94 05 19 	jmp	0x320a	; 0x320a <__epilogue_restores__+0xa>
    37e2:	8e 35       	cpi	r24, 0x5E	; 94
    37e4:	19 f4       	brne	.+6      	; 0x37ec <conv_brk+0x60>
    37e6:	21 15       	cp	r18, r1
    37e8:	31 05       	cpc	r19, r1
    37ea:	41 f1       	breq	.+80     	; 0x383c <conv_brk+0xb0>
    37ec:	a2 17       	cp	r26, r18
    37ee:	13 06       	cpc	r1, r19
    37f0:	4c f4       	brge	.+18     	; 0x3804 <conv_brk+0x78>
    37f2:	8d 35       	cpi	r24, 0x5D	; 93
    37f4:	49 f1       	breq	.+82     	; 0x3848 <conv_brk+0xbc>
    37f6:	8d 32       	cpi	r24, 0x2D	; 45
    37f8:	29 f4       	brne	.+10     	; 0x3804 <conv_brk+0x78>
    37fa:	81 10       	cpse	r8, r1
    37fc:	06 c0       	rjmp	.+12     	; 0x380a <conv_brk+0x7e>
    37fe:	88 24       	eor	r8, r8
    3800:	83 94       	inc	r8
    3802:	1d c0       	rjmp	.+58     	; 0x383e <conv_brk+0xb2>
    3804:	88 20       	and	r8, r8
    3806:	09 f4       	brne	.+2      	; 0x380a <conv_brk+0x7e>
    3808:	64 c0       	rjmp	.+200    	; 0x38d2 <conv_brk+0x146>
    380a:	e9 2f       	mov	r30, r25
    380c:	e6 95       	lsr	r30
    380e:	e6 95       	lsr	r30
    3810:	e6 95       	lsr	r30
    3812:	ec 0d       	add	r30, r12
    3814:	fd 2d       	mov	r31, r13
    3816:	f1 1d       	adc	r31, r1
    3818:	89 2f       	mov	r24, r25
    381a:	87 70       	andi	r24, 0x07	; 7
    381c:	ba 01       	movw	r22, r20
    381e:	01 c0       	rjmp	.+2      	; 0x3822 <conv_brk+0x96>
    3820:	66 0f       	add	r22, r22
    3822:	8a 95       	dec	r24
    3824:	ea f7       	brpl	.-6      	; 0x3820 <conv_brk+0x94>
    3826:	80 81       	ld	r24, Z
    3828:	68 2b       	or	r22, r24
    382a:	60 83       	st	Z, r22
    382c:	79 16       	cp	r7, r25
    382e:	51 f0       	breq	.+20     	; 0x3844 <conv_brk+0xb8>
    3830:	97 15       	cp	r25, r7
    3832:	10 f4       	brcc	.+4      	; 0x3838 <conv_brk+0xac>
    3834:	9f 5f       	subi	r25, 0xFF	; 255
    3836:	e9 cf       	rjmp	.-46     	; 0x380a <conv_brk+0x7e>
    3838:	91 50       	subi	r25, 0x01	; 1
    383a:	e7 cf       	rjmp	.-50     	; 0x380a <conv_brk+0x7e>
    383c:	a1 e0       	ldi	r26, 0x01	; 1
    383e:	2f 5f       	subi	r18, 0xFF	; 255
    3840:	3f 4f       	sbci	r19, 0xFF	; 255
    3842:	bf cf       	rjmp	.-130    	; 0x37c2 <conv_brk+0x36>
    3844:	81 2c       	mov	r8, r1
    3846:	fb cf       	rjmp	.-10     	; 0x383e <conv_brk+0xb2>
    3848:	88 20       	and	r8, r8
    384a:	19 f0       	breq	.+6      	; 0x3852 <conv_brk+0xc6>
    384c:	8e 81       	ldd	r24, Y+6	; 0x06
    384e:	80 62       	ori	r24, 0x20	; 32
    3850:	8e 83       	std	Y+6, r24	; 0x06
    3852:	aa 23       	and	r26, r26
    3854:	59 f0       	breq	.+22     	; 0x386c <conv_brk+0xe0>
    3856:	f6 01       	movw	r30, r12
    3858:	9e 01       	movw	r18, r28
    385a:	2f 5d       	subi	r18, 0xDF	; 223
    385c:	3f 4f       	sbci	r19, 0xFF	; 255
    385e:	80 81       	ld	r24, Z
    3860:	80 95       	com	r24
    3862:	80 83       	st	Z, r24
    3864:	31 96       	adiw	r30, 0x01	; 1
    3866:	e2 17       	cp	r30, r18
    3868:	f3 07       	cpc	r31, r19
    386a:	c9 f7       	brne	.-14     	; 0x385e <conv_brk+0xd2>
    386c:	88 24       	eor	r8, r8
    386e:	83 94       	inc	r8
    3870:	c5 01       	movw	r24, r10
    3872:	0e 94 8c 1d 	call	0x3b18	; 0x3b18 <fgetc>
    3876:	97 fd       	sbrc	r25, 7
    3878:	16 c0       	rjmp	.+44     	; 0x38a6 <conv_brk+0x11a>
    387a:	e8 2f       	mov	r30, r24
    387c:	e6 95       	lsr	r30
    387e:	e6 95       	lsr	r30
    3880:	e6 95       	lsr	r30
    3882:	ec 0d       	add	r30, r12
    3884:	fd 2d       	mov	r31, r13
    3886:	f1 1d       	adc	r31, r1
    3888:	20 81       	ld	r18, Z
    388a:	30 e0       	ldi	r19, 0x00	; 0
    388c:	ac 01       	movw	r20, r24
    388e:	47 70       	andi	r20, 0x07	; 7
    3890:	55 27       	eor	r21, r21
    3892:	02 c0       	rjmp	.+4      	; 0x3898 <conv_brk+0x10c>
    3894:	35 95       	asr	r19
    3896:	27 95       	ror	r18
    3898:	4a 95       	dec	r20
    389a:	e2 f7       	brpl	.-8      	; 0x3894 <conv_brk+0x108>
    389c:	20 fd       	sbrc	r18, 0
    389e:	06 c0       	rjmp	.+12     	; 0x38ac <conv_brk+0x120>
    38a0:	b5 01       	movw	r22, r10
    38a2:	0e 94 c8 1d 	call	0x3b90	; 0x3b90 <ungetc>
    38a6:	88 20       	and	r8, r8
    38a8:	69 f0       	breq	.+26     	; 0x38c4 <conv_brk+0x138>
    38aa:	94 cf       	rjmp	.-216    	; 0x37d4 <conv_brk+0x48>
    38ac:	e1 14       	cp	r14, r1
    38ae:	f1 04       	cpc	r15, r1
    38b0:	29 f0       	breq	.+10     	; 0x38bc <conv_brk+0x130>
    38b2:	f7 01       	movw	r30, r14
    38b4:	80 83       	st	Z, r24
    38b6:	c7 01       	movw	r24, r14
    38b8:	01 96       	adiw	r24, 0x01	; 1
    38ba:	7c 01       	movw	r14, r24
    38bc:	9a 94       	dec	r9
    38be:	81 2c       	mov	r8, r1
    38c0:	91 10       	cpse	r9, r1
    38c2:	d6 cf       	rjmp	.-84     	; 0x3870 <conv_brk+0xe4>
    38c4:	e1 14       	cp	r14, r1
    38c6:	f1 04       	cpc	r15, r1
    38c8:	09 f4       	brne	.+2      	; 0x38cc <conv_brk+0x140>
    38ca:	86 cf       	rjmp	.-244    	; 0x37d8 <conv_brk+0x4c>
    38cc:	f7 01       	movw	r30, r14
    38ce:	10 82       	st	Z, r1
    38d0:	83 cf       	rjmp	.-250    	; 0x37d8 <conv_brk+0x4c>
    38d2:	e8 2f       	mov	r30, r24
    38d4:	e6 95       	lsr	r30
    38d6:	e6 95       	lsr	r30
    38d8:	e6 95       	lsr	r30
    38da:	ec 0d       	add	r30, r12
    38dc:	fd 2d       	mov	r31, r13
    38de:	f1 1d       	adc	r31, r1
    38e0:	98 2f       	mov	r25, r24
    38e2:	97 70       	andi	r25, 0x07	; 7
    38e4:	ba 01       	movw	r22, r20
    38e6:	01 c0       	rjmp	.+2      	; 0x38ea <conv_brk+0x15e>
    38e8:	66 0f       	add	r22, r22
    38ea:	9a 95       	dec	r25
    38ec:	ea f7       	brpl	.-6      	; 0x38e8 <conv_brk+0x15c>
    38ee:	90 81       	ld	r25, Z
    38f0:	69 2b       	or	r22, r25
    38f2:	60 83       	st	Z, r22
    38f4:	78 2e       	mov	r7, r24
    38f6:	a3 cf       	rjmp	.-186    	; 0x383e <conv_brk+0xb2>

000038f8 <vfscanf>:
vfscanf():
    38f8:	b0 e0       	ldi	r27, 0x00	; 0
    38fa:	a0 e0       	ldi	r26, 0x00	; 0
    38fc:	e2 e8       	ldi	r30, 0x82	; 130
    38fe:	fc e1       	ldi	r31, 0x1C	; 28
    3900:	0c 94 e7 18 	jmp	0x31ce	; 0x31ce <__prologue_saves__+0x6>
    3904:	6c 01       	movw	r12, r24
    3906:	eb 01       	movw	r28, r22
    3908:	5a 01       	movw	r10, r20
    390a:	fc 01       	movw	r30, r24
    390c:	17 82       	std	Z+7, r1	; 0x07
    390e:	16 82       	std	Z+6, r1	; 0x06
    3910:	51 2c       	mov	r5, r1
    3912:	f6 01       	movw	r30, r12
    3914:	e3 80       	ldd	r14, Z+3	; 0x03
    3916:	fe 01       	movw	r30, r28
    3918:	e3 fc       	sbrc	r14, 3
    391a:	85 91       	lpm	r24, Z+
    391c:	e3 fe       	sbrs	r14, 3
    391e:	81 91       	ld	r24, Z+
    3920:	18 2f       	mov	r17, r24
    3922:	ef 01       	movw	r28, r30
    3924:	88 23       	and	r24, r24
    3926:	e9 f0       	breq	.+58     	; 0x3962 <vfscanf+0x6a>
    3928:	90 e0       	ldi	r25, 0x00	; 0
    392a:	0e 94 c3 18 	call	0x3186	; 0x3186 <isspace>
    392e:	89 2b       	or	r24, r25
    3930:	21 f0       	breq	.+8      	; 0x393a <vfscanf+0x42>
    3932:	c6 01       	movw	r24, r12
    3934:	0e 94 20 1b 	call	0x3640	; 0x3640 <skip_spaces>
    3938:	ec cf       	rjmp	.-40     	; 0x3912 <vfscanf+0x1a>
    393a:	15 32       	cpi	r17, 0x25	; 37
    393c:	41 f4       	brne	.+16     	; 0x394e <vfscanf+0x56>
    393e:	fe 01       	movw	r30, r28
    3940:	e3 fc       	sbrc	r14, 3
    3942:	15 91       	lpm	r17, Z+
    3944:	e3 fe       	sbrs	r14, 3
    3946:	11 91       	ld	r17, Z+
    3948:	ef 01       	movw	r28, r30
    394a:	15 32       	cpi	r17, 0x25	; 37
    394c:	69 f4       	brne	.+26     	; 0x3968 <vfscanf+0x70>
    394e:	c6 01       	movw	r24, r12
    3950:	0e 94 8c 1d 	call	0x3b18	; 0x3b18 <fgetc>
    3954:	97 fd       	sbrc	r25, 7
    3956:	8e c0       	rjmp	.+284    	; 0x3a74 <vfscanf+0x17c>
    3958:	18 17       	cp	r17, r24
    395a:	d9 f2       	breq	.-74     	; 0x3912 <vfscanf+0x1a>
    395c:	b6 01       	movw	r22, r12
    395e:	0e 94 c8 1d 	call	0x3b90	; 0x3b90 <ungetc>
    3962:	85 2d       	mov	r24, r5
    3964:	90 e0       	ldi	r25, 0x00	; 0
    3966:	8a c0       	rjmp	.+276    	; 0x3a7c <vfscanf+0x184>
    3968:	00 e0       	ldi	r16, 0x00	; 0
    396a:	1a 32       	cpi	r17, 0x2A	; 42
    396c:	31 f4       	brne	.+12     	; 0x397a <vfscanf+0x82>
    396e:	e3 fc       	sbrc	r14, 3
    3970:	15 91       	lpm	r17, Z+
    3972:	e3 fe       	sbrs	r14, 3
    3974:	11 91       	ld	r17, Z+
    3976:	ef 01       	movw	r28, r30
    3978:	01 e0       	ldi	r16, 0x01	; 1
    397a:	f1 2c       	mov	r15, r1
    397c:	20 ed       	ldi	r18, 0xD0	; 208
    397e:	21 0f       	add	r18, r17
    3980:	2a 30       	cpi	r18, 0x0A	; 10
    3982:	48 f1       	brcs	.+82     	; 0x39d6 <vfscanf+0xde>
    3984:	01 ff       	sbrs	r16, 1
    3986:	37 c0       	rjmp	.+110    	; 0x39f6 <vfscanf+0xfe>
    3988:	ff 20       	and	r15, r15
    398a:	59 f3       	breq	.-42     	; 0x3962 <vfscanf+0x6a>
    398c:	18 36       	cpi	r17, 0x68	; 104
    398e:	b1 f1       	breq	.+108    	; 0x39fc <vfscanf+0x104>
    3990:	1c 36       	cpi	r17, 0x6C	; 108
    3992:	09 f4       	brne	.+2      	; 0x3996 <vfscanf+0x9e>
    3994:	3d c0       	rjmp	.+122    	; 0x3a10 <vfscanf+0x118>
    3996:	11 23       	and	r17, r17
    3998:	21 f3       	breq	.-56     	; 0x3962 <vfscanf+0x6a>
    399a:	61 2f       	mov	r22, r17
    399c:	70 e0       	ldi	r23, 0x00	; 0
    399e:	84 e5       	ldi	r24, 0x54	; 84
    39a0:	90 e0       	ldi	r25, 0x00	; 0
    39a2:	0e 94 81 1d 	call	0x3b02	; 0x3b02 <strchr_P>
    39a6:	89 2b       	or	r24, r25
    39a8:	e1 f2       	breq	.-72     	; 0x3962 <vfscanf+0x6a>
    39aa:	91 2c       	mov	r9, r1
    39ac:	81 2c       	mov	r8, r1
    39ae:	00 fd       	sbrc	r16, 0
    39b0:	06 c0       	rjmp	.+12     	; 0x39be <vfscanf+0xc6>
    39b2:	f5 01       	movw	r30, r10
    39b4:	80 80       	ld	r8, Z
    39b6:	91 80       	ldd	r9, Z+1	; 0x01
    39b8:	c5 01       	movw	r24, r10
    39ba:	02 96       	adiw	r24, 0x02	; 2
    39bc:	5c 01       	movw	r10, r24
    39be:	1e 36       	cpi	r17, 0x6E	; 110
    39c0:	79 f5       	brne	.+94     	; 0x3a20 <vfscanf+0x128>
    39c2:	f6 01       	movw	r30, r12
    39c4:	46 81       	ldd	r20, Z+6	; 0x06
    39c6:	57 81       	ldd	r21, Z+7	; 0x07
    39c8:	70 e0       	ldi	r23, 0x00	; 0
    39ca:	60 e0       	ldi	r22, 0x00	; 0
    39cc:	20 2f       	mov	r18, r16
    39ce:	c4 01       	movw	r24, r8
    39d0:	0e 94 f1 1a 	call	0x35e2	; 0x35e2 <putval>
    39d4:	9e cf       	rjmp	.-196    	; 0x3912 <vfscanf+0x1a>
    39d6:	02 60       	ori	r16, 0x02	; 2
    39d8:	6f 2d       	mov	r22, r15
    39da:	70 e0       	ldi	r23, 0x00	; 0
    39dc:	90 e0       	ldi	r25, 0x00	; 0
    39de:	80 e0       	ldi	r24, 0x00	; 0
    39e0:	40 e2       	ldi	r20, 0x20	; 32
    39e2:	0e 94 fd 1a 	call	0x35fa	; 0x35fa <mulacc>
    39e6:	f6 2e       	mov	r15, r22
    39e8:	fe 01       	movw	r30, r28
    39ea:	e3 fc       	sbrc	r14, 3
    39ec:	15 91       	lpm	r17, Z+
    39ee:	e3 fe       	sbrs	r14, 3
    39f0:	11 91       	ld	r17, Z+
    39f2:	ef 01       	movw	r28, r30
    39f4:	c3 cf       	rjmp	.-122    	; 0x397c <vfscanf+0x84>
    39f6:	ff 24       	eor	r15, r15
    39f8:	fa 94       	dec	r15
    39fa:	c8 cf       	rjmp	.-112    	; 0x398c <vfscanf+0x94>
    39fc:	fe 01       	movw	r30, r28
    39fe:	e3 fc       	sbrc	r14, 3
    3a00:	15 91       	lpm	r17, Z+
    3a02:	e3 fe       	sbrs	r14, 3
    3a04:	11 91       	ld	r17, Z+
    3a06:	ef 01       	movw	r28, r30
    3a08:	18 36       	cpi	r17, 0x68	; 104
    3a0a:	09 f0       	breq	.+2      	; 0x3a0e <vfscanf+0x116>
    3a0c:	c4 cf       	rjmp	.-120    	; 0x3996 <vfscanf+0x9e>
    3a0e:	08 60       	ori	r16, 0x08	; 8
    3a10:	04 60       	ori	r16, 0x04	; 4
    3a12:	fe 01       	movw	r30, r28
    3a14:	e3 fc       	sbrc	r14, 3
    3a16:	15 91       	lpm	r17, Z+
    3a18:	e3 fe       	sbrs	r14, 3
    3a1a:	11 91       	ld	r17, Z+
    3a1c:	ef 01       	movw	r28, r30
    3a1e:	bb cf       	rjmp	.-138    	; 0x3996 <vfscanf+0x9e>
    3a20:	13 36       	cpi	r17, 0x63	; 99
    3a22:	c1 f4       	brne	.+48     	; 0x3a54 <vfscanf+0x15c>
    3a24:	01 fd       	sbrc	r16, 1
    3a26:	02 c0       	rjmp	.+4      	; 0x3a2c <vfscanf+0x134>
    3a28:	ff 24       	eor	r15, r15
    3a2a:	f3 94       	inc	r15
    3a2c:	c6 01       	movw	r24, r12
    3a2e:	0e 94 8c 1d 	call	0x3b18	; 0x3b18 <fgetc>
    3a32:	97 fd       	sbrc	r25, 7
    3a34:	1f c0       	rjmp	.+62     	; 0x3a74 <vfscanf+0x17c>
    3a36:	81 14       	cp	r8, r1
    3a38:	91 04       	cpc	r9, r1
    3a3a:	29 f0       	breq	.+10     	; 0x3a46 <vfscanf+0x14e>
    3a3c:	f4 01       	movw	r30, r8
    3a3e:	80 83       	st	Z, r24
    3a40:	c4 01       	movw	r24, r8
    3a42:	01 96       	adiw	r24, 0x01	; 1
    3a44:	4c 01       	movw	r8, r24
    3a46:	fa 94       	dec	r15
    3a48:	f1 10       	cpse	r15, r1
    3a4a:	f0 cf       	rjmp	.-32     	; 0x3a2c <vfscanf+0x134>
    3a4c:	00 fd       	sbrc	r16, 0
    3a4e:	61 cf       	rjmp	.-318    	; 0x3912 <vfscanf+0x1a>
    3a50:	53 94       	inc	r5
    3a52:	5f cf       	rjmp	.-322    	; 0x3912 <vfscanf+0x1a>
    3a54:	1b 35       	cpi	r17, 0x5B	; 91
    3a56:	b9 f4       	brne	.+46     	; 0x3a86 <vfscanf+0x18e>
    3a58:	9e 01       	movw	r18, r28
    3a5a:	a4 01       	movw	r20, r8
    3a5c:	6f 2d       	mov	r22, r15
    3a5e:	c6 01       	movw	r24, r12
    3a60:	0e 94 c6 1b 	call	0x378c	; 0x378c <conv_brk>
    3a64:	ec 01       	movw	r28, r24
    3a66:	89 2b       	or	r24, r25
    3a68:	89 f7       	brne	.-30     	; 0x3a4c <vfscanf+0x154>
    3a6a:	f6 01       	movw	r30, r12
    3a6c:	83 81       	ldd	r24, Z+3	; 0x03
    3a6e:	80 73       	andi	r24, 0x30	; 48
    3a70:	09 f4       	brne	.+2      	; 0x3a74 <vfscanf+0x17c>
    3a72:	77 cf       	rjmp	.-274    	; 0x3962 <vfscanf+0x6a>
    3a74:	8f ef       	ldi	r24, 0xFF	; 255
    3a76:	9f ef       	ldi	r25, 0xFF	; 255
    3a78:	51 10       	cpse	r5, r1
    3a7a:	73 cf       	rjmp	.-282    	; 0x3962 <vfscanf+0x6a>
    3a7c:	cd b7       	in	r28, 0x3d	; 61
    3a7e:	de b7       	in	r29, 0x3e	; 62
    3a80:	ef e0       	ldi	r30, 0x0F	; 15
    3a82:	0c 94 03 19 	jmp	0x3206	; 0x3206 <__epilogue_restores__+0x6>
    3a86:	c6 01       	movw	r24, r12
    3a88:	0e 94 20 1b 	call	0x3640	; 0x3640 <skip_spaces>
    3a8c:	97 fd       	sbrc	r25, 7
    3a8e:	f2 cf       	rjmp	.-28     	; 0x3a74 <vfscanf+0x17c>
    3a90:	1f 36       	cpi	r17, 0x6F	; 111
    3a92:	a9 f1       	breq	.+106    	; 0x3afe <vfscanf+0x206>
    3a94:	30 f4       	brcc	.+12     	; 0x3aa2 <vfscanf+0x1aa>
    3a96:	14 36       	cpi	r17, 0x64	; 100
    3a98:	41 f0       	breq	.+16     	; 0x3aaa <vfscanf+0x1b2>
    3a9a:	19 36       	cpi	r17, 0x69	; 105
    3a9c:	39 f0       	breq	.+14     	; 0x3aac <vfscanf+0x1b4>
    3a9e:	00 64       	ori	r16, 0x40	; 64
    3aa0:	05 c0       	rjmp	.+10     	; 0x3aac <vfscanf+0x1b4>
    3aa2:	13 37       	cpi	r17, 0x73	; 115
    3aa4:	b9 f0       	breq	.+46     	; 0x3ad4 <vfscanf+0x1dc>
    3aa6:	15 37       	cpi	r17, 0x75	; 117
    3aa8:	d1 f7       	brne	.-12     	; 0x3a9e <vfscanf+0x1a6>
    3aaa:	00 62       	ori	r16, 0x20	; 32
    3aac:	20 2f       	mov	r18, r16
    3aae:	a4 01       	movw	r20, r8
    3ab0:	6f 2d       	mov	r22, r15
    3ab2:	c6 01       	movw	r24, r12
    3ab4:	0e 94 39 1b 	call	0x3672	; 0x3672 <conv_int>
    3ab8:	81 11       	cpse	r24, r1
    3aba:	c8 cf       	rjmp	.-112    	; 0x3a4c <vfscanf+0x154>
    3abc:	d6 cf       	rjmp	.-84     	; 0x3a6a <vfscanf+0x172>
    3abe:	81 14       	cp	r8, r1
    3ac0:	91 04       	cpc	r9, r1
    3ac2:	29 f0       	breq	.+10     	; 0x3ace <vfscanf+0x1d6>
    3ac4:	f4 01       	movw	r30, r8
    3ac6:	60 82       	st	Z, r6
    3ac8:	c4 01       	movw	r24, r8
    3aca:	01 96       	adiw	r24, 0x01	; 1
    3acc:	4c 01       	movw	r8, r24
    3ace:	fa 94       	dec	r15
    3ad0:	ff 20       	and	r15, r15
    3ad2:	71 f0       	breq	.+28     	; 0x3af0 <vfscanf+0x1f8>
    3ad4:	c6 01       	movw	r24, r12
    3ad6:	0e 94 8c 1d 	call	0x3b18	; 0x3b18 <fgetc>
    3ada:	3c 01       	movw	r6, r24
    3adc:	97 fd       	sbrc	r25, 7
    3ade:	08 c0       	rjmp	.+16     	; 0x3af0 <vfscanf+0x1f8>
    3ae0:	0e 94 c3 18 	call	0x3186	; 0x3186 <isspace>
    3ae4:	89 2b       	or	r24, r25
    3ae6:	59 f3       	breq	.-42     	; 0x3abe <vfscanf+0x1c6>
    3ae8:	b6 01       	movw	r22, r12
    3aea:	c3 01       	movw	r24, r6
    3aec:	0e 94 c8 1d 	call	0x3b90	; 0x3b90 <ungetc>
    3af0:	81 14       	cp	r8, r1
    3af2:	91 04       	cpc	r9, r1
    3af4:	09 f4       	brne	.+2      	; 0x3af8 <vfscanf+0x200>
    3af6:	aa cf       	rjmp	.-172    	; 0x3a4c <vfscanf+0x154>
    3af8:	f4 01       	movw	r30, r8
    3afa:	10 82       	st	Z, r1
    3afc:	a7 cf       	rjmp	.-178    	; 0x3a4c <vfscanf+0x154>
    3afe:	00 61       	ori	r16, 0x10	; 16
    3b00:	d5 cf       	rjmp	.-86     	; 0x3aac <vfscanf+0x1b4>

00003b02 <strchr_P>:
strchr_P():
    3b02:	fc 01       	movw	r30, r24
    3b04:	05 90       	lpm	r0, Z+
    3b06:	06 16       	cp	r0, r22
    3b08:	21 f0       	breq	.+8      	; 0x3b12 <strchr_P+0x10>
    3b0a:	00 20       	and	r0, r0
    3b0c:	d9 f7       	brne	.-10     	; 0x3b04 <strchr_P+0x2>
    3b0e:	c0 01       	movw	r24, r0
    3b10:	08 95       	ret
    3b12:	31 97       	sbiw	r30, 0x01	; 1
    3b14:	cf 01       	movw	r24, r30
    3b16:	08 95       	ret

00003b18 <fgetc>:
fgetc():
    3b18:	cf 93       	push	r28
    3b1a:	df 93       	push	r29
    3b1c:	ec 01       	movw	r28, r24
    3b1e:	2b 81       	ldd	r18, Y+3	; 0x03
    3b20:	20 ff       	sbrs	r18, 0
    3b22:	1a c0       	rjmp	.+52     	; 0x3b58 <fgetc+0x40>
    3b24:	26 ff       	sbrs	r18, 6
    3b26:	0c c0       	rjmp	.+24     	; 0x3b40 <fgetc+0x28>
    3b28:	2f 7b       	andi	r18, 0xBF	; 191
    3b2a:	2b 83       	std	Y+3, r18	; 0x03
    3b2c:	8e 81       	ldd	r24, Y+6	; 0x06
    3b2e:	9f 81       	ldd	r25, Y+7	; 0x07
    3b30:	01 96       	adiw	r24, 0x01	; 1
    3b32:	9f 83       	std	Y+7, r25	; 0x07
    3b34:	8e 83       	std	Y+6, r24	; 0x06
    3b36:	8a 81       	ldd	r24, Y+2	; 0x02
    3b38:	90 e0       	ldi	r25, 0x00	; 0
    3b3a:	df 91       	pop	r29
    3b3c:	cf 91       	pop	r28
    3b3e:	08 95       	ret
    3b40:	22 ff       	sbrs	r18, 2
    3b42:	18 c0       	rjmp	.+48     	; 0x3b74 <fgetc+0x5c>
    3b44:	e8 81       	ld	r30, Y
    3b46:	f9 81       	ldd	r31, Y+1	; 0x01
    3b48:	80 81       	ld	r24, Z
    3b4a:	08 2e       	mov	r0, r24
    3b4c:	00 0c       	add	r0, r0
    3b4e:	99 0b       	sbc	r25, r25
    3b50:	00 97       	sbiw	r24, 0x00	; 0
    3b52:	29 f4       	brne	.+10     	; 0x3b5e <fgetc+0x46>
    3b54:	20 62       	ori	r18, 0x20	; 32
    3b56:	2b 83       	std	Y+3, r18	; 0x03
    3b58:	8f ef       	ldi	r24, 0xFF	; 255
    3b5a:	9f ef       	ldi	r25, 0xFF	; 255
    3b5c:	ee cf       	rjmp	.-36     	; 0x3b3a <fgetc+0x22>
    3b5e:	31 96       	adiw	r30, 0x01	; 1
    3b60:	f9 83       	std	Y+1, r31	; 0x01
    3b62:	e8 83       	st	Y, r30
    3b64:	2e 81       	ldd	r18, Y+6	; 0x06
    3b66:	3f 81       	ldd	r19, Y+7	; 0x07
    3b68:	2f 5f       	subi	r18, 0xFF	; 255
    3b6a:	3f 4f       	sbci	r19, 0xFF	; 255
    3b6c:	3f 83       	std	Y+7, r19	; 0x07
    3b6e:	2e 83       	std	Y+6, r18	; 0x06
    3b70:	99 27       	eor	r25, r25
    3b72:	e3 cf       	rjmp	.-58     	; 0x3b3a <fgetc+0x22>
    3b74:	ea 85       	ldd	r30, Y+10	; 0x0a
    3b76:	fb 85       	ldd	r31, Y+11	; 0x0b
    3b78:	09 95       	icall
    3b7a:	97 ff       	sbrs	r25, 7
    3b7c:	f3 cf       	rjmp	.-26     	; 0x3b64 <fgetc+0x4c>
    3b7e:	2b 81       	ldd	r18, Y+3	; 0x03
    3b80:	01 96       	adiw	r24, 0x01	; 1
    3b82:	21 f0       	breq	.+8      	; 0x3b8c <fgetc+0x74>
    3b84:	80 e2       	ldi	r24, 0x20	; 32
    3b86:	82 2b       	or	r24, r18
    3b88:	8b 83       	std	Y+3, r24	; 0x03
    3b8a:	e6 cf       	rjmp	.-52     	; 0x3b58 <fgetc+0x40>
    3b8c:	80 e1       	ldi	r24, 0x10	; 16
    3b8e:	fb cf       	rjmp	.-10     	; 0x3b86 <fgetc+0x6e>

00003b90 <ungetc>:
ungetc():
    3b90:	fb 01       	movw	r30, r22
    3b92:	23 81       	ldd	r18, Z+3	; 0x03
    3b94:	20 ff       	sbrs	r18, 0
    3b96:	11 c0       	rjmp	.+34     	; 0x3bba <ungetc+0x2a>
    3b98:	26 fd       	sbrc	r18, 6
    3b9a:	0f c0       	rjmp	.+30     	; 0x3bba <ungetc+0x2a>
    3b9c:	8f 3f       	cpi	r24, 0xFF	; 255
    3b9e:	98 07       	cpc	r25, r24
    3ba0:	71 f0       	breq	.+28     	; 0x3bbe <ungetc+0x2e>
    3ba2:	82 83       	std	Z+2, r24	; 0x02
    3ba4:	2f 7d       	andi	r18, 0xDF	; 223
    3ba6:	20 64       	ori	r18, 0x40	; 64
    3ba8:	23 83       	std	Z+3, r18	; 0x03
    3baa:	26 81       	ldd	r18, Z+6	; 0x06
    3bac:	37 81       	ldd	r19, Z+7	; 0x07
    3bae:	21 50       	subi	r18, 0x01	; 1
    3bb0:	31 09       	sbc	r19, r1
    3bb2:	37 83       	std	Z+7, r19	; 0x07
    3bb4:	26 83       	std	Z+6, r18	; 0x06
    3bb6:	99 27       	eor	r25, r25
    3bb8:	08 95       	ret
    3bba:	8f ef       	ldi	r24, 0xFF	; 255
    3bbc:	9f ef       	ldi	r25, 0xFF	; 255
    3bbe:	08 95       	ret

00003bc0 <__do_global_dtors>:
__do_global_dtors():
/home/jenkins-mingw32/workspace/avr-gcc-staging/label/Ubuntu14.04x64-mingw32/gcc-build/avr/avr5/libgcc/../../../../gcc/libgcc/config/avr/lib1funcs.S:2496
    3bc0:	11 e0       	ldi	r17, 0x01	; 1
/home/jenkins-mingw32/workspace/avr-gcc-staging/label/Ubuntu14.04x64-mingw32/gcc-build/avr/avr5/libgcc/../../../../gcc/libgcc/config/avr/lib1funcs.S:2497
    3bc2:	c8 ef       	ldi	r28, 0xF8	; 248
/home/jenkins-mingw32/workspace/avr-gcc-staging/label/Ubuntu14.04x64-mingw32/gcc-build/avr/avr5/libgcc/../../../../gcc/libgcc/config/avr/lib1funcs.S:2498
    3bc4:	d1 e0       	ldi	r29, 0x01	; 1
/home/jenkins-mingw32/workspace/avr-gcc-staging/label/Ubuntu14.04x64-mingw32/gcc-build/avr/avr5/libgcc/../../../../gcc/libgcc/config/avr/lib1funcs.S:2502
    3bc6:	04 c0       	rjmp	.+8      	; 0x3bd0 <__do_global_dtors+0x10>
/home/jenkins-mingw32/workspace/avr-gcc-staging/label/Ubuntu14.04x64-mingw32/gcc-build/avr/avr5/libgcc/../../../../gcc/libgcc/config/avr/lib1funcs.S:2508
    3bc8:	fe 01       	movw	r30, r28
/home/jenkins-mingw32/workspace/avr-gcc-staging/label/Ubuntu14.04x64-mingw32/gcc-build/avr/avr5/libgcc/../../../../gcc/libgcc/config/avr/lib1funcs.S:2509
    3bca:	0e 94 90 19 	call	0x3320	; 0x3320 <__tablejump2__>
/home/jenkins-mingw32/workspace/avr-gcc-staging/label/Ubuntu14.04x64-mingw32/gcc-build/avr/avr5/libgcc/../../../../gcc/libgcc/config/avr/lib1funcs.S:2510
    3bce:	21 96       	adiw	r28, 0x01	; 1
/home/jenkins-mingw32/workspace/avr-gcc-staging/label/Ubuntu14.04x64-mingw32/gcc-build/avr/avr5/libgcc/../../../../gcc/libgcc/config/avr/lib1funcs.S:2515
    3bd0:	c9 3f       	cpi	r28, 0xF9	; 249
/home/jenkins-mingw32/workspace/avr-gcc-staging/label/Ubuntu14.04x64-mingw32/gcc-build/avr/avr5/libgcc/../../../../gcc/libgcc/config/avr/lib1funcs.S:2516
    3bd2:	d1 07       	cpc	r29, r17
/home/jenkins-mingw32/workspace/avr-gcc-staging/label/Ubuntu14.04x64-mingw32/gcc-build/avr/avr5/libgcc/../../../../gcc/libgcc/config/avr/lib1funcs.S:2521
    3bd4:	c9 f7       	brne	.-14     	; 0x3bc8 <__do_global_dtors+0x8>
/home/jenkins-mingw32/workspace/avr-gcc-staging/label/Ubuntu14.04x64-mingw32/gcc-build/avr/avr5/libgcc/../../../../gcc/libgcc/config/avr/lib1funcs.S:2278
    3bd6:	f8 94       	cli

00003bd8 <__stop_program>:
__stop_program():
/home/jenkins-mingw32/workspace/avr-gcc-staging/label/Ubuntu14.04x64-mingw32/gcc-build/avr/avr5/libgcc/../../../../gcc/libgcc/config/avr/lib1funcs.S:2280
    3bd8:	ff cf       	rjmp	.-2      	; 0x3bd8 <__stop_program>
